Archive member included because of file (symbol)

c:/altera/10.1/nios2eds/bin/gnu/h-i686-mingw32/bin/../lib/gcc/nios2-elf/4.1.2\libgcc.a(_gt_sf.o)
                              obj/hello_world.o (__gtsf2)
c:/altera/10.1/nios2eds/bin/gnu/h-i686-mingw32/bin/../lib/gcc/nios2-elf/4.1.2\libgcc.a(_lt_sf.o)
                              obj/hello_world.o (__ltsf2)
c:/altera/10.1/nios2eds/bin/gnu/h-i686-mingw32/bin/../lib/gcc/nios2-elf/4.1.2\libgcc.a(_sf_to_df.o)
                              obj/hello_world.o (__extendsfdf2)
c:/altera/10.1/nios2eds/bin/gnu/h-i686-mingw32/bin/../lib/gcc/nios2-elf/4.1.2\libgcc.a(_div_df.o)
                              obj/hello_world.o (__divdf3)
c:/altera/10.1/nios2eds/bin/gnu/h-i686-mingw32/bin/../lib/gcc/nios2-elf/4.1.2\libgcc.a(_gt_df.o)
                              obj/hello_world.o (__gtdf2)
c:/altera/10.1/nios2eds/bin/gnu/h-i686-mingw32/bin/../lib/gcc/nios2-elf/4.1.2\libgcc.a(_lt_df.o)
                              obj/hello_world.o (__ltdf2)
c:/altera/10.1/nios2eds/bin/gnu/h-i686-mingw32/bin/../lib/gcc/nios2-elf/4.1.2\libgcc.a(_si_to_df.o)
                              obj/hello_world.o (__floatsidf)
c:/altera/10.1/nios2eds/bin/gnu/h-i686-mingw32/bin/../lib/gcc/nios2-elf/4.1.2\libgcc.a(_make_df.o)
                              c:/altera/10.1/nios2eds/bin/gnu/h-i686-mingw32/bin/../lib/gcc/nios2-elf/4.1.2\libgcc.a(_sf_to_df.o) (__make_dp)
c:/altera/10.1/nios2eds/bin/gnu/h-i686-mingw32/bin/../lib/gcc/nios2-elf/4.1.2\libgcc.a(_df_to_sf.o)
                              obj/hello_world.o (__truncdfsf2)
c:/altera/10.1/nios2eds/bin/gnu/h-i686-mingw32/bin/../lib/gcc/nios2-elf/4.1.2\libgcc.a(_thenan_df.o)
                              c:/altera/10.1/nios2eds/bin/gnu/h-i686-mingw32/bin/../lib/gcc/nios2-elf/4.1.2\libgcc.a(_div_df.o) (__thenan_df)
c:/altera/10.1/nios2eds/bin/gnu/h-i686-mingw32/bin/../lib/gcc/nios2-elf/4.1.2\libgcc.a(lib2-divmod.o)
                              obj/hello_world.o (__modsi3)
c:/altera/10.1/nios2eds/bin/gnu/h-i686-mingw32/bin/../lib/gcc/nios2-elf/4.1.2\libgcc.a(_clzsi2.o)
                              c:/altera/10.1/nios2eds/bin/gnu/h-i686-mingw32/bin/../lib/gcc/nios2-elf/4.1.2\libgcc.a(_si_to_df.o) (__clzsi2)
c:/altera/10.1/nios2eds/bin/gnu/h-i686-mingw32/bin/../lib/gcc/nios2-elf/4.1.2\libgcc.a(_unpack_sf.o)
                              c:/altera/10.1/nios2eds/bin/gnu/h-i686-mingw32/bin/../lib/gcc/nios2-elf/4.1.2\libgcc.a(_gt_sf.o) (__unpack_f)
c:/altera/10.1/nios2eds/bin/gnu/h-i686-mingw32/bin/../lib/gcc/nios2-elf/4.1.2\libgcc.a(_fpcmp_parts_sf.o)
                              c:/altera/10.1/nios2eds/bin/gnu/h-i686-mingw32/bin/../lib/gcc/nios2-elf/4.1.2\libgcc.a(_gt_sf.o) (__fpcmp_parts_f)
c:/altera/10.1/nios2eds/bin/gnu/h-i686-mingw32/bin/../lib/gcc/nios2-elf/4.1.2\libgcc.a(_make_sf.o)
                              c:/altera/10.1/nios2eds/bin/gnu/h-i686-mingw32/bin/../lib/gcc/nios2-elf/4.1.2\libgcc.a(_df_to_sf.o) (__make_fp)
c:/altera/10.1/nios2eds/bin/gnu/h-i686-mingw32/bin/../lib/gcc/nios2-elf/4.1.2\libgcc.a(_pack_df.o)
                              c:/altera/10.1/nios2eds/bin/gnu/h-i686-mingw32/bin/../lib/gcc/nios2-elf/4.1.2\libgcc.a(_div_df.o) (__pack_d)
c:/altera/10.1/nios2eds/bin/gnu/h-i686-mingw32/bin/../lib/gcc/nios2-elf/4.1.2\libgcc.a(_unpack_df.o)
                              c:/altera/10.1/nios2eds/bin/gnu/h-i686-mingw32/bin/../lib/gcc/nios2-elf/4.1.2\libgcc.a(_div_df.o) (__unpack_d)
c:/altera/10.1/nios2eds/bin/gnu/h-i686-mingw32/bin/../lib/gcc/nios2-elf/4.1.2\libgcc.a(_fpcmp_parts_df.o)
                              c:/altera/10.1/nios2eds/bin/gnu/h-i686-mingw32/bin/../lib/gcc/nios2-elf/4.1.2\libgcc.a(_gt_df.o) (__fpcmp_parts_d)
c:/altera/10.1/nios2eds/bin/gnu/h-i686-mingw32/bin/../lib/gcc/nios2-elf/4.1.2\libgcc.a(_clz.o)
                              c:/altera/10.1/nios2eds/bin/gnu/h-i686-mingw32/bin/../lib/gcc/nios2-elf/4.1.2\libgcc.a(_clzsi2.o) (__clz_tab)
c:/altera/10.1/nios2eds/bin/gnu/h-i686-mingw32/bin/../lib/gcc/nios2-elf/4.1.2\libgcc.a(_pack_sf.o)
                              c:/altera/10.1/nios2eds/bin/gnu/h-i686-mingw32/bin/../lib/gcc/nios2-elf/4.1.2\libgcc.a(_make_sf.o) (__pack_f)
c:/altera/10.1/nios2eds/bin/gnu/h-i686-mingw32/bin/../lib/gcc/nios2-elf/4.1.2/../../../../nios2-elf/lib\libc.a(lib_a-printf.o)
                              obj/hello_world.o (printf)
c:/altera/10.1/nios2eds/bin/gnu/h-i686-mingw32/bin/../lib/gcc/nios2-elf/4.1.2/../../../../nios2-elf/lib\libc.a(lib_a-putchar.o)
                              obj/hello_world.o (putchar)
c:/altera/10.1/nios2eds/bin/gnu/h-i686-mingw32/bin/../lib/gcc/nios2-elf/4.1.2/../../../../nios2-elf/lib\libc.a(lib_a-rand.o)
                              obj/hello_world.o (srand)
c:/altera/10.1/nios2eds/bin/gnu/h-i686-mingw32/bin/../lib/gcc/nios2-elf/4.1.2/../../../../nios2-elf/lib\libc.a(lib_a-time.o)
                              obj/hello_world.o (time)
c:/altera/10.1/nios2eds/bin/gnu/h-i686-mingw32/bin/../lib/gcc/nios2-elf/4.1.2/../../../../nios2-elf/lib\libc.a(lib_a-vfprintf.o)
                              c:/altera/10.1/nios2eds/bin/gnu/h-i686-mingw32/bin/../lib/gcc/nios2-elf/4.1.2/../../../../nios2-elf/lib\libc.a(lib_a-printf.o) (___vfprintf_internal_r)
c:/altera/10.1/nios2eds/bin/gnu/h-i686-mingw32/bin/../lib/gcc/nios2-elf/4.1.2/../../../../nios2-elf/lib\libc.a(lib_a-wsetup.o)
                              c:/altera/10.1/nios2eds/bin/gnu/h-i686-mingw32/bin/../lib/gcc/nios2-elf/4.1.2/../../../../nios2-elf/lib\libc.a(lib_a-vfprintf.o) (__swsetup_r)
c:/altera/10.1/nios2eds/bin/gnu/h-i686-mingw32/bin/../lib/gcc/nios2-elf/4.1.2/../../../../nios2-elf/lib\libc.a(lib_a-dtoa.o)
                              c:/altera/10.1/nios2eds/bin/gnu/h-i686-mingw32/bin/../lib/gcc/nios2-elf/4.1.2/../../../../nios2-elf/lib\libc.a(lib_a-vfprintf.o) (_dtoa_r)
c:/altera/10.1/nios2eds/bin/gnu/h-i686-mingw32/bin/../lib/gcc/nios2-elf/4.1.2/../../../../nios2-elf/lib\libc.a(lib_a-fflush.o)
                              c:/altera/10.1/nios2eds/bin/gnu/h-i686-mingw32/bin/../lib/gcc/nios2-elf/4.1.2/../../../../nios2-elf/lib\libc.a(lib_a-vfprintf.o) (_fflush_r)
c:/altera/10.1/nios2eds/bin/gnu/h-i686-mingw32/bin/../lib/gcc/nios2-elf/4.1.2/../../../../nios2-elf/lib\libc.a(lib_a-findfp.o)
                              c:/altera/10.1/nios2eds/bin/gnu/h-i686-mingw32/bin/../lib/gcc/nios2-elf/4.1.2/../../../../nios2-elf/lib\libc.a(lib_a-vfprintf.o) (__sinit)
c:/altera/10.1/nios2eds/bin/gnu/h-i686-mingw32/bin/../lib/gcc/nios2-elf/4.1.2/../../../../nios2-elf/lib\libc.a(lib_a-freer.o)
                              c:/altera/10.1/nios2eds/bin/gnu/h-i686-mingw32/bin/../lib/gcc/nios2-elf/4.1.2/../../../../nios2-elf/lib\libc.a(lib_a-wsetup.o) (_free_r)
c:/altera/10.1/nios2eds/bin/gnu/h-i686-mingw32/bin/../lib/gcc/nios2-elf/4.1.2/../../../../nios2-elf/lib\libc.a(lib_a-fvwrite.o)
                              c:/altera/10.1/nios2eds/bin/gnu/h-i686-mingw32/bin/../lib/gcc/nios2-elf/4.1.2/../../../../nios2-elf/lib\libc.a(lib_a-vfprintf.o) (__sfvwrite_r)
c:/altera/10.1/nios2eds/bin/gnu/h-i686-mingw32/bin/../lib/gcc/nios2-elf/4.1.2/../../../../nios2-elf/lib\libc.a(lib_a-fwalk.o)
                              c:/altera/10.1/nios2eds/bin/gnu/h-i686-mingw32/bin/../lib/gcc/nios2-elf/4.1.2/../../../../nios2-elf/lib\libc.a(lib_a-fflush.o) (_fwalk_reent)
c:/altera/10.1/nios2eds/bin/gnu/h-i686-mingw32/bin/../lib/gcc/nios2-elf/4.1.2/../../../../nios2-elf/lib\libc.a(lib_a-gettimeofdayr.o)
                              c:/altera/10.1/nios2eds/bin/gnu/h-i686-mingw32/bin/../lib/gcc/nios2-elf/4.1.2/../../../../nios2-elf/lib\libc.a(lib_a-time.o) (_gettimeofday_r)
c:/altera/10.1/nios2eds/bin/gnu/h-i686-mingw32/bin/../lib/gcc/nios2-elf/4.1.2/../../../../nios2-elf/lib\libc.a(lib_a-impure.o)
                              c:/altera/10.1/nios2eds/bin/gnu/h-i686-mingw32/bin/../lib/gcc/nios2-elf/4.1.2/../../../../nios2-elf/lib\libc.a(lib_a-printf.o) (_impure_ptr)
c:/altera/10.1/nios2eds/bin/gnu/h-i686-mingw32/bin/../lib/gcc/nios2-elf/4.1.2/../../../../nios2-elf/lib\libc.a(lib_a-int_errno.o)
                              c:/altera/10.1/nios2eds/bin/gnu/h-i686-mingw32/bin/../lib/gcc/nios2-elf/4.1.2/../../../../nios2-elf/lib\libc.a(lib_a-gettimeofdayr.o) (errno)
c:/altera/10.1/nios2eds/bin/gnu/h-i686-mingw32/bin/../lib/gcc/nios2-elf/4.1.2/../../../../nios2-elf/lib\libc.a(lib_a-locale.o)
                              c:/altera/10.1/nios2eds/bin/gnu/h-i686-mingw32/bin/../lib/gcc/nios2-elf/4.1.2/../../../../nios2-elf/lib\libc.a(lib_a-vfprintf.o) (_localeconv_r)
c:/altera/10.1/nios2eds/bin/gnu/h-i686-mingw32/bin/../lib/gcc/nios2-elf/4.1.2/../../../../nios2-elf/lib\libc.a(lib_a-makebuf.o)
                              c:/altera/10.1/nios2eds/bin/gnu/h-i686-mingw32/bin/../lib/gcc/nios2-elf/4.1.2/../../../../nios2-elf/lib\libc.a(lib_a-wsetup.o) (__smakebuf_r)
c:/altera/10.1/nios2eds/bin/gnu/h-i686-mingw32/bin/../lib/gcc/nios2-elf/4.1.2/../../../../nios2-elf/lib\libc.a(lib_a-mallocr.o)
                              c:/altera/10.1/nios2eds/bin/gnu/h-i686-mingw32/bin/../lib/gcc/nios2-elf/4.1.2/../../../../nios2-elf/lib\libc.a(lib_a-findfp.o) (_malloc_r)
c:/altera/10.1/nios2eds/bin/gnu/h-i686-mingw32/bin/../lib/gcc/nios2-elf/4.1.2/../../../../nios2-elf/lib\libc.a(lib_a-memchr.o)
                              c:/altera/10.1/nios2eds/bin/gnu/h-i686-mingw32/bin/../lib/gcc/nios2-elf/4.1.2/../../../../nios2-elf/lib\libc.a(lib_a-vfprintf.o) (memchr)
c:/altera/10.1/nios2eds/bin/gnu/h-i686-mingw32/bin/../lib/gcc/nios2-elf/4.1.2/../../../../nios2-elf/lib\libc.a(lib_a-memcpy.o)
                              c:/altera/10.1/nios2eds/bin/gnu/h-i686-mingw32/bin/../lib/gcc/nios2-elf/4.1.2/../../../../nios2-elf/lib\libc.a(lib_a-dtoa.o) (memcpy)
c:/altera/10.1/nios2eds/bin/gnu/h-i686-mingw32/bin/../lib/gcc/nios2-elf/4.1.2/../../../../nios2-elf/lib\libc.a(lib_a-memmove.o)
                              c:/altera/10.1/nios2eds/bin/gnu/h-i686-mingw32/bin/../lib/gcc/nios2-elf/4.1.2/../../../../nios2-elf/lib\libc.a(lib_a-fvwrite.o) (memmove)
c:/altera/10.1/nios2eds/bin/gnu/h-i686-mingw32/bin/../lib/gcc/nios2-elf/4.1.2/../../../../nios2-elf/lib\libc.a(lib_a-memset.o)
                              c:/altera/10.1/nios2eds/bin/gnu/h-i686-mingw32/bin/../lib/gcc/nios2-elf/4.1.2/../../../../nios2-elf/lib\libc.a(lib_a-findfp.o) (memset)
c:/altera/10.1/nios2eds/bin/gnu/h-i686-mingw32/bin/../lib/gcc/nios2-elf/4.1.2/../../../../nios2-elf/lib\libc.a(lib_a-mprec.o)
                              c:/altera/10.1/nios2eds/bin/gnu/h-i686-mingw32/bin/../lib/gcc/nios2-elf/4.1.2/../../../../nios2-elf/lib\libc.a(lib_a-dtoa.o) (_Bfree)
c:/altera/10.1/nios2eds/bin/gnu/h-i686-mingw32/bin/../lib/gcc/nios2-elf/4.1.2/../../../../nios2-elf/lib\libc.a(lib_a-putc.o)
                              c:/altera/10.1/nios2eds/bin/gnu/h-i686-mingw32/bin/../lib/gcc/nios2-elf/4.1.2/../../../../nios2-elf/lib\libc.a(lib_a-putchar.o) (_putc_r)
c:/altera/10.1/nios2eds/bin/gnu/h-i686-mingw32/bin/../lib/gcc/nios2-elf/4.1.2/../../../../nios2-elf/lib\libc.a(lib_a-reallocr.o)
                              c:/altera/10.1/nios2eds/bin/gnu/h-i686-mingw32/bin/../lib/gcc/nios2-elf/4.1.2/../../../../nios2-elf/lib\libc.a(lib_a-fvwrite.o) (_realloc_r)
c:/altera/10.1/nios2eds/bin/gnu/h-i686-mingw32/bin/../lib/gcc/nios2-elf/4.1.2/../../../../nios2-elf/lib\libc.a(lib_a-s_isinfd.o)
                              c:/altera/10.1/nios2eds/bin/gnu/h-i686-mingw32/bin/../lib/gcc/nios2-elf/4.1.2/../../../../nios2-elf/lib\libc.a(lib_a-vfprintf.o) (__isinfd)
c:/altera/10.1/nios2eds/bin/gnu/h-i686-mingw32/bin/../lib/gcc/nios2-elf/4.1.2/../../../../nios2-elf/lib\libc.a(lib_a-s_isnand.o)
                              c:/altera/10.1/nios2eds/bin/gnu/h-i686-mingw32/bin/../lib/gcc/nios2-elf/4.1.2/../../../../nios2-elf/lib\libc.a(lib_a-vfprintf.o) (__isnand)
c:/altera/10.1/nios2eds/bin/gnu/h-i686-mingw32/bin/../lib/gcc/nios2-elf/4.1.2/../../../../nios2-elf/lib\libc.a(lib_a-sbrkr.o)
                              c:/altera/10.1/nios2eds/bin/gnu/h-i686-mingw32/bin/../lib/gcc/nios2-elf/4.1.2/../../../../nios2-elf/lib\libc.a(lib_a-freer.o) (_sbrk_r)
c:/altera/10.1/nios2eds/bin/gnu/h-i686-mingw32/bin/../lib/gcc/nios2-elf/4.1.2/../../../../nios2-elf/lib\libc.a(lib_a-stdio.o)
                              c:/altera/10.1/nios2eds/bin/gnu/h-i686-mingw32/bin/../lib/gcc/nios2-elf/4.1.2/../../../../nios2-elf/lib\libc.a(lib_a-findfp.o) (__sclose)
c:/altera/10.1/nios2eds/bin/gnu/h-i686-mingw32/bin/../lib/gcc/nios2-elf/4.1.2/../../../../nios2-elf/lib\libc.a(lib_a-strcmp.o)
                              c:/altera/10.1/nios2eds/bin/gnu/h-i686-mingw32/bin/../lib/gcc/nios2-elf/4.1.2/../../../../nios2-elf/lib\libc.a(lib_a-locale.o) (strcmp)
c:/altera/10.1/nios2eds/bin/gnu/h-i686-mingw32/bin/../lib/gcc/nios2-elf/4.1.2/../../../../nios2-elf/lib\libc.a(lib_a-strlen.o)
                              c:/altera/10.1/nios2eds/bin/gnu/h-i686-mingw32/bin/../lib/gcc/nios2-elf/4.1.2/../../../../nios2-elf/lib\libc.a(lib_a-vfprintf.o) (strlen)
c:/altera/10.1/nios2eds/bin/gnu/h-i686-mingw32/bin/../lib/gcc/nios2-elf/4.1.2/../../../../nios2-elf/lib\libc.a(lib_a-wbuf.o)
                              c:/altera/10.1/nios2eds/bin/gnu/h-i686-mingw32/bin/../lib/gcc/nios2-elf/4.1.2/../../../../nios2-elf/lib\libc.a(lib_a-putc.o) (__swbuf_r)
c:/altera/10.1/nios2eds/bin/gnu/h-i686-mingw32/bin/../lib/gcc/nios2-elf/4.1.2/../../../../nios2-elf/lib\libc.a(lib_a-writer.o)
                              c:/altera/10.1/nios2eds/bin/gnu/h-i686-mingw32/bin/../lib/gcc/nios2-elf/4.1.2/../../../../nios2-elf/lib\libc.a(lib_a-stdio.o) (_write_r)
c:/altera/10.1/nios2eds/bin/gnu/h-i686-mingw32/bin/../lib/gcc/nios2-elf/4.1.2/../../../../nios2-elf/lib\libc.a(lib_a-callocr.o)
                              c:/altera/10.1/nios2eds/bin/gnu/h-i686-mingw32/bin/../lib/gcc/nios2-elf/4.1.2/../../../../nios2-elf/lib\libc.a(lib_a-mprec.o) (_calloc_r)
c:/altera/10.1/nios2eds/bin/gnu/h-i686-mingw32/bin/../lib/gcc/nios2-elf/4.1.2/../../../../nios2-elf/lib\libc.a(lib_a-closer.o)
                              c:/altera/10.1/nios2eds/bin/gnu/h-i686-mingw32/bin/../lib/gcc/nios2-elf/4.1.2/../../../../nios2-elf/lib\libc.a(lib_a-stdio.o) (_close_r)
c:/altera/10.1/nios2eds/bin/gnu/h-i686-mingw32/bin/../lib/gcc/nios2-elf/4.1.2/../../../../nios2-elf/lib\libc.a(lib_a-fclose.o)
                              c:/altera/10.1/nios2eds/bin/gnu/h-i686-mingw32/bin/../lib/gcc/nios2-elf/4.1.2/../../../../nios2-elf/lib\libc.a(lib_a-findfp.o) (fclose)
c:/altera/10.1/nios2eds/bin/gnu/h-i686-mingw32/bin/../lib/gcc/nios2-elf/4.1.2/../../../../nios2-elf/lib\libc.a(lib_a-fstatr.o)
                              c:/altera/10.1/nios2eds/bin/gnu/h-i686-mingw32/bin/../lib/gcc/nios2-elf/4.1.2/../../../../nios2-elf/lib\libc.a(lib_a-makebuf.o) (_fstat_r)
c:/altera/10.1/nios2eds/bin/gnu/h-i686-mingw32/bin/../lib/gcc/nios2-elf/4.1.2/../../../../nios2-elf/lib\libc.a(lib_a-isattyr.o)
                              c:/altera/10.1/nios2eds/bin/gnu/h-i686-mingw32/bin/../lib/gcc/nios2-elf/4.1.2/../../../../nios2-elf/lib\libc.a(lib_a-makebuf.o) (_isatty_r)
c:/altera/10.1/nios2eds/bin/gnu/h-i686-mingw32/bin/../lib/gcc/nios2-elf/4.1.2/../../../../nios2-elf/lib\libc.a(lib_a-lseekr.o)
                              c:/altera/10.1/nios2eds/bin/gnu/h-i686-mingw32/bin/../lib/gcc/nios2-elf/4.1.2/../../../../nios2-elf/lib\libc.a(lib_a-stdio.o) (_lseek_r)
c:/altera/10.1/nios2eds/bin/gnu/h-i686-mingw32/bin/../lib/gcc/nios2-elf/4.1.2/../../../../nios2-elf/lib\libc.a(lib_a-readr.o)
                              c:/altera/10.1/nios2eds/bin/gnu/h-i686-mingw32/bin/../lib/gcc/nios2-elf/4.1.2/../../../../nios2-elf/lib\libc.a(lib_a-stdio.o) (_read_r)
c:/altera/10.1/nios2eds/bin/gnu/h-i686-mingw32/bin/../lib/gcc/nios2-elf/4.1.2\libgcc.a(_muldi3.o)
                              c:/altera/10.1/nios2eds/bin/gnu/h-i686-mingw32/bin/../lib/gcc/nios2-elf/4.1.2/../../../../nios2-elf/lib\libc.a(lib_a-rand.o) (__muldi3)
c:/altera/10.1/nios2eds/bin/gnu/h-i686-mingw32/bin/../lib/gcc/nios2-elf/4.1.2\libgcc.a(_udivdi3.o)
                              c:/altera/10.1/nios2eds/bin/gnu/h-i686-mingw32/bin/../lib/gcc/nios2-elf/4.1.2/../../../../nios2-elf/lib\libc.a(lib_a-vfprintf.o) (__udivdi3)
c:/altera/10.1/nios2eds/bin/gnu/h-i686-mingw32/bin/../lib/gcc/nios2-elf/4.1.2\libgcc.a(_umoddi3.o)
                              c:/altera/10.1/nios2eds/bin/gnu/h-i686-mingw32/bin/../lib/gcc/nios2-elf/4.1.2/../../../../nios2-elf/lib\libc.a(lib_a-vfprintf.o) (__umoddi3)
c:/altera/10.1/nios2eds/bin/gnu/h-i686-mingw32/bin/../lib/gcc/nios2-elf/4.1.2\libgcc.a(_addsub_df.o)
                              c:/altera/10.1/nios2eds/bin/gnu/h-i686-mingw32/bin/../lib/gcc/nios2-elf/4.1.2/../../../../nios2-elf/lib\libc.a(lib_a-dtoa.o) (__subdf3)
c:/altera/10.1/nios2eds/bin/gnu/h-i686-mingw32/bin/../lib/gcc/nios2-elf/4.1.2\libgcc.a(_mul_df.o)
                              c:/altera/10.1/nios2eds/bin/gnu/h-i686-mingw32/bin/../lib/gcc/nios2-elf/4.1.2/../../../../nios2-elf/lib\libc.a(lib_a-dtoa.o) (__muldf3)
c:/altera/10.1/nios2eds/bin/gnu/h-i686-mingw32/bin/../lib/gcc/nios2-elf/4.1.2\libgcc.a(_eq_df.o)
                              c:/altera/10.1/nios2eds/bin/gnu/h-i686-mingw32/bin/../lib/gcc/nios2-elf/4.1.2/../../../../nios2-elf/lib\libc.a(lib_a-vfprintf.o) (__eqdf2)
c:/altera/10.1/nios2eds/bin/gnu/h-i686-mingw32/bin/../lib/gcc/nios2-elf/4.1.2\libgcc.a(_ne_df.o)
                              c:/altera/10.1/nios2eds/bin/gnu/h-i686-mingw32/bin/../lib/gcc/nios2-elf/4.1.2/../../../../nios2-elf/lib\libc.a(lib_a-vfprintf.o) (__nedf2)
c:/altera/10.1/nios2eds/bin/gnu/h-i686-mingw32/bin/../lib/gcc/nios2-elf/4.1.2\libgcc.a(_ge_df.o)
                              c:/altera/10.1/nios2eds/bin/gnu/h-i686-mingw32/bin/../lib/gcc/nios2-elf/4.1.2/../../../../nios2-elf/lib\libc.a(lib_a-dtoa.o) (__gedf2)
c:/altera/10.1/nios2eds/bin/gnu/h-i686-mingw32/bin/../lib/gcc/nios2-elf/4.1.2\libgcc.a(_df_to_si.o)
                              c:/altera/10.1/nios2eds/bin/gnu/h-i686-mingw32/bin/../lib/gcc/nios2-elf/4.1.2/../../../../nios2-elf/lib\libc.a(lib_a-dtoa.o) (__fixdfsi)
c:/altera/10.1/nios2eds/bin/gnu/h-i686-mingw32/bin/../lib/gcc/nios2-elf/4.1.2\libgcc.a(_usi_to_df.o)
                              c:/altera/10.1/nios2eds/bin/gnu/h-i686-mingw32/bin/../lib/gcc/nios2-elf/4.1.2/../../../../nios2-elf/lib\libc.a(lib_a-dtoa.o) (__floatunsidf)
../helloWorld_bsp\libhal_bsp.a(alt_close.o)
                              c:/altera/10.1/nios2eds/bin/gnu/h-i686-mingw32/bin/../lib/gcc/nios2-elf/4.1.2/../../../../nios2-elf/lib\libc.a(lib_a-closer.o) (close)
../helloWorld_bsp\libhal_bsp.a(alt_dev.o)
                              ../helloWorld_bsp\libhal_bsp.a(alt_close.o) (alt_fd_list)
../helloWorld_bsp\libhal_bsp.a(alt_errno.o)
                              ../helloWorld_bsp\libhal_bsp.a(alt_close.o) (alt_errno)
../helloWorld_bsp\libhal_bsp.a(alt_fstat.o)
                              c:/altera/10.1/nios2eds/bin/gnu/h-i686-mingw32/bin/../lib/gcc/nios2-elf/4.1.2/../../../../nios2-elf/lib\libc.a(lib_a-fstatr.o) (fstat)
../helloWorld_bsp\libhal_bsp.a(alt_gettod.o)
                              c:/altera/10.1/nios2eds/bin/gnu/h-i686-mingw32/bin/../lib/gcc/nios2-elf/4.1.2/../../../../nios2-elf/lib\libc.a(lib_a-gettimeofdayr.o) (gettimeofday)
../helloWorld_bsp\libhal_bsp.a(alt_isatty.o)
                              c:/altera/10.1/nios2eds/bin/gnu/h-i686-mingw32/bin/../lib/gcc/nios2-elf/4.1.2/../../../../nios2-elf/lib\libc.a(lib_a-isattyr.o) (isatty)
../helloWorld_bsp\libhal_bsp.a(alt_lseek.o)
                              c:/altera/10.1/nios2eds/bin/gnu/h-i686-mingw32/bin/../lib/gcc/nios2-elf/4.1.2/../../../../nios2-elf/lib\libc.a(lib_a-lseekr.o) (lseek)
../helloWorld_bsp\libhal_bsp.a(alt_main.o)
                              ../helloWorld_bsp/obj/HAL/src/crt0.o (alt_main)
../helloWorld_bsp\libhal_bsp.a(alt_malloc_lock.o)
                              c:/altera/10.1/nios2eds/bin/gnu/h-i686-mingw32/bin/../lib/gcc/nios2-elf/4.1.2/../../../../nios2-elf/lib\libc.a(lib_a-freer.o) (__malloc_lock)
../helloWorld_bsp\libhal_bsp.a(alt_printf.o)
                              obj/hello_world.o (alt_printf)
../helloWorld_bsp\libhal_bsp.a(alt_putchar.o)
                              ../helloWorld_bsp\libhal_bsp.a(alt_printf.o) (alt_putchar)
../helloWorld_bsp\libhal_bsp.a(alt_read.o)
                              c:/altera/10.1/nios2eds/bin/gnu/h-i686-mingw32/bin/../lib/gcc/nios2-elf/4.1.2/../../../../nios2-elf/lib\libc.a(lib_a-readr.o) (read)
../helloWorld_bsp\libhal_bsp.a(alt_release_fd.o)
                              ../helloWorld_bsp\libhal_bsp.a(alt_close.o) (alt_release_fd)
../helloWorld_bsp\libhal_bsp.a(alt_sbrk.o)
                              c:/altera/10.1/nios2eds/bin/gnu/h-i686-mingw32/bin/../lib/gcc/nios2-elf/4.1.2/../../../../nios2-elf/lib\libc.a(lib_a-sbrkr.o) (sbrk)
../helloWorld_bsp\libhal_bsp.a(alt_tick.o)
                              ../helloWorld_bsp\libhal_bsp.a(alt_gettod.o) (_alt_tick_rate)
../helloWorld_bsp\libhal_bsp.a(alt_usleep.o)
                              obj/hello_world.o (usleep)
../helloWorld_bsp\libhal_bsp.a(alt_write.o)
                              c:/altera/10.1/nios2eds/bin/gnu/h-i686-mingw32/bin/../lib/gcc/nios2-elf/4.1.2/../../../../nios2-elf/lib\libc.a(lib_a-writer.o) (write)
../helloWorld_bsp\libhal_bsp.a(alt_sys_init.o)
                              ../helloWorld_bsp\libhal_bsp.a(alt_main.o) (alt_irq_init)
../helloWorld_bsp\libhal_bsp.a(altera_avalon_cfi_flash.o)
                              ../helloWorld_bsp\libhal_bsp.a(alt_sys_init.o) (alt_flash_cfi_init)
../helloWorld_bsp\libhal_bsp.a(altera_avalon_cfi_flash_table.o)
                              ../helloWorld_bsp\libhal_bsp.a(altera_avalon_cfi_flash.o) (alt_set_flash_width_func)
../helloWorld_bsp\libhal_bsp.a(altera_avalon_jtag_uart_fd.o)
                              ../helloWorld_bsp\libhal_bsp.a(alt_sys_init.o) (altera_avalon_jtag_uart_read_fd)
../helloWorld_bsp\libhal_bsp.a(altera_avalon_jtag_uart_init.o)
                              ../helloWorld_bsp\libhal_bsp.a(alt_sys_init.o) (altera_avalon_jtag_uart_init)
../helloWorld_bsp\libhal_bsp.a(altera_avalon_jtag_uart_ioctl.o)
                              ../helloWorld_bsp\libhal_bsp.a(altera_avalon_jtag_uart_fd.o) (altera_avalon_jtag_uart_ioctl)
../helloWorld_bsp\libhal_bsp.a(altera_avalon_jtag_uart_read.o)
                              ../helloWorld_bsp\libhal_bsp.a(altera_avalon_jtag_uart_fd.o) (altera_avalon_jtag_uart_read)
../helloWorld_bsp\libhal_bsp.a(altera_avalon_jtag_uart_write.o)
                              ../helloWorld_bsp\libhal_bsp.a(altera_avalon_jtag_uart_fd.o) (altera_avalon_jtag_uart_write)
../helloWorld_bsp\libhal_bsp.a(altera_avalon_spi.o)
                              obj/hello_world.o (alt_avalon_spi_command)
../helloWorld_bsp\libhal_bsp.a(altera_avalon_timer_sc.o)
                              ../helloWorld_bsp\libhal_bsp.a(alt_sys_init.o) (alt_avalon_timer_sc_init)
../helloWorld_bsp\libhal_bsp.a(altera_avalon_uart_fd.o)
                              ../helloWorld_bsp\libhal_bsp.a(alt_sys_init.o) (altera_avalon_uart_read_fd)
../helloWorld_bsp\libhal_bsp.a(altera_avalon_uart_init.o)
                              ../helloWorld_bsp\libhal_bsp.a(alt_sys_init.o) (altera_avalon_uart_init)
../helloWorld_bsp\libhal_bsp.a(altera_avalon_uart_read.o)
                              ../helloWorld_bsp\libhal_bsp.a(altera_avalon_uart_fd.o) (altera_avalon_uart_read)
../helloWorld_bsp\libhal_bsp.a(altera_avalon_uart_write.o)
                              ../helloWorld_bsp\libhal_bsp.a(altera_avalon_uart_fd.o) (altera_avalon_uart_write)
../helloWorld_bsp\libhal_bsp.a(altera_up_avalon_ps2.o)
                              ../helloWorld_bsp\libhal_bsp.a(alt_sys_init.o) (alt_up_ps2_init)
../helloWorld_bsp\libhal_bsp.a(altera_up_avalon_video_character_buffer_with_dma.o)
                              obj/hello_world.o (alt_up_char_buffer_init)
../helloWorld_bsp\libhal_bsp.a(altera_up_ps2_keyboard.o)
                              obj/hello_world.o (decode_scancode)
../helloWorld_bsp\libhal_bsp.a(alt_alarm_start.o)
                              ../helloWorld_bsp\libhal_bsp.a(altera_avalon_jtag_uart_init.o) (alt_alarm_start)
../helloWorld_bsp\libhal_bsp.a(alt_busy_sleep.o)
                              ../helloWorld_bsp\libhal_bsp.a(alt_usleep.o) (alt_busy_sleep)
../helloWorld_bsp\libhal_bsp.a(alt_dcache_flush.o)
                              ../helloWorld_bsp\libhal_bsp.a(altera_avalon_cfi_flash.o) (alt_dcache_flush)
../helloWorld_bsp\libhal_bsp.a(alt_dev_llist_insert.o)
                              ../helloWorld_bsp\libhal_bsp.a(alt_sys_init.o) (alt_dev_llist_insert)
../helloWorld_bsp\libhal_bsp.a(alt_do_ctors.o)
                              ../helloWorld_bsp\libhal_bsp.a(alt_main.o) (_do_ctors)
../helloWorld_bsp\libhal_bsp.a(alt_do_dtors.o)
                              ../helloWorld_bsp\libhal_bsp.a(alt_main.o) (_do_dtors)
../helloWorld_bsp\libhal_bsp.a(alt_find_dev.o)
                              ../helloWorld_bsp\libhal_bsp.a(altera_up_avalon_ps2.o) (alt_find_dev)
../helloWorld_bsp\libhal_bsp.a(alt_flash_dev.o)
                              ../helloWorld_bsp\libhal_bsp.a(altera_avalon_cfi_flash.o) (alt_flash_dev_list)
../helloWorld_bsp\libhal_bsp.a(alt_io_redirect.o)
                              ../helloWorld_bsp\libhal_bsp.a(alt_main.o) (alt_io_redirect)
../helloWorld_bsp\libhal_bsp.a(alt_irq_register.o)
                              ../helloWorld_bsp\libhal_bsp.a(altera_avalon_jtag_uart_init.o) (alt_irq_register)
../helloWorld_bsp\libhal_bsp.a(alt_irq_vars.o)
                              ../helloWorld_bsp\libhal_bsp.a(alt_irq_register.o) (alt_irq_active)
../helloWorld_bsp\libhal_bsp.a(alt_open.o)
                              ../helloWorld_bsp\libhal_bsp.a(alt_io_redirect.o) (open)
../helloWorld_bsp\libhal_bsp.a(altera_nios2_irq.o)
                              ../helloWorld_bsp\libhal_bsp.a(alt_sys_init.o) (altera_nios2_irq_init)
../helloWorld_bsp\libhal_bsp.a(altera_avalon_cfi_flash_amd.o)
                              ../helloWorld_bsp\libhal_bsp.a(altera_avalon_cfi_flash_table.o) (alt_program_amd)
../helloWorld_bsp\libhal_bsp.a(altera_avalon_cfi_flash_intel.o)
                              ../helloWorld_bsp\libhal_bsp.a(altera_avalon_cfi_flash_table.o) (alt_program_intel)
../helloWorld_bsp\libhal_bsp.a(alt_find_file.o)
                              ../helloWorld_bsp\libhal_bsp.a(alt_open.o) (alt_find_file)
../helloWorld_bsp\libhal_bsp.a(alt_get_fd.o)
                              ../helloWorld_bsp\libhal_bsp.a(alt_open.o) (alt_get_fd)
../helloWorld_bsp\libhal_bsp.a(alt_irq_entry.o)
                              ../helloWorld_bsp\libhal_bsp.a(alt_irq_register.o) (alt_irq_entry)
../helloWorld_bsp\libhal_bsp.a(alt_irq_handler.o)
                              ../helloWorld_bsp\libhal_bsp.a(alt_irq_register.o) (alt_irq_handler)
../helloWorld_bsp\libhal_bsp.a(alt_exception_entry.o)
                              ../helloWorld_bsp\libhal_bsp.a(alt_irq_entry.o) (alt_exception)
c:/altera/10.1/nios2eds/bin/gnu/h-i686-mingw32/bin/../lib/gcc/nios2-elf/4.1.2/../../../../nios2-elf/lib\libc.a(lib_a-atexit.o)
                              ../helloWorld_bsp\libhal_bsp.a(alt_main.o) (atexit)
c:/altera/10.1/nios2eds/bin/gnu/h-i686-mingw32/bin/../lib/gcc/nios2-elf/4.1.2/../../../../nios2-elf/lib\libc.a(lib_a-exit.o)
                              ../helloWorld_bsp\libhal_bsp.a(alt_main.o) (exit)
c:/altera/10.1/nios2eds/bin/gnu/h-i686-mingw32/bin/../lib/gcc/nios2-elf/4.1.2/../../../../nios2-elf/lib\libc.a(lib_a-memcmp.o)
                              ../helloWorld_bsp\libhal_bsp.a(altera_avalon_cfi_flash.o) (memcmp)
c:/altera/10.1/nios2eds/bin/gnu/h-i686-mingw32/bin/../lib/gcc/nios2-elf/4.1.2/../../../../nios2-elf/lib\libc.a(lib_a-strcpy.o)
                              ../helloWorld_bsp\libhal_bsp.a(altera_up_ps2_keyboard.o) (strcpy)
c:/altera/10.1/nios2eds/bin/gnu/h-i686-mingw32/bin/../lib/gcc/nios2-elf/4.1.2/../../../../nios2-elf/lib\libc.a(lib_a-__atexit.o)
                              c:/altera/10.1/nios2eds/bin/gnu/h-i686-mingw32/bin/../lib/gcc/nios2-elf/4.1.2/../../../../nios2-elf/lib\libc.a(lib_a-atexit.o) (__register_exitproc)
c:/altera/10.1/nios2eds/bin/gnu/h-i686-mingw32/bin/../lib/gcc/nios2-elf/4.1.2/../../../../nios2-elf/lib\libc.a(lib_a-__call_atexit.o)
                              c:/altera/10.1/nios2eds/bin/gnu/h-i686-mingw32/bin/../lib/gcc/nios2-elf/4.1.2/../../../../nios2-elf/lib\libc.a(lib_a-exit.o) (__call_exitprocs)
../helloWorld_bsp\libhal_bsp.a(alt_exit.o)
                              c:/altera/10.1/nios2eds/bin/gnu/h-i686-mingw32/bin/../lib/gcc/nios2-elf/4.1.2/../../../../nios2-elf/lib\libc.a(lib_a-exit.o) (_exit)

Allocating common symbols
Common symbol       size              file

alt_irq             0x100             ../helloWorld_bsp\libhal_bsp.a(alt_irq_handler.o)
snake               0x12c0            obj/hello_world.o
map                 0x478             obj/hello_world.o
errno               0x4               c:/altera/10.1/nios2eds/bin/gnu/h-i686-mingw32/bin/../lib/gcc/nios2-elf/4.1.2/../../../../nios2-elf/lib\libc.a(lib_a-int_errno.o)
head                0x4               obj/hello_world.o
_atexit0            0x190             c:/altera/10.1/nios2eds/bin/gnu/h-i686-mingw32/bin/../lib/gcc/nios2-elf/4.1.2/../../../../nios2-elf/lib\libc.a(lib_a-atexit.o)

Memory Configuration

Name             Origin             Length             Attributes
sdram_BEFORE_EXCEPTION 0x00800000         0x00000020
sdram            0x00800020         0x007fffe0
reset            0x01400000         0x00000020
cfi_flash        0x01400020         0x003fffe0
onchip_memory    0x01800000         0x00002000
*default*        0x00000000         0xffffffff

Linker script and memory map

LOAD ../helloWorld_bsp/obj/HAL/src/crt0.o
LOAD obj/hello_world.o
LOAD c:/altera/10.1/nios2eds/bin/gnu/h-i686-mingw32/bin/../lib/gcc/nios2-elf/4.1.2/../../../../nios2-elf/lib\libstdc++.a
LOAD c:/altera/10.1/nios2eds/bin/gnu/h-i686-mingw32/bin/../lib/gcc/nios2-elf/4.1.2/../../../../nios2-elf/lib\libm.a
LOAD c:/altera/10.1/nios2eds/bin/gnu/h-i686-mingw32/bin/../lib/gcc/nios2-elf/4.1.2\libgcc.a
START GROUP
LOAD c:/altera/10.1/nios2eds/bin/gnu/h-i686-mingw32/bin/../lib/gcc/nios2-elf/4.1.2/../../../../nios2-elf/lib\libc.a
LOAD c:/altera/10.1/nios2eds/bin/gnu/h-i686-mingw32/bin/../lib/gcc/nios2-elf/4.1.2\libgcc.a
LOAD ../helloWorld_bsp\libhal_bsp.a
END GROUP
LOAD c:/altera/10.1/nios2eds/bin/gnu/h-i686-mingw32/bin/../lib/gcc/nios2-elf/4.1.2\libgcc.a
                0x00800000                __alt_mem_sdram = 0x800000
                0x01400000                __alt_mem_cfi_flash = 0x1400000
                0x01800000                __alt_mem_onchip_memory = 0x1800000

.entry          0x01400000        0x0
 *(.entry)
 .entry         0x01400000        0x0 ../helloWorld_bsp/obj/HAL/src/crt0.o
                0x01400000                __reset

.exceptions     0x00800020      0x198
                0x00800020                PROVIDE (__ram_exceptions_start, ABSOLUTE (.))
                0x00800020                . = ALIGN (0x20)
 *(.irq)
 *(.exceptions.entry.label)
 .exceptions.entry.label
                0x00800020        0x0 ../helloWorld_bsp\libhal_bsp.a(alt_irq_entry.o)
                0x00800020                alt_irq_entry
 .exceptions.entry.label
                0x00800020        0x0 ../helloWorld_bsp\libhal_bsp.a(alt_exception_entry.o)
                0x00800020                alt_exception
 *(.exceptions.entry.user)
 *(.exceptions.entry)
 .exceptions.entry
                0x00800020       0x54 ../helloWorld_bsp\libhal_bsp.a(alt_exception_entry.o)
 *(.exceptions.irqtest.user)
 *(.exceptions.irqtest)
 .exceptions.irqtest
                0x00800074       0x10 ../helloWorld_bsp\libhal_bsp.a(alt_irq_entry.o)
 *(.exceptions.irqhandler.user)
 *(.exceptions.irqhandler)
 .exceptions.irqhandler
                0x00800084        0x4 ../helloWorld_bsp\libhal_bsp.a(alt_irq_entry.o)
 *(.exceptions.irqreturn.user)
 *(.exceptions.irqreturn)
 .exceptions.irqreturn
                0x00800088        0x4 ../helloWorld_bsp\libhal_bsp.a(alt_irq_entry.o)
 *(.exceptions.notirq.label)
 .exceptions.notirq.label
                0x0080008c        0x0 ../helloWorld_bsp\libhal_bsp.a(alt_irq_entry.o)
 *(.exceptions.notirq.user)
 *(.exceptions.notirq)
 .exceptions.notirq
                0x0080008c        0x8 ../helloWorld_bsp\libhal_bsp.a(alt_exception_entry.o)
 *(.exceptions.soft.user)
 *(.exceptions.soft)
 *(.exceptions.unknown.user)
 *(.exceptions.unknown)
 .exceptions.unknown
                0x00800094        0x4 ../helloWorld_bsp\libhal_bsp.a(alt_exception_entry.o)
 *(.exceptions.exit.label)
 .exceptions.exit.label
                0x00800098        0x0 ../helloWorld_bsp\libhal_bsp.a(alt_irq_entry.o)
 .exceptions.exit.label
                0x00800098        0x0 ../helloWorld_bsp\libhal_bsp.a(alt_exception_entry.o)
 *(.exceptions.exit.user)
 *(.exceptions.exit)
 .exceptions.exit
                0x00800098       0x54 ../helloWorld_bsp\libhal_bsp.a(alt_exception_entry.o)
 *(.exceptions)
 .exceptions    0x008000ec       0xcc ../helloWorld_bsp\libhal_bsp.a(alt_irq_handler.o)
                0x008000ec                alt_irq_handler
                0x008001b8                PROVIDE (__ram_exceptions_end, ABSOLUTE (.))
                0x00800020                PROVIDE (__flash_exceptions_start, LOADADDR (.exceptions))

.text           0x008001b8    0x126f8
                0x008001b8                PROVIDE (stext, ABSOLUTE (.))
 *(.interp)
 *(.hash)
 *(.dynsym)
 *(.dynstr)
 *(.gnu.version)
 *(.gnu.version_d)
 *(.gnu.version_r)
 *(.rel.init)
 *(.rela.init)
 *(.rel.text .rel.text.* .rel.gnu.linkonce.t.*)
 *(.rela.text .rela.text.* .rela.gnu.linkonce.t.*)
 *(.rel.fini)
 *(.rela.fini)
 *(.rel.rodata .rel.rodata.* .rel.gnu.linkonce.r.*)
 *(.rela.rodata .rela.rodata.* .rela.gnu.linkonce.r.*)
 *(.rel.data .rel.data.* .rel.gnu.linkonce.d.*)
 *(.rela.data .rela.data.* .rela.gnu.linkonce.d.*)
 *(.rel.tdata .rel.tdata.* .rel.gnu.linkonce.td.*)
 *(.rela.tdata .rela.tdata.* .rela.gnu.linkonce.td.*)
 *(.rel.tbss .rel.tbss.* .rel.gnu.linkonce.tb.*)
 *(.rela.tbss .rela.tbss.* .rela.gnu.linkonce.tb.*)
 *(.rel.ctors)
 *(.rela.ctors)
 *(.rel.dtors)
 *(.rela.dtors)
 *(.rel.got)
 *(.rela.got)
 *(.rel.sdata .rel.sdata.* .rel.gnu.linkonce.s.*)
 *(.rela.sdata .rela.sdata.* .rela.gnu.linkonce.s.*)
 *(.rel.sbss .rel.sbss.* .rel.gnu.linkonce.sb.*)
 *(.rela.sbss .rela.sbss.* .rela.gnu.linkonce.sb.*)
 *(.rel.sdata2 .rel.sdata2.* .rel.gnu.linkonce.s2.*)
 *(.rela.sdata2 .rela.sdata2.* .rela.gnu.linkonce.s2.*)
 *(.rel.sbss2 .rel.sbss2.* .rel.gnu.linkonce.sb2.*)
 *(.rela.sbss2 .rela.sbss2.* .rela.gnu.linkonce.sb2.*)
 *(.rel.bss .rel.bss.* .rel.gnu.linkonce.b.*)
 *(.rela.bss .rela.bss.* .rela.gnu.linkonce.b.*)
 *(.rel.plt)
 *(.rela.plt)
 *(.rel.dyn)
 *(.init)
 *(.plt)
 *(.text .stub .text.* .gnu.linkonce.t.*)
 .text          0x008001b8       0x48 ../helloWorld_bsp/obj/HAL/src/crt0.o
                0x008001b8                _start
 .text          0x00800200     0x11e8 obj/hello_world.o
                0x00800200                main
                0x008006d0                init
                0x0080083c                showView
                0x0080097c                move
                0x00800c60                makeFood
                0x00800d2c                makeMap
                0x00800f28                ifEat
                0x00800fb4                ifReprat
                0x00801074                ifBump
                0x008011e4                get_x
                0x00801220                get_y
                0x0080126c                add2charbuffer
                0x00801334                del2charbuffer
                0x00801394                next_line
 .text          0x008013e8       0x78 c:/altera/10.1/nios2eds/bin/gnu/h-i686-mingw32/bin/../lib/gcc/nios2-elf/4.1.2\libgcc.a(_gt_sf.o)
                0x008013e8                __gtsf2
 .text          0x00801460       0x78 c:/altera/10.1/nios2eds/bin/gnu/h-i686-mingw32/bin/../lib/gcc/nios2-elf/4.1.2\libgcc.a(_lt_sf.o)
                0x00801460                __ltsf2
 .text          0x008014d8       0x54 c:/altera/10.1/nios2eds/bin/gnu/h-i686-mingw32/bin/../lib/gcc/nios2-elf/4.1.2\libgcc.a(_sf_to_df.o)
                0x008014d8                __extendsfdf2
 .text          0x0080152c      0x258 c:/altera/10.1/nios2eds/bin/gnu/h-i686-mingw32/bin/../lib/gcc/nios2-elf/4.1.2\libgcc.a(_div_df.o)
                0x0080152c                __divdf3
 .text          0x00801784       0x88 c:/altera/10.1/nios2eds/bin/gnu/h-i686-mingw32/bin/../lib/gcc/nios2-elf/4.1.2\libgcc.a(_gt_df.o)
                0x00801784                __gtdf2
 .text          0x0080180c       0x88 c:/altera/10.1/nios2eds/bin/gnu/h-i686-mingw32/bin/../lib/gcc/nios2-elf/4.1.2\libgcc.a(_lt_df.o)
                0x0080180c                __ltdf2
 .text          0x00801894       0xf8 c:/altera/10.1/nios2eds/bin/gnu/h-i686-mingw32/bin/../lib/gcc/nios2-elf/4.1.2\libgcc.a(_si_to_df.o)
                0x00801894                __floatsidf
 .text          0x0080198c       0x38 c:/altera/10.1/nios2eds/bin/gnu/h-i686-mingw32/bin/../lib/gcc/nios2-elf/4.1.2\libgcc.a(_make_df.o)
                0x0080198c                __make_dp
 .text          0x008019c4       0x74 c:/altera/10.1/nios2eds/bin/gnu/h-i686-mingw32/bin/../lib/gcc/nios2-elf/4.1.2\libgcc.a(_df_to_sf.o)
                0x008019c4                __truncdfsf2
 .text          0x00801a38        0x0 c:/altera/10.1/nios2eds/bin/gnu/h-i686-mingw32/bin/../lib/gcc/nios2-elf/4.1.2\libgcc.a(_thenan_df.o)
 .text          0x00801a38      0x14c c:/altera/10.1/nios2eds/bin/gnu/h-i686-mingw32/bin/../lib/gcc/nios2-elf/4.1.2\libgcc.a(lib2-divmod.o)
                0x00801ab4                __divsi3
                0x00801b14                __modsi3
                0x00801b74                __udivsi3
                0x00801b7c                __umodsi3
 .text          0x00801b84       0x80 c:/altera/10.1/nios2eds/bin/gnu/h-i686-mingw32/bin/../lib/gcc/nios2-elf/4.1.2\libgcc.a(_clzsi2.o)
                0x00801b84                __clzsi2
 .text          0x00801c04       0xc8 c:/altera/10.1/nios2eds/bin/gnu/h-i686-mingw32/bin/../lib/gcc/nios2-elf/4.1.2\libgcc.a(_unpack_sf.o)
                0x00801c04                __unpack_f
 .text          0x00801ccc       0xa8 c:/altera/10.1/nios2eds/bin/gnu/h-i686-mingw32/bin/../lib/gcc/nios2-elf/4.1.2\libgcc.a(_fpcmp_parts_sf.o)
                0x00801ccc                __fpcmp_parts_f
 .text          0x00801d74       0x2c c:/altera/10.1/nios2eds/bin/gnu/h-i686-mingw32/bin/../lib/gcc/nios2-elf/4.1.2\libgcc.a(_make_sf.o)
                0x00801d74                __make_fp
 .text          0x00801da0      0x314 c:/altera/10.1/nios2eds/bin/gnu/h-i686-mingw32/bin/../lib/gcc/nios2-elf/4.1.2\libgcc.a(_pack_df.o)
                0x00801da0                __pack_d
 .text          0x008020b4      0x138 c:/altera/10.1/nios2eds/bin/gnu/h-i686-mingw32/bin/../lib/gcc/nios2-elf/4.1.2\libgcc.a(_unpack_df.o)
                0x008020b4                __unpack_d
 .text          0x008021ec       0xc8 c:/altera/10.1/nios2eds/bin/gnu/h-i686-mingw32/bin/../lib/gcc/nios2-elf/4.1.2\libgcc.a(_fpcmp_parts_df.o)
                0x008021ec                __fpcmp_parts_d
 .text          0x008022b4        0x0 c:/altera/10.1/nios2eds/bin/gnu/h-i686-mingw32/bin/../lib/gcc/nios2-elf/4.1.2\libgcc.a(_clz.o)
 .text          0x008022b4      0x160 c:/altera/10.1/nios2eds/bin/gnu/h-i686-mingw32/bin/../lib/gcc/nios2-elf/4.1.2\libgcc.a(_pack_sf.o)
                0x008022b4                __pack_f
 .text          0x00802414       0x78 c:/altera/10.1/nios2eds/bin/gnu/h-i686-mingw32/bin/../lib/gcc/nios2-elf/4.1.2/../../../../nios2-elf/lib\libc.a(lib_a-printf.o)
                0x00802414                printf
                0x00802458                _printf_r
 .text          0x0080248c       0x24 c:/altera/10.1/nios2eds/bin/gnu/h-i686-mingw32/bin/../lib/gcc/nios2-elf/4.1.2/../../../../nios2-elf/lib\libc.a(lib_a-putchar.o)
                0x0080248c                putchar
                0x008024a8                _putchar_r
 .text          0x008024b0       0x94 c:/altera/10.1/nios2eds/bin/gnu/h-i686-mingw32/bin/../lib/gcc/nios2-elf/4.1.2/../../../../nios2-elf/lib\libc.a(lib_a-rand.o)
                0x008024b0                srand
                0x008024cc                rand
 .text          0x00802544       0x5c c:/altera/10.1/nios2eds/bin/gnu/h-i686-mingw32/bin/../lib/gcc/nios2-elf/4.1.2/../../../../nios2-elf/lib\libc.a(lib_a-time.o)
                0x00802544                time
 .text          0x008025a0     0x1f28 c:/altera/10.1/nios2eds/bin/gnu/h-i686-mingw32/bin/../lib/gcc/nios2-elf/4.1.2/../../../../nios2-elf/lib\libc.a(lib_a-vfprintf.o)
                0x008025f8                ___vfprintf_internal_r
                0x008044a4                __vfprintf_internal
 .text          0x008044c8      0x13c c:/altera/10.1/nios2eds/bin/gnu/h-i686-mingw32/bin/../lib/gcc/nios2-elf/4.1.2/../../../../nios2-elf/lib\libc.a(lib_a-wsetup.o)
                0x008044c8                __swsetup_r
 .text          0x00804604     0x17cc c:/altera/10.1/nios2eds/bin/gnu/h-i686-mingw32/bin/../lib/gcc/nios2-elf/4.1.2/../../../../nios2-elf/lib\libc.a(lib_a-dtoa.o)
                0x0080481c                _dtoa_r
 .text          0x00805dd0      0x230 c:/altera/10.1/nios2eds/bin/gnu/h-i686-mingw32/bin/../lib/gcc/nios2-elf/4.1.2/../../../../nios2-elf/lib\libc.a(lib_a-fflush.o)
                0x00805dd0                _fflush_r
                0x00805fcc                fflush
 .text          0x00806000      0x2c0 c:/altera/10.1/nios2eds/bin/gnu/h-i686-mingw32/bin/../lib/gcc/nios2-elf/4.1.2/../../../../nios2-elf/lib\libc.a(lib_a-findfp.o)
                0x00806058                __sfp_lock_acquire
                0x0080605c                __sfp_lock_release
                0x00806060                __sinit_lock_acquire
                0x00806064                __sinit_lock_release
                0x00806068                __sinit
                0x0080611c                __fp_unlock_all
                0x00806134                __fp_lock_all
                0x0080614c                _cleanup_r
                0x00806158                _cleanup
                0x00806168                __sfmoreglue
                0x008061d0                __sfp
 .text          0x008062c0      0x440 c:/altera/10.1/nios2eds/bin/gnu/h-i686-mingw32/bin/../lib/gcc/nios2-elf/4.1.2/../../../../nios2-elf/lib\libc.a(lib_a-freer.o)
                0x008062c0                _malloc_trim_r
                0x008063ec                _free_r
 .text          0x00806700      0x49c c:/altera/10.1/nios2eds/bin/gnu/h-i686-mingw32/bin/../lib/gcc/nios2-elf/4.1.2/../../../../nios2-elf/lib\libc.a(lib_a-fvwrite.o)
                0x00806700                __sfvwrite_r
 .text          0x00806b9c      0x180 c:/altera/10.1/nios2eds/bin/gnu/h-i686-mingw32/bin/../lib/gcc/nios2-elf/4.1.2/../../../../nios2-elf/lib\libc.a(lib_a-fwalk.o)
                0x00806b9c                _fwalk_reent
                0x00806c64                _fwalk
 .text          0x00806d1c       0x74 c:/altera/10.1/nios2eds/bin/gnu/h-i686-mingw32/bin/../lib/gcc/nios2-elf/4.1.2/../../../../nios2-elf/lib\libc.a(lib_a-gettimeofdayr.o)
                0x00806d1c                _gettimeofday_r
 .text          0x00806d90        0x0 c:/altera/10.1/nios2eds/bin/gnu/h-i686-mingw32/bin/../lib/gcc/nios2-elf/4.1.2/../../../../nios2-elf/lib\libc.a(lib_a-impure.o)
 .text          0x00806d90        0x0 c:/altera/10.1/nios2eds/bin/gnu/h-i686-mingw32/bin/../lib/gcc/nios2-elf/4.1.2/../../../../nios2-elf/lib\libc.a(lib_a-int_errno.o)
 .text          0x00806d90       0xc4 c:/altera/10.1/nios2eds/bin/gnu/h-i686-mingw32/bin/../lib/gcc/nios2-elf/4.1.2/../../../../nios2-elf/lib\libc.a(lib_a-locale.o)
                0x00806d90                __locale_charset
                0x00806d98                _localeconv_r
                0x00806da4                localeconv
                0x00806db4                _setlocale_r
                0x00806e38                setlocale
 .text          0x00806e54      0x194 c:/altera/10.1/nios2eds/bin/gnu/h-i686-mingw32/bin/../lib/gcc/nios2-elf/4.1.2/../../../../nios2-elf/lib\libc.a(lib_a-makebuf.o)
                0x00806e54                __smakebuf_r
 .text          0x00806fe8      0x740 c:/altera/10.1/nios2eds/bin/gnu/h-i686-mingw32/bin/../lib/gcc/nios2-elf/4.1.2/../../../../nios2-elf/lib\libc.a(lib_a-mallocr.o)
                0x00806fe8                _malloc_r
 .text          0x00807728       0xe4 c:/altera/10.1/nios2eds/bin/gnu/h-i686-mingw32/bin/../lib/gcc/nios2-elf/4.1.2/../../../../nios2-elf/lib\libc.a(lib_a-memchr.o)
                0x00807728                memchr
 .text          0x0080780c       0xa0 c:/altera/10.1/nios2eds/bin/gnu/h-i686-mingw32/bin/../lib/gcc/nios2-elf/4.1.2/../../../../nios2-elf/lib\libc.a(lib_a-memcpy.o)
                0x0080780c                memcpy
 .text          0x008078ac       0xe0 c:/altera/10.1/nios2eds/bin/gnu/h-i686-mingw32/bin/../lib/gcc/nios2-elf/4.1.2/../../../../nios2-elf/lib\libc.a(lib_a-memmove.o)
                0x008078ac                memmove
 .text          0x0080798c       0x98 c:/altera/10.1/nios2eds/bin/gnu/h-i686-mingw32/bin/../lib/gcc/nios2-elf/4.1.2/../../../../nios2-elf/lib\libc.a(lib_a-memset.o)
                0x0080798c                memset
 .text          0x00807a24      0xff4 c:/altera/10.1/nios2eds/bin/gnu/h-i686-mingw32/bin/../lib/gcc/nios2-elf/4.1.2/../../../../nios2-elf/lib\libc.a(lib_a-mprec.o)
                0x00807a24                _Bfree
                0x00807a4c                __hi0bits
                0x00807abc                __lo0bits
                0x00807b80                __mcmp
                0x00807be0                __ulp
                0x00807c60                __b2d
                0x00807d80                __ratio
                0x00807e30                _mprec_log10
                0x00807ec4                __copybits
                0x00807f1c                __any_on
                0x00807fa4                _Balloc
                0x00808060                __d2b
                0x008081dc                __mdiff
                0x00808368                __lshift
                0x008084b4                __multiply
                0x0080869c                __i2b
                0x008086d8                __multadd
                0x008087d8                __pow5mult
                0x008088f8                __s2b
 .text          0x00808a18      0x1ec c:/altera/10.1/nios2eds/bin/gnu/h-i686-mingw32/bin/../lib/gcc/nios2-elf/4.1.2/../../../../nios2-elf/lib\libc.a(lib_a-putc.o)
                0x00808a18                putc
                0x00808b1c                _putc_r
 .text          0x00808c04      0x5f4 c:/altera/10.1/nios2eds/bin/gnu/h-i686-mingw32/bin/../lib/gcc/nios2-elf/4.1.2/../../../../nios2-elf/lib\libc.a(lib_a-reallocr.o)
                0x00808c04                _realloc_r
 .text          0x008091f8       0x40 c:/altera/10.1/nios2eds/bin/gnu/h-i686-mingw32/bin/../lib/gcc/nios2-elf/4.1.2/../../../../nios2-elf/lib\libc.a(lib_a-s_isinfd.o)
                0x008091f8                __isinfd
 .text          0x00809238       0x30 c:/altera/10.1/nios2eds/bin/gnu/h-i686-mingw32/bin/../lib/gcc/nios2-elf/4.1.2/../../../../nios2-elf/lib\libc.a(lib_a-s_isnand.o)
                0x00809238                __isnand
 .text          0x00809268       0x70 c:/altera/10.1/nios2eds/bin/gnu/h-i686-mingw32/bin/../lib/gcc/nios2-elf/4.1.2/../../../../nios2-elf/lib\libc.a(lib_a-sbrkr.o)
                0x00809268                _sbrk_r
 .text          0x008092d8      0x14c c:/altera/10.1/nios2eds/bin/gnu/h-i686-mingw32/bin/../lib/gcc/nios2-elf/4.1.2/../../../../nios2-elf/lib\libc.a(lib_a-stdio.o)
                0x008092d8                __sclose
                0x008092e0                __sseek
                0x00809348                __swrite
                0x008093c4                __sread
 .text          0x00809424       0xbc c:/altera/10.1/nios2eds/bin/gnu/h-i686-mingw32/bin/../lib/gcc/nios2-elf/4.1.2/../../../../nios2-elf/lib\libc.a(lib_a-strcmp.o)
                0x00809424                strcmp
 .text          0x008094e0       0x74 c:/altera/10.1/nios2eds/bin/gnu/h-i686-mingw32/bin/../lib/gcc/nios2-elf/4.1.2/../../../../nios2-elf/lib\libc.a(lib_a-strlen.o)
                0x008094e0                strlen
 .text          0x00809554      0x14c c:/altera/10.1/nios2eds/bin/gnu/h-i686-mingw32/bin/../lib/gcc/nios2-elf/4.1.2/../../../../nios2-elf/lib\libc.a(lib_a-wbuf.o)
                0x00809554                __swbuf_r
                0x00809684                __swbuf
 .text          0x008096a0       0x78 c:/altera/10.1/nios2eds/bin/gnu/h-i686-mingw32/bin/../lib/gcc/nios2-elf/4.1.2/../../../../nios2-elf/lib\libc.a(lib_a-writer.o)
                0x008096a0                _write_r
 .text          0x00809718       0xb4 c:/altera/10.1/nios2eds/bin/gnu/h-i686-mingw32/bin/../lib/gcc/nios2-elf/4.1.2/../../../../nios2-elf/lib\libc.a(lib_a-callocr.o)
                0x00809718                _calloc_r
 .text          0x008097cc       0x70 c:/altera/10.1/nios2eds/bin/gnu/h-i686-mingw32/bin/../lib/gcc/nios2-elf/4.1.2/../../../../nios2-elf/lib\libc.a(lib_a-closer.o)
                0x008097cc                _close_r
 .text          0x0080983c      0x124 c:/altera/10.1/nios2eds/bin/gnu/h-i686-mingw32/bin/../lib/gcc/nios2-elf/4.1.2/../../../../nios2-elf/lib\libc.a(lib_a-fclose.o)
                0x0080983c                _fclose_r
                0x0080994c                fclose
 .text          0x00809960       0x74 c:/altera/10.1/nios2eds/bin/gnu/h-i686-mingw32/bin/../lib/gcc/nios2-elf/4.1.2/../../../../nios2-elf/lib\libc.a(lib_a-fstatr.o)
                0x00809960                _fstat_r
 .text          0x008099d4       0x70 c:/altera/10.1/nios2eds/bin/gnu/h-i686-mingw32/bin/../lib/gcc/nios2-elf/4.1.2/../../../../nios2-elf/lib\libc.a(lib_a-isattyr.o)
                0x008099d4                _isatty_r
 .text          0x00809a44       0x78 c:/altera/10.1/nios2eds/bin/gnu/h-i686-mingw32/bin/../lib/gcc/nios2-elf/4.1.2/../../../../nios2-elf/lib\libc.a(lib_a-lseekr.o)
                0x00809a44                _lseek_r
 .text          0x00809abc       0x78 c:/altera/10.1/nios2eds/bin/gnu/h-i686-mingw32/bin/../lib/gcc/nios2-elf/4.1.2/../../../../nios2-elf/lib\libc.a(lib_a-readr.o)
                0x00809abc                _read_r
 .text          0x00809b34       0x98 c:/altera/10.1/nios2eds/bin/gnu/h-i686-mingw32/bin/../lib/gcc/nios2-elf/4.1.2\libgcc.a(_muldi3.o)
                0x00809b34                __muldi3
 .text          0x00809bcc      0x5dc c:/altera/10.1/nios2eds/bin/gnu/h-i686-mingw32/bin/../lib/gcc/nios2-elf/4.1.2\libgcc.a(_udivdi3.o)
                0x00809bcc                __udivdi3
 .text          0x0080a1a8      0x5b0 c:/altera/10.1/nios2eds/bin/gnu/h-i686-mingw32/bin/../lib/gcc/nios2-elf/4.1.2\libgcc.a(_umoddi3.o)
                0x0080a1a8                __umoddi3
 .text          0x0080a758      0x504 c:/altera/10.1/nios2eds/bin/gnu/h-i686-mingw32/bin/../lib/gcc/nios2-elf/4.1.2\libgcc.a(_addsub_df.o)
                0x0080ab68                __subdf3
                0x0080abe8                __adddf3
 .text          0x0080ac5c      0x3c4 c:/altera/10.1/nios2eds/bin/gnu/h-i686-mingw32/bin/../lib/gcc/nios2-elf/4.1.2\libgcc.a(_mul_df.o)
                0x0080ac5c                __muldf3
 .text          0x0080b020       0x88 c:/altera/10.1/nios2eds/bin/gnu/h-i686-mingw32/bin/../lib/gcc/nios2-elf/4.1.2\libgcc.a(_eq_df.o)
                0x0080b020                __eqdf2
 .text          0x0080b0a8       0x88 c:/altera/10.1/nios2eds/bin/gnu/h-i686-mingw32/bin/../lib/gcc/nios2-elf/4.1.2\libgcc.a(_ne_df.o)
                0x0080b0a8                __nedf2
 .text          0x0080b130       0x88 c:/altera/10.1/nios2eds/bin/gnu/h-i686-mingw32/bin/../lib/gcc/nios2-elf/4.1.2\libgcc.a(_ge_df.o)
                0x0080b130                __gedf2
 .text          0x0080b1b8       0xd8 c:/altera/10.1/nios2eds/bin/gnu/h-i686-mingw32/bin/../lib/gcc/nios2-elf/4.1.2\libgcc.a(_df_to_si.o)
                0x0080b1b8                __fixdfsi
 .text          0x0080b290      0x194 c:/altera/10.1/nios2eds/bin/gnu/h-i686-mingw32/bin/../lib/gcc/nios2-elf/4.1.2\libgcc.a(_usi_to_df.o)
                0x0080b290                __floatunsidf
 .text          0x0080b424      0x15c ../helloWorld_bsp\libhal_bsp.a(alt_close.o)
                0x0080b424                close
 .text          0x0080b580       0x2c ../helloWorld_bsp\libhal_bsp.a(alt_dev.o)
 .text          0x0080b5ac        0x0 ../helloWorld_bsp\libhal_bsp.a(alt_errno.o)
 .text          0x0080b5ac      0x134 ../helloWorld_bsp\libhal_bsp.a(alt_fstat.o)
                0x0080b5ac                fstat
 .text          0x0080b6e0      0x21c ../helloWorld_bsp\libhal_bsp.a(alt_gettod.o)
                0x0080b6e0                gettimeofday
 .text          0x0080b8fc      0x120 ../helloWorld_bsp\libhal_bsp.a(alt_isatty.o)
                0x0080b8fc                isatty
 .text          0x0080ba1c      0x150 ../helloWorld_bsp\libhal_bsp.a(alt_lseek.o)
                0x0080ba1c                lseek
 .text          0x0080bb6c       0x6c ../helloWorld_bsp\libhal_bsp.a(alt_main.o)
                0x0080bb6c                alt_main
 .text          0x0080bbd8       0x40 ../helloWorld_bsp\libhal_bsp.a(alt_malloc_lock.o)
                0x0080bbd8                __malloc_lock
                0x0080bbf8                __malloc_unlock
 .text          0x0080bc18      0x258 ../helloWorld_bsp\libhal_bsp.a(alt_printf.o)
                0x0080bc18                alt_printf
 .text          0x0080be70       0x40 ../helloWorld_bsp\libhal_bsp.a(alt_putchar.o)
                0x0080be70                alt_putchar
 .text          0x0080beb0      0x180 ../helloWorld_bsp\libhal_bsp.a(alt_read.o)
                0x0080beb0                read
 .text          0x0080c030       0x60 ../helloWorld_bsp\libhal_bsp.a(alt_release_fd.o)
                0x0080c030                alt_release_fd
 .text          0x0080c090       0xbc ../helloWorld_bsp\libhal_bsp.a(alt_sbrk.o)
                0x0080c090                sbrk
 .text          0x0080c14c      0x1a4 ../helloWorld_bsp\libhal_bsp.a(alt_tick.o)
                0x0080c14c                alt_alarm_stop
                0x0080c1e4                alt_tick
 .text          0x0080c2f0       0x30 ../helloWorld_bsp\libhal_bsp.a(alt_usleep.o)
                0x0080c2f0                usleep
 .text          0x0080c320      0x180 ../helloWorld_bsp\libhal_bsp.a(alt_write.o)
                0x0080c320                write
 .text          0x0080c4a0      0x3c0 ../helloWorld_bsp\libhal_bsp.a(alt_sys_init.o)
                0x0080c4a0                alt_irq_init
                0x0080c4d4                alt_sys_init
 .text          0x0080c860      0x8c8 ../helloWorld_bsp\libhal_bsp.a(altera_avalon_cfi_flash.o)
                0x0080c860                alt_flash_cfi_init
                0x0080c934                alt_flash_cfi_write
                0x0080cbf4                alt_flash_cfi_get_info
                0x0080cc84                alt_flash_cfi_read
                0x0080ccec                alt_write_value_to_flash
                0x0080ce50                alt_flash_program_block
 .text          0x0080d128     0x1448 ../helloWorld_bsp\libhal_bsp.a(altera_avalon_cfi_flash_table.o)
                0x0080d128                alt_read_query_entry_8bit
                0x0080d168                alt_read_query_entry_16bit
                0x0080d1ac                alt_read_query_entry_32bit
                0x0080d1f4                alt_write_flash_command_8bit_device_8bit_mode
                0x0080d230                alt_write_flash_command_16bit_device_8bit_mode
                0x0080d2ac                alt_write_flash_command_32bit_device_8bit_mode
                0x0080d2f4                alt_write_flash_command_16bit_device_16bit_mode
                0x0080d338                alt_write_flash_command_32bit_device_16bit_mode
                0x0080d380                alt_write_flash_command_32bit_device_32bit_mode
                0x0080d3c8                alt_write_native_8bit
                0x0080d3fc                alt_write_native_16bit
                0x0080d430                alt_write_native_32bit
                0x0080d460                alt_set_flash_width_func
                0x0080d640                alt_set_flash_algorithm_func
                0x0080d768                alt_read_cfi_table
                0x0080dce8                alt_read_cfi_width
                0x0080e494                alt_check_primary_table
 .text          0x0080e570      0x148 ../helloWorld_bsp\libhal_bsp.a(altera_avalon_jtag_uart_fd.o)
                0x0080e570                altera_avalon_jtag_uart_read_fd
                0x0080e5c8                altera_avalon_jtag_uart_write_fd
                0x0080e620                altera_avalon_jtag_uart_close_fd
                0x0080e668                altera_avalon_jtag_uart_ioctl_fd
 .text          0x0080e6b8      0x408 ../helloWorld_bsp\libhal_bsp.a(altera_avalon_jtag_uart_init.o)
                0x0080e6b8                altera_avalon_jtag_uart_init
                0x0080ea4c                altera_avalon_jtag_uart_close
 .text          0x0080eac0       0xf4 ../helloWorld_bsp\libhal_bsp.a(altera_avalon_jtag_uart_ioctl.o)
                0x0080eac0                altera_avalon_jtag_uart_ioctl
 .text          0x0080ebb4      0x224 ../helloWorld_bsp\libhal_bsp.a(altera_avalon_jtag_uart_read.o)
                0x0080ebb4                altera_avalon_jtag_uart_read
 .text          0x0080edd8      0x240 ../helloWorld_bsp\libhal_bsp.a(altera_avalon_jtag_uart_write.o)
                0x0080edd8                altera_avalon_jtag_uart_write
 .text          0x0080f018      0x238 ../helloWorld_bsp\libhal_bsp.a(altera_avalon_spi.o)
                0x0080f018                alt_avalon_spi_command
 .text          0x0080f250       0xfc ../helloWorld_bsp\libhal_bsp.a(altera_avalon_timer_sc.o)
                0x0080f2c4                alt_avalon_timer_sc_init
 .text          0x0080f34c       0xf8 ../helloWorld_bsp\libhal_bsp.a(altera_avalon_uart_fd.o)
                0x0080f34c                altera_avalon_uart_read_fd
                0x0080f3a4                altera_avalon_uart_write_fd
                0x0080f3fc                altera_avalon_uart_close_fd
 .text          0x0080f444      0x3fc ../helloWorld_bsp\libhal_bsp.a(altera_avalon_uart_init.o)
                0x0080f444                altera_avalon_uart_init
                0x0080f7e0                altera_avalon_uart_close
 .text          0x0080f840      0x290 ../helloWorld_bsp\libhal_bsp.a(altera_avalon_uart_read.o)
                0x0080f840                altera_avalon_uart_read
 .text          0x0080fad0      0x228 ../helloWorld_bsp\libhal_bsp.a(altera_avalon_uart_write.o)
                0x0080fad0                altera_avalon_uart_write
 .text          0x0080fcf8      0x700 ../helloWorld_bsp\libhal_bsp.a(altera_up_avalon_ps2.o)
                0x0080fcf8                read_RI_bit
                0x0080fd2c                read_RE_bit
                0x0080fd5c                read_CE_bit
                0x0080fd90                read_num_bytes_available
                0x0080fdc4                read_data_valid
                0x0080fdf8                read_data_byte
                0x0080fe24                alt_up_ps2_init
                0x0080fef0                alt_up_ps2_enable_read_interrupt
                0x0080ff44                alt_up_ps2_disable_read_interrupt
                0x0080ff9c                alt_up_ps2_write_data_byte
                0x00810014                alt_up_ps2_wait_for_ack
                0x00810084                alt_up_ps2_write_data_byte_with_ack
                0x008100f0                alt_up_ps2_read_data_byte_timeout
                0x008101a0                alt_up_ps2_read_data_byte
                0x0081021c                alt_up_ps2_clear_fifo
                0x00810274                alt_up_ps2_read_fd
                0x00810310                alt_up_ps2_write_fd
                0x008103b8                alt_up_ps2_open_dev
 .text          0x008103f8      0x304 ../helloWorld_bsp\libhal_bsp.a(altera_up_avalon_video_character_buffer_with_dma.o)
                0x008103f8                alt_up_char_buffer_init
                0x0081047c                alt_up_char_buffer_open_dev
                0x008104bc                alt_up_char_buffer_draw
                0x0081058c                alt_up_char_buffer_string
                0x008106a0                alt_up_char_buffer_clear
 .text          0x008106fc      0x5e0 ../helloWorld_bsp\libhal_bsp.a(altera_up_ps2_keyboard.o)
                0x008106fc                get_multi_byte_make_code_index
                0x00810774                get_single_byte_make_code_index
                0x008107ec                get_next_state
                0x00810a48                decode_scancode
                0x00810af4                set_keyboard_rate
                0x00810b54                translate_make_code
                0x00810c5c                reset_keyboard
 .text          0x00810cdc      0x154 ../helloWorld_bsp\libhal_bsp.a(alt_alarm_start.o)
                0x00810cdc                alt_alarm_start
 .text          0x00810e30      0x14c ../helloWorld_bsp\libhal_bsp.a(alt_busy_sleep.o)
                0x00810e30                alt_busy_sleep
 .text          0x00810f7c       0x78 ../helloWorld_bsp\libhal_bsp.a(alt_dcache_flush.o)
                0x00810f7c                alt_dcache_flush
 .text          0x00810ff4      0x114 ../helloWorld_bsp\libhal_bsp.a(alt_dev_llist_insert.o)
                0x00810ff4                alt_dev_llist_insert
 .text          0x00811108       0x64 ../helloWorld_bsp\libhal_bsp.a(alt_do_ctors.o)
                0x00811108                _do_ctors
 .text          0x0081116c       0x64 ../helloWorld_bsp\libhal_bsp.a(alt_do_dtors.o)
                0x0081116c                _do_dtors
 .text          0x008111d0       0x94 ../helloWorld_bsp\libhal_bsp.a(alt_find_dev.o)
                0x008111d0                alt_find_dev
 .text          0x00811264       0xd0 ../helloWorld_bsp\libhal_bsp.a(alt_flash_dev.o)
                0x00811264                alt_flash_open_dev
                0x008112e0                alt_flash_close_dev
 .text          0x00811334      0x13c ../helloWorld_bsp\libhal_bsp.a(alt_io_redirect.o)
                0x008113f8                alt_io_redirect
 .text          0x00811470      0x1c0 ../helloWorld_bsp\libhal_bsp.a(alt_irq_register.o)
                0x00811470                alt_irq_register
 .text          0x00811630        0x0 ../helloWorld_bsp\libhal_bsp.a(alt_irq_vars.o)
 .text          0x00811630      0x2c4 ../helloWorld_bsp\libhal_bsp.a(alt_open.o)
                0x0081170c                open
 .text          0x008118f4       0x20 ../helloWorld_bsp\libhal_bsp.a(altera_nios2_irq.o)
                0x008118f4                altera_nios2_irq_init
 .text          0x00811914      0x460 ../helloWorld_bsp\libhal_bsp.a(altera_avalon_cfi_flash_amd.o)
                0x00811914                alt_program_amd
                0x0081197c                alt_erase_block_amd
 .text          0x00811d74      0x460 ../helloWorld_bsp\libhal_bsp.a(altera_avalon_cfi_flash_intel.o)
                0x00811d74                alt_program_intel
                0x00811df8                alt_erase_block_intel
 .text          0x008121d4      0x120 ../helloWorld_bsp\libhal_bsp.a(alt_find_file.o)
                0x008121d4                alt_find_file
 .text          0x008122f4       0xb8 ../helloWorld_bsp\libhal_bsp.a(alt_get_fd.o)
                0x008122f4                alt_get_fd
 .text          0x008123ac        0x0 ../helloWorld_bsp\libhal_bsp.a(alt_irq_entry.o)
 .text          0x008123ac        0x0 ../helloWorld_bsp\libhal_bsp.a(alt_irq_handler.o)
 .text          0x008123ac        0x0 ../helloWorld_bsp\libhal_bsp.a(alt_exception_entry.o)
 .text          0x008123ac       0x14 c:/altera/10.1/nios2eds/bin/gnu/h-i686-mingw32/bin/../lib/gcc/nios2-elf/4.1.2/../../../../nios2-elf/lib\libc.a(lib_a-atexit.o)
                0x008123ac                atexit
 .text          0x008123c0       0x38 c:/altera/10.1/nios2eds/bin/gnu/h-i686-mingw32/bin/../lib/gcc/nios2-elf/4.1.2/../../../../nios2-elf/lib\libc.a(lib_a-exit.o)
                0x008123c0                exit
 .text          0x008123f8       0x74 c:/altera/10.1/nios2eds/bin/gnu/h-i686-mingw32/bin/../lib/gcc/nios2-elf/4.1.2/../../../../nios2-elf/lib\libc.a(lib_a-memcmp.o)
                0x008123f8                memcmp
 .text          0x0081246c       0x8c c:/altera/10.1/nios2eds/bin/gnu/h-i686-mingw32/bin/../lib/gcc/nios2-elf/4.1.2/../../../../nios2-elf/lib\libc.a(lib_a-strcpy.o)
                0x0081246c                strcpy
 .text          0x008124f8      0x134 c:/altera/10.1/nios2eds/bin/gnu/h-i686-mingw32/bin/../lib/gcc/nios2-elf/4.1.2/../../../../nios2-elf/lib\libc.a(lib_a-__atexit.o)
                0x008124f8                __register_exitproc
 .text          0x0081262c      0x1b4 c:/altera/10.1/nios2eds/bin/gnu/h-i686-mingw32/bin/../lib/gcc/nios2-elf/4.1.2/../../../../nios2-elf/lib\libc.a(lib_a-__call_atexit.o)
                0x00812630                __call_exitprocs
 .text          0x008127e0       0x60 ../helloWorld_bsp\libhal_bsp.a(alt_exit.o)
                0x00812820                _exit
 *(.gnu.warning.*)
 *(.fini)
                0x00812840                PROVIDE (__etext, ABSOLUTE (.))
                0x00812840                PROVIDE (_etext, ABSOLUTE (.))
                0x00812840                PROVIDE (etext, ABSOLUTE (.))
 *(.eh_frame_hdr)
                0x00812840                . = ALIGN (0x4)
                0x00812840                PROVIDE (__preinit_array_start, ABSOLUTE (.))
 *(.preinit_array)
                0x00812840                PROVIDE (__preinit_array_end, ABSOLUTE (.))
                0x00812840                PROVIDE (__init_array_start, ABSOLUTE (.))
 *(.init_array)
                0x00812840                PROVIDE (__init_array_end, ABSOLUTE (.))
                0x00812840                PROVIDE (__fini_array_start, ABSOLUTE (.))
 *(.fini_array)
                0x00812840                PROVIDE (__fini_array_end, ABSOLUTE (.))
 *(.eh_frame)
 .eh_frame      0x00812840       0x40 c:/altera/10.1/nios2eds/bin/gnu/h-i686-mingw32/bin/../lib/gcc/nios2-elf/4.1.2\libgcc.a(_udivdi3.o)
 .eh_frame      0x00812880       0x2c c:/altera/10.1/nios2eds/bin/gnu/h-i686-mingw32/bin/../lib/gcc/nios2-elf/4.1.2\libgcc.a(_umoddi3.o)
                                 0x40 (size before relaxing)
 *(.gcc_except_table)
 *(.dynamic)
                0x008128ac                PROVIDE (__CTOR_LIST__, ABSOLUTE (.))
 *(.ctors)
 *(SORT(.ctors.*))
 .ctors.65535   0x008128ac        0x4 c:/altera/10.1/nios2eds/bin/gnu/h-i686-mingw32/bin/../lib/gcc/nios2-elf/4.1.2/../../../../nios2-elf/lib\libc.a(lib_a-__call_atexit.o)
                0x008128b0                PROVIDE (__CTOR_END__, ABSOLUTE (.))
                0x008128b0                PROVIDE (__DTOR_LIST__, ABSOLUTE (.))
 *(.dtors)
 *(SORT(.dtors.*))
                0x008128b0                PROVIDE (__DTOR_END__, ABSOLUTE (.))
 *(.jcr)
                0x008128b0                . = ALIGN (0x4)

.rodata         0x008128b0      0x6b0
                0x008128b0                PROVIDE (__ram_rodata_start, ABSOLUTE (.))
                0x008128b0                . = ALIGN (0x4)
 *(.rodata .rodata.* .gnu.linkonce.r.*)
 .rodata        0x008128b0       0x9c obj/hello_world.o
 .rodata        0x0081294c       0x14 c:/altera/10.1/nios2eds/bin/gnu/h-i686-mingw32/bin/../lib/gcc/nios2-elf/4.1.2\libgcc.a(_thenan_df.o)
                0x0081294c                __thenan_df
 .rodata        0x00812960      0x100 c:/altera/10.1/nios2eds/bin/gnu/h-i686-mingw32/bin/../lib/gcc/nios2-elf/4.1.2\libgcc.a(_clz.o)
                0x00812960                __clz_tab
 .rodata.str1.4
                0x00812a60       0x5e c:/altera/10.1/nios2eds/bin/gnu/h-i686-mingw32/bin/../lib/gcc/nios2-elf/4.1.2/../../../../nios2-elf/lib\libc.a(lib_a-vfprintf.o)
                                 0x60 (size before relaxing)
 .rodata        0x00812abe       0x20 c:/altera/10.1/nios2eds/bin/gnu/h-i686-mingw32/bin/../lib/gcc/nios2-elf/4.1.2/../../../../nios2-elf/lib\libc.a(lib_a-vfprintf.o)
 *fill*         0x00812ade        0x2 00
 .rodata.str1.4
                0x00812ae0       0x10 c:/altera/10.1/nios2eds/bin/gnu/h-i686-mingw32/bin/../lib/gcc/nios2-elf/4.1.2/../../../../nios2-elf/lib\libc.a(lib_a-dtoa.o)
                                 0x14 (size before relaxing)
 .rodata.str1.4
                0x00812af0        0x2 c:/altera/10.1/nios2eds/bin/gnu/h-i686-mingw32/bin/../lib/gcc/nios2-elf/4.1.2/../../../../nios2-elf/lib\libc.a(lib_a-impure.o)
                                  0x4 (size before relaxing)
 *fill*         0x00812af2        0x2 00
 .rodata.str1.4
                0x00812af4       0x10 c:/altera/10.1/nios2eds/bin/gnu/h-i686-mingw32/bin/../lib/gcc/nios2-elf/4.1.2/../../../../nios2-elf/lib\libc.a(lib_a-locale.o)
                                 0x18 (size before relaxing)
 .rodata        0x00812b04       0x30 c:/altera/10.1/nios2eds/bin/gnu/h-i686-mingw32/bin/../lib/gcc/nios2-elf/4.1.2/../../../../nios2-elf/lib\libc.a(lib_a-locale.o)
 .rodata        0x00812b34      0x124 c:/altera/10.1/nios2eds/bin/gnu/h-i686-mingw32/bin/../lib/gcc/nios2-elf/4.1.2/../../../../nios2-elf/lib\libc.a(lib_a-mprec.o)
                0x00812b34                __mprec_tens
                0x00812bfc                __mprec_bigtens
                0x00812c24                __mprec_tinytens
 .rodata        0x00812c58        0xc ../helloWorld_bsp\libhal_bsp.a(alt_dev.o)
 .rodata        0x00812c64       0x10 ../helloWorld_bsp\libhal_bsp.a(alt_main.o)
 .rodata        0x00812c74       0x94 ../helloWorld_bsp\libhal_bsp.a(alt_sys_init.o)
 .rodata        0x00812d08       0x1c ../helloWorld_bsp\libhal_bsp.a(altera_up_avalon_video_character_buffer_with_dma.o)
 .rodata        0x00812d24      0x23c ../helloWorld_bsp\libhal_bsp.a(altera_up_ps2_keyboard.o)
 *(.rodata1)
                0x00812f60                . = ALIGN (0x4)
                0x00812f60                PROVIDE (__ram_rodata_end, ABSOLUTE (.))
                0x008128b0                PROVIDE (__flash_rodata_start, LOADADDR (.rodata))

.rwdata         0x00812f60     0x1fb4
                0x00812f60                PROVIDE (__ram_rwdata_start, ABSOLUTE (.))
                0x00812f60                . = ALIGN (0x4)
 *(.got.plt)
 *(.got)
 *(.data1)
 *(.data .data.* .gnu.linkonce.d.*)
 .data          0x00812f60        0x0 ../helloWorld_bsp/obj/HAL/src/crt0.o
 .data          0x00812f60        0x0 obj/hello_world.o
 .data          0x00812f60        0x0 c:/altera/10.1/nios2eds/bin/gnu/h-i686-mingw32/bin/../lib/gcc/nios2-elf/4.1.2\libgcc.a(_gt_sf.o)
 .data          0x00812f60        0x0 c:/altera/10.1/nios2eds/bin/gnu/h-i686-mingw32/bin/../lib/gcc/nios2-elf/4.1.2\libgcc.a(_lt_sf.o)
 .data          0x00812f60        0x0 c:/altera/10.1/nios2eds/bin/gnu/h-i686-mingw32/bin/../lib/gcc/nios2-elf/4.1.2\libgcc.a(_sf_to_df.o)
 .data          0x00812f60        0x0 c:/altera/10.1/nios2eds/bin/gnu/h-i686-mingw32/bin/../lib/gcc/nios2-elf/4.1.2\libgcc.a(_div_df.o)
 .data          0x00812f60        0x0 c:/altera/10.1/nios2eds/bin/gnu/h-i686-mingw32/bin/../lib/gcc/nios2-elf/4.1.2\libgcc.a(_gt_df.o)
 .data          0x00812f60        0x0 c:/altera/10.1/nios2eds/bin/gnu/h-i686-mingw32/bin/../lib/gcc/nios2-elf/4.1.2\libgcc.a(_lt_df.o)
 .data          0x00812f60        0x0 c:/altera/10.1/nios2eds/bin/gnu/h-i686-mingw32/bin/../lib/gcc/nios2-elf/4.1.2\libgcc.a(_si_to_df.o)
 .data          0x00812f60        0x0 c:/altera/10.1/nios2eds/bin/gnu/h-i686-mingw32/bin/../lib/gcc/nios2-elf/4.1.2\libgcc.a(_make_df.o)
 .data          0x00812f60        0x0 c:/altera/10.1/nios2eds/bin/gnu/h-i686-mingw32/bin/../lib/gcc/nios2-elf/4.1.2\libgcc.a(_df_to_sf.o)
 .data          0x00812f60        0x0 c:/altera/10.1/nios2eds/bin/gnu/h-i686-mingw32/bin/../lib/gcc/nios2-elf/4.1.2\libgcc.a(_thenan_df.o)
 .data          0x00812f60        0x0 c:/altera/10.1/nios2eds/bin/gnu/h-i686-mingw32/bin/../lib/gcc/nios2-elf/4.1.2\libgcc.a(lib2-divmod.o)
 .data          0x00812f60        0x0 c:/altera/10.1/nios2eds/bin/gnu/h-i686-mingw32/bin/../lib/gcc/nios2-elf/4.1.2\libgcc.a(_clzsi2.o)
 .data          0x00812f60        0x0 c:/altera/10.1/nios2eds/bin/gnu/h-i686-mingw32/bin/../lib/gcc/nios2-elf/4.1.2\libgcc.a(_unpack_sf.o)
 .data          0x00812f60        0x0 c:/altera/10.1/nios2eds/bin/gnu/h-i686-mingw32/bin/../lib/gcc/nios2-elf/4.1.2\libgcc.a(_fpcmp_parts_sf.o)
 .data          0x00812f60        0x0 c:/altera/10.1/nios2eds/bin/gnu/h-i686-mingw32/bin/../lib/gcc/nios2-elf/4.1.2\libgcc.a(_make_sf.o)
 .data          0x00812f60        0x0 c:/altera/10.1/nios2eds/bin/gnu/h-i686-mingw32/bin/../lib/gcc/nios2-elf/4.1.2\libgcc.a(_pack_df.o)
 .data          0x00812f60        0x0 c:/altera/10.1/nios2eds/bin/gnu/h-i686-mingw32/bin/../lib/gcc/nios2-elf/4.1.2\libgcc.a(_unpack_df.o)
 .data          0x00812f60        0x0 c:/altera/10.1/nios2eds/bin/gnu/h-i686-mingw32/bin/../lib/gcc/nios2-elf/4.1.2\libgcc.a(_fpcmp_parts_df.o)
 .data          0x00812f60        0x0 c:/altera/10.1/nios2eds/bin/gnu/h-i686-mingw32/bin/../lib/gcc/nios2-elf/4.1.2\libgcc.a(_clz.o)
 .data          0x00812f60        0x0 c:/altera/10.1/nios2eds/bin/gnu/h-i686-mingw32/bin/../lib/gcc/nios2-elf/4.1.2\libgcc.a(_pack_sf.o)
 .data          0x00812f60        0x0 c:/altera/10.1/nios2eds/bin/gnu/h-i686-mingw32/bin/../lib/gcc/nios2-elf/4.1.2/../../../../nios2-elf/lib\libc.a(lib_a-printf.o)
 .data          0x00812f60        0x0 c:/altera/10.1/nios2eds/bin/gnu/h-i686-mingw32/bin/../lib/gcc/nios2-elf/4.1.2/../../../../nios2-elf/lib\libc.a(lib_a-putchar.o)
 .data          0x00812f60        0x0 c:/altera/10.1/nios2eds/bin/gnu/h-i686-mingw32/bin/../lib/gcc/nios2-elf/4.1.2/../../../../nios2-elf/lib\libc.a(lib_a-rand.o)
 .data          0x00812f60        0x0 c:/altera/10.1/nios2eds/bin/gnu/h-i686-mingw32/bin/../lib/gcc/nios2-elf/4.1.2/../../../../nios2-elf/lib\libc.a(lib_a-time.o)
 .data          0x00812f60        0x0 c:/altera/10.1/nios2eds/bin/gnu/h-i686-mingw32/bin/../lib/gcc/nios2-elf/4.1.2/../../../../nios2-elf/lib\libc.a(lib_a-vfprintf.o)
 .data          0x00812f60        0x0 c:/altera/10.1/nios2eds/bin/gnu/h-i686-mingw32/bin/../lib/gcc/nios2-elf/4.1.2/../../../../nios2-elf/lib\libc.a(lib_a-wsetup.o)
 .data          0x00812f60        0x0 c:/altera/10.1/nios2eds/bin/gnu/h-i686-mingw32/bin/../lib/gcc/nios2-elf/4.1.2/../../../../nios2-elf/lib\libc.a(lib_a-dtoa.o)
 .data          0x00812f60        0x0 c:/altera/10.1/nios2eds/bin/gnu/h-i686-mingw32/bin/../lib/gcc/nios2-elf/4.1.2/../../../../nios2-elf/lib\libc.a(lib_a-fflush.o)
 .data          0x00812f60        0x0 c:/altera/10.1/nios2eds/bin/gnu/h-i686-mingw32/bin/../lib/gcc/nios2-elf/4.1.2/../../../../nios2-elf/lib\libc.a(lib_a-findfp.o)
 .data          0x00812f60        0x0 c:/altera/10.1/nios2eds/bin/gnu/h-i686-mingw32/bin/../lib/gcc/nios2-elf/4.1.2/../../../../nios2-elf/lib\libc.a(lib_a-freer.o)
 .data          0x00812f60        0x0 c:/altera/10.1/nios2eds/bin/gnu/h-i686-mingw32/bin/../lib/gcc/nios2-elf/4.1.2/../../../../nios2-elf/lib\libc.a(lib_a-fvwrite.o)
 .data          0x00812f60        0x0 c:/altera/10.1/nios2eds/bin/gnu/h-i686-mingw32/bin/../lib/gcc/nios2-elf/4.1.2/../../../../nios2-elf/lib\libc.a(lib_a-fwalk.o)
 .data          0x00812f60        0x0 c:/altera/10.1/nios2eds/bin/gnu/h-i686-mingw32/bin/../lib/gcc/nios2-elf/4.1.2/../../../../nios2-elf/lib\libc.a(lib_a-gettimeofdayr.o)
 .data          0x00812f60      0x400 c:/altera/10.1/nios2eds/bin/gnu/h-i686-mingw32/bin/../lib/gcc/nios2-elf/4.1.2/../../../../nios2-elf/lib\libc.a(lib_a-impure.o)
 .data          0x00813360        0x0 c:/altera/10.1/nios2eds/bin/gnu/h-i686-mingw32/bin/../lib/gcc/nios2-elf/4.1.2/../../../../nios2-elf/lib\libc.a(lib_a-int_errno.o)
 .data          0x00813360        0xc c:/altera/10.1/nios2eds/bin/gnu/h-i686-mingw32/bin/../lib/gcc/nios2-elf/4.1.2/../../../../nios2-elf/lib\libc.a(lib_a-locale.o)
                0x00813360                __lc_ctype
 .data          0x0081336c        0x0 c:/altera/10.1/nios2eds/bin/gnu/h-i686-mingw32/bin/../lib/gcc/nios2-elf/4.1.2/../../../../nios2-elf/lib\libc.a(lib_a-makebuf.o)
 .data          0x0081336c      0x408 c:/altera/10.1/nios2eds/bin/gnu/h-i686-mingw32/bin/../lib/gcc/nios2-elf/4.1.2/../../../../nios2-elf/lib\libc.a(lib_a-mallocr.o)
                0x0081336c                __malloc_av_
 .data          0x00813774        0x0 c:/altera/10.1/nios2eds/bin/gnu/h-i686-mingw32/bin/../lib/gcc/nios2-elf/4.1.2/../../../../nios2-elf/lib\libc.a(lib_a-memchr.o)
 .data          0x00813774        0x0 c:/altera/10.1/nios2eds/bin/gnu/h-i686-mingw32/bin/../lib/gcc/nios2-elf/4.1.2/../../../../nios2-elf/lib\libc.a(lib_a-memcpy.o)
 .data          0x00813774        0x0 c:/altera/10.1/nios2eds/bin/gnu/h-i686-mingw32/bin/../lib/gcc/nios2-elf/4.1.2/../../../../nios2-elf/lib\libc.a(lib_a-memmove.o)
 .data          0x00813774        0x0 c:/altera/10.1/nios2eds/bin/gnu/h-i686-mingw32/bin/../lib/gcc/nios2-elf/4.1.2/../../../../nios2-elf/lib\libc.a(lib_a-memset.o)
 .data          0x00813774        0x0 c:/altera/10.1/nios2eds/bin/gnu/h-i686-mingw32/bin/../lib/gcc/nios2-elf/4.1.2/../../../../nios2-elf/lib\libc.a(lib_a-mprec.o)
 .data          0x00813774        0x0 c:/altera/10.1/nios2eds/bin/gnu/h-i686-mingw32/bin/../lib/gcc/nios2-elf/4.1.2/../../../../nios2-elf/lib\libc.a(lib_a-putc.o)
 .data          0x00813774        0x0 c:/altera/10.1/nios2eds/bin/gnu/h-i686-mingw32/bin/../lib/gcc/nios2-elf/4.1.2/../../../../nios2-elf/lib\libc.a(lib_a-reallocr.o)
 .data          0x00813774        0x0 c:/altera/10.1/nios2eds/bin/gnu/h-i686-mingw32/bin/../lib/gcc/nios2-elf/4.1.2/../../../../nios2-elf/lib\libc.a(lib_a-s_isinfd.o)
 .data          0x00813774        0x0 c:/altera/10.1/nios2eds/bin/gnu/h-i686-mingw32/bin/../lib/gcc/nios2-elf/4.1.2/../../../../nios2-elf/lib\libc.a(lib_a-s_isnand.o)
 .data          0x00813774        0x0 c:/altera/10.1/nios2eds/bin/gnu/h-i686-mingw32/bin/../lib/gcc/nios2-elf/4.1.2/../../../../nios2-elf/lib\libc.a(lib_a-sbrkr.o)
 .data          0x00813774        0x0 c:/altera/10.1/nios2eds/bin/gnu/h-i686-mingw32/bin/../lib/gcc/nios2-elf/4.1.2/../../../../nios2-elf/lib\libc.a(lib_a-stdio.o)
 .data          0x00813774        0x0 c:/altera/10.1/nios2eds/bin/gnu/h-i686-mingw32/bin/../lib/gcc/nios2-elf/4.1.2/../../../../nios2-elf/lib\libc.a(lib_a-strcmp.o)
 .data          0x00813774        0x0 c:/altera/10.1/nios2eds/bin/gnu/h-i686-mingw32/bin/../lib/gcc/nios2-elf/4.1.2/../../../../nios2-elf/lib\libc.a(lib_a-strlen.o)
 .data          0x00813774        0x0 c:/altera/10.1/nios2eds/bin/gnu/h-i686-mingw32/bin/../lib/gcc/nios2-elf/4.1.2/../../../../nios2-elf/lib\libc.a(lib_a-wbuf.o)
 .data          0x00813774        0x0 c:/altera/10.1/nios2eds/bin/gnu/h-i686-mingw32/bin/../lib/gcc/nios2-elf/4.1.2/../../../../nios2-elf/lib\libc.a(lib_a-writer.o)
 .data          0x00813774        0x0 c:/altera/10.1/nios2eds/bin/gnu/h-i686-mingw32/bin/../lib/gcc/nios2-elf/4.1.2/../../../../nios2-elf/lib\libc.a(lib_a-callocr.o)
 .data          0x00813774        0x0 c:/altera/10.1/nios2eds/bin/gnu/h-i686-mingw32/bin/../lib/gcc/nios2-elf/4.1.2/../../../../nios2-elf/lib\libc.a(lib_a-closer.o)
 .data          0x00813774        0x0 c:/altera/10.1/nios2eds/bin/gnu/h-i686-mingw32/bin/../lib/gcc/nios2-elf/4.1.2/../../../../nios2-elf/lib\libc.a(lib_a-fclose.o)
 .data          0x00813774        0x0 c:/altera/10.1/nios2eds/bin/gnu/h-i686-mingw32/bin/../lib/gcc/nios2-elf/4.1.2/../../../../nios2-elf/lib\libc.a(lib_a-fstatr.o)
 .data          0x00813774        0x0 c:/altera/10.1/nios2eds/bin/gnu/h-i686-mingw32/bin/../lib/gcc/nios2-elf/4.1.2/../../../../nios2-elf/lib\libc.a(lib_a-isattyr.o)
 .data          0x00813774        0x0 c:/altera/10.1/nios2eds/bin/gnu/h-i686-mingw32/bin/../lib/gcc/nios2-elf/4.1.2/../../../../nios2-elf/lib\libc.a(lib_a-lseekr.o)
 .data          0x00813774        0x0 c:/altera/10.1/nios2eds/bin/gnu/h-i686-mingw32/bin/../lib/gcc/nios2-elf/4.1.2/../../../../nios2-elf/lib\libc.a(lib_a-readr.o)
 .data          0x00813774        0x0 c:/altera/10.1/nios2eds/bin/gnu/h-i686-mingw32/bin/../lib/gcc/nios2-elf/4.1.2\libgcc.a(_muldi3.o)
 .data          0x00813774        0x0 c:/altera/10.1/nios2eds/bin/gnu/h-i686-mingw32/bin/../lib/gcc/nios2-elf/4.1.2\libgcc.a(_udivdi3.o)
 .data          0x00813774        0x0 c:/altera/10.1/nios2eds/bin/gnu/h-i686-mingw32/bin/../lib/gcc/nios2-elf/4.1.2\libgcc.a(_umoddi3.o)
 .data          0x00813774        0x0 c:/altera/10.1/nios2eds/bin/gnu/h-i686-mingw32/bin/../lib/gcc/nios2-elf/4.1.2\libgcc.a(_addsub_df.o)
 .data          0x00813774        0x0 c:/altera/10.1/nios2eds/bin/gnu/h-i686-mingw32/bin/../lib/gcc/nios2-elf/4.1.2\libgcc.a(_mul_df.o)
 .data          0x00813774        0x0 c:/altera/10.1/nios2eds/bin/gnu/h-i686-mingw32/bin/../lib/gcc/nios2-elf/4.1.2\libgcc.a(_eq_df.o)
 .data          0x00813774        0x0 c:/altera/10.1/nios2eds/bin/gnu/h-i686-mingw32/bin/../lib/gcc/nios2-elf/4.1.2\libgcc.a(_ne_df.o)
 .data          0x00813774        0x0 c:/altera/10.1/nios2eds/bin/gnu/h-i686-mingw32/bin/../lib/gcc/nios2-elf/4.1.2\libgcc.a(_ge_df.o)
 .data          0x00813774        0x0 c:/altera/10.1/nios2eds/bin/gnu/h-i686-mingw32/bin/../lib/gcc/nios2-elf/4.1.2\libgcc.a(_df_to_si.o)
 .data          0x00813774        0x0 c:/altera/10.1/nios2eds/bin/gnu/h-i686-mingw32/bin/../lib/gcc/nios2-elf/4.1.2\libgcc.a(_usi_to_df.o)
 .data          0x00813774        0x0 ../helloWorld_bsp\libhal_bsp.a(alt_close.o)
 .data          0x00813774      0x1a8 ../helloWorld_bsp\libhal_bsp.a(alt_dev.o)
                0x00813774                alt_dev_null
                0x0081379c                alt_fd_list
 .data          0x0081391c        0x0 ../helloWorld_bsp\libhal_bsp.a(alt_errno.o)
 .data          0x0081391c        0x0 ../helloWorld_bsp\libhal_bsp.a(alt_fstat.o)
 .data          0x0081391c        0x0 ../helloWorld_bsp\libhal_bsp.a(alt_gettod.o)
 .data          0x0081391c        0x0 ../helloWorld_bsp\libhal_bsp.a(alt_isatty.o)
 .data          0x0081391c        0x0 ../helloWorld_bsp\libhal_bsp.a(alt_lseek.o)
 .data          0x0081391c        0x0 ../helloWorld_bsp\libhal_bsp.a(alt_main.o)
 .data          0x0081391c        0x0 ../helloWorld_bsp\libhal_bsp.a(alt_malloc_lock.o)
 .data          0x0081391c        0x0 ../helloWorld_bsp\libhal_bsp.a(alt_printf.o)
 .data          0x0081391c        0x0 ../helloWorld_bsp\libhal_bsp.a(alt_putchar.o)
 .data          0x0081391c        0x0 ../helloWorld_bsp\libhal_bsp.a(alt_read.o)
 .data          0x0081391c        0x0 ../helloWorld_bsp\libhal_bsp.a(alt_release_fd.o)
 .data          0x0081391c        0x0 ../helloWorld_bsp\libhal_bsp.a(alt_sbrk.o)
 .data          0x0081391c        0x0 ../helloWorld_bsp\libhal_bsp.a(alt_tick.o)
 .data          0x0081391c        0x0 ../helloWorld_bsp\libhal_bsp.a(alt_usleep.o)
 .data          0x0081391c        0x0 ../helloWorld_bsp\libhal_bsp.a(alt_write.o)
 .data          0x0081391c     0x12d0 ../helloWorld_bsp\libhal_bsp.a(alt_sys_init.o)
 .data          0x00814bec        0x0 ../helloWorld_bsp\libhal_bsp.a(altera_avalon_cfi_flash.o)
 .data          0x00814bec        0x0 ../helloWorld_bsp\libhal_bsp.a(altera_avalon_cfi_flash_table.o)
 .data          0x00814bec        0x0 ../helloWorld_bsp\libhal_bsp.a(altera_avalon_jtag_uart_fd.o)
 .data          0x00814bec        0x0 ../helloWorld_bsp\libhal_bsp.a(altera_avalon_jtag_uart_init.o)
 .data          0x00814bec        0x0 ../helloWorld_bsp\libhal_bsp.a(altera_avalon_jtag_uart_ioctl.o)
 .data          0x00814bec        0x0 ../helloWorld_bsp\libhal_bsp.a(altera_avalon_jtag_uart_read.o)
 .data          0x00814bec        0x0 ../helloWorld_bsp\libhal_bsp.a(altera_avalon_jtag_uart_write.o)
 .data          0x00814bec        0x0 ../helloWorld_bsp\libhal_bsp.a(altera_avalon_spi.o)
 .data          0x00814bec        0x0 ../helloWorld_bsp\libhal_bsp.a(altera_avalon_timer_sc.o)
 .data          0x00814bec        0x0 ../helloWorld_bsp\libhal_bsp.a(altera_avalon_uart_fd.o)
 .data          0x00814bec        0x0 ../helloWorld_bsp\libhal_bsp.a(altera_avalon_uart_init.o)
 .data          0x00814bec        0x0 ../helloWorld_bsp\libhal_bsp.a(altera_avalon_uart_read.o)
 .data          0x00814bec        0x0 ../helloWorld_bsp\libhal_bsp.a(altera_avalon_uart_write.o)
 .data          0x00814bec        0x0 ../helloWorld_bsp\libhal_bsp.a(altera_up_avalon_ps2.o)
 .data          0x00814bec        0x0 ../helloWorld_bsp\libhal_bsp.a(altera_up_avalon_video_character_buffer_with_dma.o)
 .data          0x00814bec      0x2cc ../helloWorld_bsp\libhal_bsp.a(altera_up_ps2_keyboard.o)
                0x00814bec                key_table
                0x00814d84                ascii_codes
                0x00814dea                single_byte_make_code
                0x00814e50                multi_byte_make_code
 .data          0x00814eb8        0x0 ../helloWorld_bsp\libhal_bsp.a(alt_alarm_start.o)
 .data          0x00814eb8        0x0 ../helloWorld_bsp\libhal_bsp.a(alt_busy_sleep.o)
 .data          0x00814eb8        0x0 ../helloWorld_bsp\libhal_bsp.a(alt_dcache_flush.o)
 .data          0x00814eb8        0x0 ../helloWorld_bsp\libhal_bsp.a(alt_dev_llist_insert.o)
 .data          0x00814eb8        0x0 ../helloWorld_bsp\libhal_bsp.a(alt_do_ctors.o)
 .data          0x00814eb8        0x0 ../helloWorld_bsp\libhal_bsp.a(alt_do_dtors.o)
 .data          0x00814eb8        0x0 ../helloWorld_bsp\libhal_bsp.a(alt_find_dev.o)
 .data          0x00814eb8        0x0 ../helloWorld_bsp\libhal_bsp.a(alt_flash_dev.o)
 .data          0x00814eb8        0x0 ../helloWorld_bsp\libhal_bsp.a(alt_io_redirect.o)
 .data          0x00814eb8        0x0 ../helloWorld_bsp\libhal_bsp.a(alt_irq_register.o)
 .data          0x00814eb8        0x0 ../helloWorld_bsp\libhal_bsp.a(alt_irq_vars.o)
 .data          0x00814eb8        0x0 ../helloWorld_bsp\libhal_bsp.a(alt_open.o)
 .data          0x00814eb8        0x0 ../helloWorld_bsp\libhal_bsp.a(altera_nios2_irq.o)
 .data          0x00814eb8        0x0 ../helloWorld_bsp\libhal_bsp.a(altera_avalon_cfi_flash_amd.o)
 .data          0x00814eb8        0x0 ../helloWorld_bsp\libhal_bsp.a(altera_avalon_cfi_flash_intel.o)
 .data          0x00814eb8        0x0 ../helloWorld_bsp\libhal_bsp.a(alt_find_file.o)
 .data          0x00814eb8        0x0 ../helloWorld_bsp\libhal_bsp.a(alt_get_fd.o)
 .data          0x00814eb8        0x0 ../helloWorld_bsp\libhal_bsp.a(alt_irq_entry.o)
 .data          0x00814eb8        0x0 ../helloWorld_bsp\libhal_bsp.a(alt_irq_handler.o)
 .data          0x00814eb8        0x0 ../helloWorld_bsp\libhal_bsp.a(alt_exception_entry.o)
 .data          0x00814eb8        0x0 c:/altera/10.1/nios2eds/bin/gnu/h-i686-mingw32/bin/../lib/gcc/nios2-elf/4.1.2/../../../../nios2-elf/lib\libc.a(lib_a-atexit.o)
 .data          0x00814eb8        0x0 c:/altera/10.1/nios2eds/bin/gnu/h-i686-mingw32/bin/../lib/gcc/nios2-elf/4.1.2/../../../../nios2-elf/lib\libc.a(lib_a-exit.o)
 .data          0x00814eb8        0x0 c:/altera/10.1/nios2eds/bin/gnu/h-i686-mingw32/bin/../lib/gcc/nios2-elf/4.1.2/../../../../nios2-elf/lib\libc.a(lib_a-memcmp.o)
 .data          0x00814eb8        0x0 c:/altera/10.1/nios2eds/bin/gnu/h-i686-mingw32/bin/../lib/gcc/nios2-elf/4.1.2/../../../../nios2-elf/lib\libc.a(lib_a-strcpy.o)
 .data          0x00814eb8        0x0 c:/altera/10.1/nios2eds/bin/gnu/h-i686-mingw32/bin/../lib/gcc/nios2-elf/4.1.2/../../../../nios2-elf/lib\libc.a(lib_a-__atexit.o)
 .data          0x00814eb8        0x0 c:/altera/10.1/nios2eds/bin/gnu/h-i686-mingw32/bin/../lib/gcc/nios2-elf/4.1.2/../../../../nios2-elf/lib\libc.a(lib_a-__call_atexit.o)
 .data          0x00814eb8        0x0 ../helloWorld_bsp\libhal_bsp.a(alt_exit.o)
                0x0081ceb8                _gp = ABSOLUTE ((. + 0x8000))
                0x0081ceb8                PROVIDE (gp, _gp)
 *(.sdata .sdata.* .gnu.linkonce.s.*)
 .sdata         0x00814eb8       0x14 obj/hello_world.o
                0x00814eb8                W
                0x00814ebc                H
                0x00814ec0                direct
                0x00814ec4                food
 .sdata         0x00814ecc        0x8 c:/altera/10.1/nios2eds/bin/gnu/h-i686-mingw32/bin/../lib/gcc/nios2-elf/4.1.2/../../../../nios2-elf/lib\libc.a(lib_a-impure.o)
                0x00814ecc                _impure_ptr
                0x00814ed0                _global_impure_ptr
 .sdata         0x00814ed4        0x8 c:/altera/10.1/nios2eds/bin/gnu/h-i686-mingw32/bin/../lib/gcc/nios2-elf/4.1.2/../../../../nios2-elf/lib\libc.a(lib_a-locale.o)
                0x00814ed4                __mb_cur_max
 .sdata         0x00814edc        0x8 c:/altera/10.1/nios2eds/bin/gnu/h-i686-mingw32/bin/../lib/gcc/nios2-elf/4.1.2/../../../../nios2-elf/lib\libc.a(lib_a-mallocr.o)
                0x00814edc                __malloc_trim_threshold
                0x00814ee0                __malloc_sbrk_base
 .sdata         0x00814ee4       0x14 ../helloWorld_bsp\libhal_bsp.a(alt_dev.o)
                0x00814ee4                alt_fs_list
                0x00814eec                alt_dev_list
                0x00814ef4                alt_max_fd
 .sdata         0x00814ef8        0x4 ../helloWorld_bsp\libhal_bsp.a(alt_errno.o)
                0x00814ef8                alt_errno
 .sdata         0x00814efc        0x4 ../helloWorld_bsp\libhal_bsp.a(alt_sbrk.o)
 .sdata         0x00814f00        0x8 ../helloWorld_bsp\libhal_bsp.a(alt_tick.o)
                0x00814f00                alt_alarm_list
 .sdata         0x00814f08        0x8 ../helloWorld_bsp\libhal_bsp.a(alt_flash_dev.o)
                0x00814f08                alt_flash_dev_list
 .sdata         0x00814f10        0x4 ../helloWorld_bsp\libhal_bsp.a(alt_irq_vars.o)
                0x00814f10                alt_priority_mask
 *(.sdata2 .sdata2.* .gnu.linkonce.s2.*)
                0x00814f14                . = ALIGN (0x4)
                0x00814f14                _edata = ABSOLUTE (.)
                0x00814f14                PROVIDE (edata, ABSOLUTE (.))
                0x00814f14                PROVIDE (__ram_rwdata_end, ABSOLUTE (.))
                0x00812f60                PROVIDE (__flash_rwdata_start, LOADADDR (.rwdata))

.bss            0x00814f14     0x1a48
                0x00814f14                __bss_start = ABSOLUTE (.)
                0x00814f14                PROVIDE (__sbss_start, ABSOLUTE (.))
                0x00814f14                PROVIDE (___sbss_start, ABSOLUTE (.))
 *(.dynsbss)
 *(.sbss .sbss.* .gnu.linkonce.sb.*)
 .sbss          0x00814f14       0x10 obj/hello_world.o
                0x00814f14                key
                0x00814f18                num
                0x00814f1c                btime
 .sbss          0x00814f24        0x4 obj/hello_world.o
                0x00814f24                head
 .sbss          0x00814f28        0x4 c:/altera/10.1/nios2eds/bin/gnu/h-i686-mingw32/bin/../lib/gcc/nios2-elf/4.1.2/../../../../nios2-elf/lib\libc.a(lib_a-int_errno.o)
                0x00814f28                errno
 .sbss          0x00814f2c        0xc c:/altera/10.1/nios2eds/bin/gnu/h-i686-mingw32/bin/../lib/gcc/nios2-elf/4.1.2/../../../../nios2-elf/lib\libc.a(lib_a-locale.o)
                0x00814f2c                __nlocale_changed
                0x00814f30                __mlocale_changed
                0x00814f34                _PathLocale
 .sbss          0x00814f38        0xc c:/altera/10.1/nios2eds/bin/gnu/h-i686-mingw32/bin/../lib/gcc/nios2-elf/4.1.2/../../../../nios2-elf/lib\libc.a(lib_a-mallocr.o)
                0x00814f38                __malloc_top_pad
                0x00814f3c                __malloc_max_sbrked_mem
                0x00814f40                __malloc_max_total_mem
 .sbss          0x00814f44       0x10 ../helloWorld_bsp\libhal_bsp.a(alt_gettod.o)
                0x00814f44                alt_timezone
                0x00814f4c                alt_resettime
 .sbss          0x00814f54        0xc ../helloWorld_bsp\libhal_bsp.a(alt_main.o)
                0x00814f54                alt_argc
                0x00814f58                alt_argv
                0x00814f5c                alt_envp
 .sbss          0x00814f60        0x8 ../helloWorld_bsp\libhal_bsp.a(alt_tick.o)
                0x00814f60                _alt_tick_rate
                0x00814f64                _alt_nticks
 .sbss          0x00814f68        0x4 ../helloWorld_bsp\libhal_bsp.a(alt_irq_vars.o)
                0x00814f68                alt_irq_active
 *(.sbss2 .sbss2.* .gnu.linkonce.sb2.*)
 *(.scommon)
                0x00814f6c                PROVIDE (__sbss_end, ABSOLUTE (.))
                0x00814f6c                PROVIDE (___sbss_end, ABSOLUTE (.))
 *(.dynbss)
 *(.bss .bss.* .gnu.linkonce.b.*)
 .bss           0x00814f6c        0x0 ../helloWorld_bsp/obj/HAL/src/crt0.o
 .bss           0x00814f6c        0x0 obj/hello_world.o
 .bss           0x00814f6c        0x0 c:/altera/10.1/nios2eds/bin/gnu/h-i686-mingw32/bin/../lib/gcc/nios2-elf/4.1.2\libgcc.a(_gt_sf.o)
 .bss           0x00814f6c        0x0 c:/altera/10.1/nios2eds/bin/gnu/h-i686-mingw32/bin/../lib/gcc/nios2-elf/4.1.2\libgcc.a(_lt_sf.o)
 .bss           0x00814f6c        0x0 c:/altera/10.1/nios2eds/bin/gnu/h-i686-mingw32/bin/../lib/gcc/nios2-elf/4.1.2\libgcc.a(_sf_to_df.o)
 .bss           0x00814f6c        0x0 c:/altera/10.1/nios2eds/bin/gnu/h-i686-mingw32/bin/../lib/gcc/nios2-elf/4.1.2\libgcc.a(_div_df.o)
 .bss           0x00814f6c        0x0 c:/altera/10.1/nios2eds/bin/gnu/h-i686-mingw32/bin/../lib/gcc/nios2-elf/4.1.2\libgcc.a(_gt_df.o)
 .bss           0x00814f6c        0x0 c:/altera/10.1/nios2eds/bin/gnu/h-i686-mingw32/bin/../lib/gcc/nios2-elf/4.1.2\libgcc.a(_lt_df.o)
 .bss           0x00814f6c        0x0 c:/altera/10.1/nios2eds/bin/gnu/h-i686-mingw32/bin/../lib/gcc/nios2-elf/4.1.2\libgcc.a(_si_to_df.o)
 .bss           0x00814f6c        0x0 c:/altera/10.1/nios2eds/bin/gnu/h-i686-mingw32/bin/../lib/gcc/nios2-elf/4.1.2\libgcc.a(_make_df.o)
 .bss           0x00814f6c        0x0 c:/altera/10.1/nios2eds/bin/gnu/h-i686-mingw32/bin/../lib/gcc/nios2-elf/4.1.2\libgcc.a(_df_to_sf.o)
 .bss           0x00814f6c        0x0 c:/altera/10.1/nios2eds/bin/gnu/h-i686-mingw32/bin/../lib/gcc/nios2-elf/4.1.2\libgcc.a(_thenan_df.o)
 .bss           0x00814f6c        0x0 c:/altera/10.1/nios2eds/bin/gnu/h-i686-mingw32/bin/../lib/gcc/nios2-elf/4.1.2\libgcc.a(lib2-divmod.o)
 .bss           0x00814f6c        0x0 c:/altera/10.1/nios2eds/bin/gnu/h-i686-mingw32/bin/../lib/gcc/nios2-elf/4.1.2\libgcc.a(_clzsi2.o)
 .bss           0x00814f6c        0x0 c:/altera/10.1/nios2eds/bin/gnu/h-i686-mingw32/bin/../lib/gcc/nios2-elf/4.1.2\libgcc.a(_unpack_sf.o)
 .bss           0x00814f6c        0x0 c:/altera/10.1/nios2eds/bin/gnu/h-i686-mingw32/bin/../lib/gcc/nios2-elf/4.1.2\libgcc.a(_fpcmp_parts_sf.o)
 .bss           0x00814f6c        0x0 c:/altera/10.1/nios2eds/bin/gnu/h-i686-mingw32/bin/../lib/gcc/nios2-elf/4.1.2\libgcc.a(_make_sf.o)
 .bss           0x00814f6c        0x0 c:/altera/10.1/nios2eds/bin/gnu/h-i686-mingw32/bin/../lib/gcc/nios2-elf/4.1.2\libgcc.a(_pack_df.o)
 .bss           0x00814f6c        0x0 c:/altera/10.1/nios2eds/bin/gnu/h-i686-mingw32/bin/../lib/gcc/nios2-elf/4.1.2\libgcc.a(_unpack_df.o)
 .bss           0x00814f6c        0x0 c:/altera/10.1/nios2eds/bin/gnu/h-i686-mingw32/bin/../lib/gcc/nios2-elf/4.1.2\libgcc.a(_fpcmp_parts_df.o)
 .bss           0x00814f6c        0x0 c:/altera/10.1/nios2eds/bin/gnu/h-i686-mingw32/bin/../lib/gcc/nios2-elf/4.1.2\libgcc.a(_clz.o)
 .bss           0x00814f6c        0x0 c:/altera/10.1/nios2eds/bin/gnu/h-i686-mingw32/bin/../lib/gcc/nios2-elf/4.1.2\libgcc.a(_pack_sf.o)
 .bss           0x00814f6c        0x0 c:/altera/10.1/nios2eds/bin/gnu/h-i686-mingw32/bin/../lib/gcc/nios2-elf/4.1.2/../../../../nios2-elf/lib\libc.a(lib_a-printf.o)
 .bss           0x00814f6c        0x0 c:/altera/10.1/nios2eds/bin/gnu/h-i686-mingw32/bin/../lib/gcc/nios2-elf/4.1.2/../../../../nios2-elf/lib\libc.a(lib_a-putchar.o)
 .bss           0x00814f6c        0x0 c:/altera/10.1/nios2eds/bin/gnu/h-i686-mingw32/bin/../lib/gcc/nios2-elf/4.1.2/../../../../nios2-elf/lib\libc.a(lib_a-rand.o)
 .bss           0x00814f6c        0x0 c:/altera/10.1/nios2eds/bin/gnu/h-i686-mingw32/bin/../lib/gcc/nios2-elf/4.1.2/../../../../nios2-elf/lib\libc.a(lib_a-time.o)
 .bss           0x00814f6c        0x0 c:/altera/10.1/nios2eds/bin/gnu/h-i686-mingw32/bin/../lib/gcc/nios2-elf/4.1.2/../../../../nios2-elf/lib\libc.a(lib_a-vfprintf.o)
 .bss           0x00814f6c        0x0 c:/altera/10.1/nios2eds/bin/gnu/h-i686-mingw32/bin/../lib/gcc/nios2-elf/4.1.2/../../../../nios2-elf/lib\libc.a(lib_a-wsetup.o)
 .bss           0x00814f6c        0x0 c:/altera/10.1/nios2eds/bin/gnu/h-i686-mingw32/bin/../lib/gcc/nios2-elf/4.1.2/../../../../nios2-elf/lib\libc.a(lib_a-dtoa.o)
 .bss           0x00814f6c        0x0 c:/altera/10.1/nios2eds/bin/gnu/h-i686-mingw32/bin/../lib/gcc/nios2-elf/4.1.2/../../../../nios2-elf/lib\libc.a(lib_a-fflush.o)
 .bss           0x00814f6c        0x0 c:/altera/10.1/nios2eds/bin/gnu/h-i686-mingw32/bin/../lib/gcc/nios2-elf/4.1.2/../../../../nios2-elf/lib\libc.a(lib_a-findfp.o)
 .bss           0x00814f6c        0x0 c:/altera/10.1/nios2eds/bin/gnu/h-i686-mingw32/bin/../lib/gcc/nios2-elf/4.1.2/../../../../nios2-elf/lib\libc.a(lib_a-freer.o)
 .bss           0x00814f6c        0x0 c:/altera/10.1/nios2eds/bin/gnu/h-i686-mingw32/bin/../lib/gcc/nios2-elf/4.1.2/../../../../nios2-elf/lib\libc.a(lib_a-fvwrite.o)
 .bss           0x00814f6c        0x0 c:/altera/10.1/nios2eds/bin/gnu/h-i686-mingw32/bin/../lib/gcc/nios2-elf/4.1.2/../../../../nios2-elf/lib\libc.a(lib_a-fwalk.o)
 .bss           0x00814f6c        0x0 c:/altera/10.1/nios2eds/bin/gnu/h-i686-mingw32/bin/../lib/gcc/nios2-elf/4.1.2/../../../../nios2-elf/lib\libc.a(lib_a-gettimeofdayr.o)
 .bss           0x00814f6c        0x0 c:/altera/10.1/nios2eds/bin/gnu/h-i686-mingw32/bin/../lib/gcc/nios2-elf/4.1.2/../../../../nios2-elf/lib\libc.a(lib_a-impure.o)
 .bss           0x00814f6c        0x0 c:/altera/10.1/nios2eds/bin/gnu/h-i686-mingw32/bin/../lib/gcc/nios2-elf/4.1.2/../../../../nios2-elf/lib\libc.a(lib_a-int_errno.o)
 .bss           0x00814f6c        0x0 c:/altera/10.1/nios2eds/bin/gnu/h-i686-mingw32/bin/../lib/gcc/nios2-elf/4.1.2/../../../../nios2-elf/lib\libc.a(lib_a-locale.o)
 .bss           0x00814f6c        0x0 c:/altera/10.1/nios2eds/bin/gnu/h-i686-mingw32/bin/../lib/gcc/nios2-elf/4.1.2/../../../../nios2-elf/lib\libc.a(lib_a-makebuf.o)
 .bss           0x00814f6c       0x28 c:/altera/10.1/nios2eds/bin/gnu/h-i686-mingw32/bin/../lib/gcc/nios2-elf/4.1.2/../../../../nios2-elf/lib\libc.a(lib_a-mallocr.o)
                0x00814f6c                __malloc_current_mallinfo
 .bss           0x00814f94        0x0 c:/altera/10.1/nios2eds/bin/gnu/h-i686-mingw32/bin/../lib/gcc/nios2-elf/4.1.2/../../../../nios2-elf/lib\libc.a(lib_a-memchr.o)
 .bss           0x00814f94        0x0 c:/altera/10.1/nios2eds/bin/gnu/h-i686-mingw32/bin/../lib/gcc/nios2-elf/4.1.2/../../../../nios2-elf/lib\libc.a(lib_a-memcpy.o)
 .bss           0x00814f94        0x0 c:/altera/10.1/nios2eds/bin/gnu/h-i686-mingw32/bin/../lib/gcc/nios2-elf/4.1.2/../../../../nios2-elf/lib\libc.a(lib_a-memmove.o)
 .bss           0x00814f94        0x0 c:/altera/10.1/nios2eds/bin/gnu/h-i686-mingw32/bin/../lib/gcc/nios2-elf/4.1.2/../../../../nios2-elf/lib\libc.a(lib_a-memset.o)
 .bss           0x00814f94        0x0 c:/altera/10.1/nios2eds/bin/gnu/h-i686-mingw32/bin/../lib/gcc/nios2-elf/4.1.2/../../../../nios2-elf/lib\libc.a(lib_a-mprec.o)
 .bss           0x00814f94        0x0 c:/altera/10.1/nios2eds/bin/gnu/h-i686-mingw32/bin/../lib/gcc/nios2-elf/4.1.2/../../../../nios2-elf/lib\libc.a(lib_a-putc.o)
 .bss           0x00814f94        0x0 c:/altera/10.1/nios2eds/bin/gnu/h-i686-mingw32/bin/../lib/gcc/nios2-elf/4.1.2/../../../../nios2-elf/lib\libc.a(lib_a-reallocr.o)
 .bss           0x00814f94        0x0 c:/altera/10.1/nios2eds/bin/gnu/h-i686-mingw32/bin/../lib/gcc/nios2-elf/4.1.2/../../../../nios2-elf/lib\libc.a(lib_a-s_isinfd.o)
 .bss           0x00814f94        0x0 c:/altera/10.1/nios2eds/bin/gnu/h-i686-mingw32/bin/../lib/gcc/nios2-elf/4.1.2/../../../../nios2-elf/lib\libc.a(lib_a-s_isnand.o)
 .bss           0x00814f94        0x0 c:/altera/10.1/nios2eds/bin/gnu/h-i686-mingw32/bin/../lib/gcc/nios2-elf/4.1.2/../../../../nios2-elf/lib\libc.a(lib_a-sbrkr.o)
 .bss           0x00814f94        0x0 c:/altera/10.1/nios2eds/bin/gnu/h-i686-mingw32/bin/../lib/gcc/nios2-elf/4.1.2/../../../../nios2-elf/lib\libc.a(lib_a-stdio.o)
 .bss           0x00814f94        0x0 c:/altera/10.1/nios2eds/bin/gnu/h-i686-mingw32/bin/../lib/gcc/nios2-elf/4.1.2/../../../../nios2-elf/lib\libc.a(lib_a-strcmp.o)
 .bss           0x00814f94        0x0 c:/altera/10.1/nios2eds/bin/gnu/h-i686-mingw32/bin/../lib/gcc/nios2-elf/4.1.2/../../../../nios2-elf/lib\libc.a(lib_a-strlen.o)
 .bss           0x00814f94        0x0 c:/altera/10.1/nios2eds/bin/gnu/h-i686-mingw32/bin/../lib/gcc/nios2-elf/4.1.2/../../../../nios2-elf/lib\libc.a(lib_a-wbuf.o)
 .bss           0x00814f94        0x0 c:/altera/10.1/nios2eds/bin/gnu/h-i686-mingw32/bin/../lib/gcc/nios2-elf/4.1.2/../../../../nios2-elf/lib\libc.a(lib_a-writer.o)
 .bss           0x00814f94        0x0 c:/altera/10.1/nios2eds/bin/gnu/h-i686-mingw32/bin/../lib/gcc/nios2-elf/4.1.2/../../../../nios2-elf/lib\libc.a(lib_a-callocr.o)
 .bss           0x00814f94        0x0 c:/altera/10.1/nios2eds/bin/gnu/h-i686-mingw32/bin/../lib/gcc/nios2-elf/4.1.2/../../../../nios2-elf/lib\libc.a(lib_a-closer.o)
 .bss           0x00814f94        0x0 c:/altera/10.1/nios2eds/bin/gnu/h-i686-mingw32/bin/../lib/gcc/nios2-elf/4.1.2/../../../../nios2-elf/lib\libc.a(lib_a-fclose.o)
 .bss           0x00814f94        0x0 c:/altera/10.1/nios2eds/bin/gnu/h-i686-mingw32/bin/../lib/gcc/nios2-elf/4.1.2/../../../../nios2-elf/lib\libc.a(lib_a-fstatr.o)
 .bss           0x00814f94        0x0 c:/altera/10.1/nios2eds/bin/gnu/h-i686-mingw32/bin/../lib/gcc/nios2-elf/4.1.2/../../../../nios2-elf/lib\libc.a(lib_a-isattyr.o)
 .bss           0x00814f94        0x0 c:/altera/10.1/nios2eds/bin/gnu/h-i686-mingw32/bin/../lib/gcc/nios2-elf/4.1.2/../../../../nios2-elf/lib\libc.a(lib_a-lseekr.o)
 .bss           0x00814f94        0x0 c:/altera/10.1/nios2eds/bin/gnu/h-i686-mingw32/bin/../lib/gcc/nios2-elf/4.1.2/../../../../nios2-elf/lib\libc.a(lib_a-readr.o)
 .bss           0x00814f94        0x0 c:/altera/10.1/nios2eds/bin/gnu/h-i686-mingw32/bin/../lib/gcc/nios2-elf/4.1.2\libgcc.a(_muldi3.o)
 .bss           0x00814f94        0x0 c:/altera/10.1/nios2eds/bin/gnu/h-i686-mingw32/bin/../lib/gcc/nios2-elf/4.1.2\libgcc.a(_udivdi3.o)
 .bss           0x00814f94        0x0 c:/altera/10.1/nios2eds/bin/gnu/h-i686-mingw32/bin/../lib/gcc/nios2-elf/4.1.2\libgcc.a(_umoddi3.o)
 .bss           0x00814f94        0x0 c:/altera/10.1/nios2eds/bin/gnu/h-i686-mingw32/bin/../lib/gcc/nios2-elf/4.1.2\libgcc.a(_addsub_df.o)
 .bss           0x00814f94        0x0 c:/altera/10.1/nios2eds/bin/gnu/h-i686-mingw32/bin/../lib/gcc/nios2-elf/4.1.2\libgcc.a(_mul_df.o)
 .bss           0x00814f94        0x0 c:/altera/10.1/nios2eds/bin/gnu/h-i686-mingw32/bin/../lib/gcc/nios2-elf/4.1.2\libgcc.a(_eq_df.o)
 .bss           0x00814f94        0x0 c:/altera/10.1/nios2eds/bin/gnu/h-i686-mingw32/bin/../lib/gcc/nios2-elf/4.1.2\libgcc.a(_ne_df.o)
 .bss           0x00814f94        0x0 c:/altera/10.1/nios2eds/bin/gnu/h-i686-mingw32/bin/../lib/gcc/nios2-elf/4.1.2\libgcc.a(_ge_df.o)
 .bss           0x00814f94        0x0 c:/altera/10.1/nios2eds/bin/gnu/h-i686-mingw32/bin/../lib/gcc/nios2-elf/4.1.2\libgcc.a(_df_to_si.o)
 .bss           0x00814f94        0x0 c:/altera/10.1/nios2eds/bin/gnu/h-i686-mingw32/bin/../lib/gcc/nios2-elf/4.1.2\libgcc.a(_usi_to_df.o)
 .bss           0x00814f94        0x0 ../helloWorld_bsp\libhal_bsp.a(alt_close.o)
 .bss           0x00814f94        0x0 ../helloWorld_bsp\libhal_bsp.a(alt_dev.o)
 .bss           0x00814f94        0x0 ../helloWorld_bsp\libhal_bsp.a(alt_errno.o)
 .bss           0x00814f94        0x0 ../helloWorld_bsp\libhal_bsp.a(alt_fstat.o)
 .bss           0x00814f94        0x0 ../helloWorld_bsp\libhal_bsp.a(alt_gettod.o)
 .bss           0x00814f94        0x0 ../helloWorld_bsp\libhal_bsp.a(alt_isatty.o)
 .bss           0x00814f94        0x0 ../helloWorld_bsp\libhal_bsp.a(alt_lseek.o)
 .bss           0x00814f94        0x0 ../helloWorld_bsp\libhal_bsp.a(alt_main.o)
 .bss           0x00814f94        0x0 ../helloWorld_bsp\libhal_bsp.a(alt_malloc_lock.o)
 .bss           0x00814f94        0x0 ../helloWorld_bsp\libhal_bsp.a(alt_printf.o)
 .bss           0x00814f94        0x0 ../helloWorld_bsp\libhal_bsp.a(alt_putchar.o)
 .bss           0x00814f94        0x0 ../helloWorld_bsp\libhal_bsp.a(alt_read.o)
 .bss           0x00814f94        0x0 ../helloWorld_bsp\libhal_bsp.a(alt_release_fd.o)
 .bss           0x00814f94        0x0 ../helloWorld_bsp\libhal_bsp.a(alt_sbrk.o)
 .bss           0x00814f94        0x0 ../helloWorld_bsp\libhal_bsp.a(alt_tick.o)
 .bss           0x00814f94        0x0 ../helloWorld_bsp\libhal_bsp.a(alt_usleep.o)
 .bss           0x00814f94        0x0 ../helloWorld_bsp\libhal_bsp.a(alt_write.o)
 .bss           0x00814f94        0x0 ../helloWorld_bsp\libhal_bsp.a(alt_sys_init.o)
 .bss           0x00814f94        0x0 ../helloWorld_bsp\libhal_bsp.a(altera_avalon_cfi_flash.o)
 .bss           0x00814f94        0x0 ../helloWorld_bsp\libhal_bsp.a(altera_avalon_cfi_flash_table.o)
 .bss           0x00814f94        0x0 ../helloWorld_bsp\libhal_bsp.a(altera_avalon_jtag_uart_fd.o)
 .bss           0x00814f94        0x0 ../helloWorld_bsp\libhal_bsp.a(altera_avalon_jtag_uart_init.o)
 .bss           0x00814f94        0x0 ../helloWorld_bsp\libhal_bsp.a(altera_avalon_jtag_uart_ioctl.o)
 .bss           0x00814f94        0x0 ../helloWorld_bsp\libhal_bsp.a(altera_avalon_jtag_uart_read.o)
 .bss           0x00814f94        0x0 ../helloWorld_bsp\libhal_bsp.a(altera_avalon_jtag_uart_write.o)
 .bss           0x00814f94        0x0 ../helloWorld_bsp\libhal_bsp.a(altera_avalon_spi.o)
 .bss           0x00814f94        0x0 ../helloWorld_bsp\libhal_bsp.a(altera_avalon_timer_sc.o)
 .bss           0x00814f94        0x0 ../helloWorld_bsp\libhal_bsp.a(altera_avalon_uart_fd.o)
 .bss           0x00814f94        0x0 ../helloWorld_bsp\libhal_bsp.a(altera_avalon_uart_init.o)
 .bss           0x00814f94        0x0 ../helloWorld_bsp\libhal_bsp.a(altera_avalon_uart_read.o)
 .bss           0x00814f94        0x0 ../helloWorld_bsp\libhal_bsp.a(altera_avalon_uart_write.o)
 .bss           0x00814f94        0x0 ../helloWorld_bsp\libhal_bsp.a(altera_up_avalon_ps2.o)
 .bss           0x00814f94        0x0 ../helloWorld_bsp\libhal_bsp.a(altera_up_avalon_video_character_buffer_with_dma.o)
 .bss           0x00814f94        0x0 ../helloWorld_bsp\libhal_bsp.a(altera_up_ps2_keyboard.o)
 .bss           0x00814f94        0x0 ../helloWorld_bsp\libhal_bsp.a(alt_alarm_start.o)
 .bss           0x00814f94        0x0 ../helloWorld_bsp\libhal_bsp.a(alt_busy_sleep.o)
 .bss           0x00814f94        0x0 ../helloWorld_bsp\libhal_bsp.a(alt_dcache_flush.o)
 .bss           0x00814f94        0x0 ../helloWorld_bsp\libhal_bsp.a(alt_dev_llist_insert.o)
 .bss           0x00814f94        0x0 ../helloWorld_bsp\libhal_bsp.a(alt_do_ctors.o)
 .bss           0x00814f94        0x0 ../helloWorld_bsp\libhal_bsp.a(alt_do_dtors.o)
 .bss           0x00814f94        0x0 ../helloWorld_bsp\libhal_bsp.a(alt_find_dev.o)
 .bss           0x00814f94        0x0 ../helloWorld_bsp\libhal_bsp.a(alt_flash_dev.o)
 .bss           0x00814f94        0x0 ../helloWorld_bsp\libhal_bsp.a(alt_io_redirect.o)
 .bss           0x00814f94        0x0 ../helloWorld_bsp\libhal_bsp.a(alt_irq_register.o)
 .bss           0x00814f94        0x0 ../helloWorld_bsp\libhal_bsp.a(alt_irq_vars.o)
 .bss           0x00814f94        0x0 ../helloWorld_bsp\libhal_bsp.a(alt_open.o)
 .bss           0x00814f94        0x0 ../helloWorld_bsp\libhal_bsp.a(altera_nios2_irq.o)
 .bss           0x00814f94        0x0 ../helloWorld_bsp\libhal_bsp.a(altera_avalon_cfi_flash_amd.o)
 .bss           0x00814f94        0x0 ../helloWorld_bsp\libhal_bsp.a(altera_avalon_cfi_flash_intel.o)
 .bss           0x00814f94        0x0 ../helloWorld_bsp\libhal_bsp.a(alt_find_file.o)
 .bss           0x00814f94        0x0 ../helloWorld_bsp\libhal_bsp.a(alt_get_fd.o)
 .bss           0x00814f94        0x0 ../helloWorld_bsp\libhal_bsp.a(alt_irq_entry.o)
 .bss           0x00814f94        0x0 ../helloWorld_bsp\libhal_bsp.a(alt_irq_handler.o)
 .bss           0x00814f94        0x0 ../helloWorld_bsp\libhal_bsp.a(alt_exception_entry.o)
 .bss           0x00814f94        0x0 c:/altera/10.1/nios2eds/bin/gnu/h-i686-mingw32/bin/../lib/gcc/nios2-elf/4.1.2/../../../../nios2-elf/lib\libc.a(lib_a-atexit.o)
 .bss           0x00814f94        0x0 c:/altera/10.1/nios2eds/bin/gnu/h-i686-mingw32/bin/../lib/gcc/nios2-elf/4.1.2/../../../../nios2-elf/lib\libc.a(lib_a-exit.o)
 .bss           0x00814f94        0x0 c:/altera/10.1/nios2eds/bin/gnu/h-i686-mingw32/bin/../lib/gcc/nios2-elf/4.1.2/../../../../nios2-elf/lib\libc.a(lib_a-memcmp.o)
 .bss           0x00814f94        0x0 c:/altera/10.1/nios2eds/bin/gnu/h-i686-mingw32/bin/../lib/gcc/nios2-elf/4.1.2/../../../../nios2-elf/lib\libc.a(lib_a-strcpy.o)
 .bss           0x00814f94        0x0 c:/altera/10.1/nios2eds/bin/gnu/h-i686-mingw32/bin/../lib/gcc/nios2-elf/4.1.2/../../../../nios2-elf/lib\libc.a(lib_a-__atexit.o)
 .bss           0x00814f94        0x0 c:/altera/10.1/nios2eds/bin/gnu/h-i686-mingw32/bin/../lib/gcc/nios2-elf/4.1.2/../../../../nios2-elf/lib\libc.a(lib_a-__call_atexit.o)
 .bss           0x00814f94        0x0 ../helloWorld_bsp\libhal_bsp.a(alt_exit.o)
 *(COMMON)
 COMMON         0x00814f94     0x1738 obj/hello_world.o
                0x00814f94                snake
                0x00816254                map
 COMMON         0x008166cc      0x100 ../helloWorld_bsp\libhal_bsp.a(alt_irq_handler.o)
                0x008166cc                alt_irq
 COMMON         0x008167cc      0x190 c:/altera/10.1/nios2eds/bin/gnu/h-i686-mingw32/bin/../lib/gcc/nios2-elf/4.1.2/../../../../nios2-elf/lib\libc.a(lib_a-atexit.o)
                0x008167cc                _atexit0
                0x0081695c                . = ALIGN (0x4)
                0x0081695c                __bss_end = ABSOLUTE (.)

.sdram          0x0081695c        0x0
                0x0081695c                PROVIDE (_alt_partition_sdram_start, ABSOLUTE (.))
 *(.sdram. sdram.*)
                0x0081695c                . = ALIGN (0x4)
                0x0081695c                PROVIDE (_alt_partition_sdram_end, ABSOLUTE (.))
                0x0081695c                _end = ABSOLUTE (.)
                0x0081695c                end = ABSOLUTE (.)
                0x0081695c                __alt_stack_base = ABSOLUTE (.)
                0x0081695c                PROVIDE (_alt_partition_sdram_load_addr, LOADADDR (.sdram))

.cfi_flash      0x01400020        0x0
                0x01400020                PROVIDE (_alt_partition_cfi_flash_start, ABSOLUTE (.))
 *(.cfi_flash. cfi_flash.*)
                0x01400020                . = ALIGN (0x4)
                0x01400020                PROVIDE (_alt_partition_cfi_flash_end, ABSOLUTE (.))
                0x01400020                PROVIDE (_alt_partition_cfi_flash_load_addr, LOADADDR (.cfi_flash))

.onchip_memory  0x01800000        0x0
                0x01800000                PROVIDE (_alt_partition_onchip_memory_start, ABSOLUTE (.))
 *(.onchip_memory. onchip_memory.*)
                0x01800000                . = ALIGN (0x4)
                0x01800000                PROVIDE (_alt_partition_onchip_memory_end, ABSOLUTE (.))
                0x01800000                PROVIDE (_alt_partition_onchip_memory_load_addr, LOADADDR (.onchip_memory))

.stab
 *(.stab)

.stabstr
 *(.stabstr)

.stab.excl
 *(.stab.excl)

.stab.exclstr
 *(.stab.exclstr)

.stab.index
 *(.stab.index)

.stab.indexstr
 *(.stab.indexstr)

.comment        0x00000000       0x23
 *(.comment)
 .comment       0x00000000       0x23 obj/hello_world.o
                                 0x24 (size before relaxing)
 .comment       0x00000000       0x24 c:/altera/10.1/nios2eds/bin/gnu/h-i686-mingw32/bin/../lib/gcc/nios2-elf/4.1.2\libgcc.a(_gt_sf.o)
 .comment       0x00000000       0x24 c:/altera/10.1/nios2eds/bin/gnu/h-i686-mingw32/bin/../lib/gcc/nios2-elf/4.1.2\libgcc.a(_lt_sf.o)
 .comment       0x00000000       0x24 c:/altera/10.1/nios2eds/bin/gnu/h-i686-mingw32/bin/../lib/gcc/nios2-elf/4.1.2\libgcc.a(_sf_to_df.o)
 .comment       0x00000000       0x24 c:/altera/10.1/nios2eds/bin/gnu/h-i686-mingw32/bin/../lib/gcc/nios2-elf/4.1.2\libgcc.a(_div_df.o)
 .comment       0x00000000       0x24 c:/altera/10.1/nios2eds/bin/gnu/h-i686-mingw32/bin/../lib/gcc/nios2-elf/4.1.2\libgcc.a(_gt_df.o)
 .comment       0x00000000       0x24 c:/altera/10.1/nios2eds/bin/gnu/h-i686-mingw32/bin/../lib/gcc/nios2-elf/4.1.2\libgcc.a(_lt_df.o)
 .comment       0x00000000       0x24 c:/altera/10.1/nios2eds/bin/gnu/h-i686-mingw32/bin/../lib/gcc/nios2-elf/4.1.2\libgcc.a(_si_to_df.o)
 .comment       0x00000000       0x24 c:/altera/10.1/nios2eds/bin/gnu/h-i686-mingw32/bin/../lib/gcc/nios2-elf/4.1.2\libgcc.a(_make_df.o)
 .comment       0x00000000       0x24 c:/altera/10.1/nios2eds/bin/gnu/h-i686-mingw32/bin/../lib/gcc/nios2-elf/4.1.2\libgcc.a(_df_to_sf.o)
 .comment       0x00000000       0x24 c:/altera/10.1/nios2eds/bin/gnu/h-i686-mingw32/bin/../lib/gcc/nios2-elf/4.1.2\libgcc.a(_thenan_df.o)
 .comment       0x00000000       0x24 c:/altera/10.1/nios2eds/bin/gnu/h-i686-mingw32/bin/../lib/gcc/nios2-elf/4.1.2\libgcc.a(lib2-divmod.o)
 .comment       0x00000000       0x24 c:/altera/10.1/nios2eds/bin/gnu/h-i686-mingw32/bin/../lib/gcc/nios2-elf/4.1.2\libgcc.a(_clzsi2.o)
 .comment       0x00000000       0x24 c:/altera/10.1/nios2eds/bin/gnu/h-i686-mingw32/bin/../lib/gcc/nios2-elf/4.1.2\libgcc.a(_unpack_sf.o)
 .comment       0x00000000       0x24 c:/altera/10.1/nios2eds/bin/gnu/h-i686-mingw32/bin/../lib/gcc/nios2-elf/4.1.2\libgcc.a(_fpcmp_parts_sf.o)
 .comment       0x00000000       0x24 c:/altera/10.1/nios2eds/bin/gnu/h-i686-mingw32/bin/../lib/gcc/nios2-elf/4.1.2\libgcc.a(_make_sf.o)
 .comment       0x00000000       0x24 c:/altera/10.1/nios2eds/bin/gnu/h-i686-mingw32/bin/../lib/gcc/nios2-elf/4.1.2\libgcc.a(_pack_df.o)
 .comment       0x00000000       0x24 c:/altera/10.1/nios2eds/bin/gnu/h-i686-mingw32/bin/../lib/gcc/nios2-elf/4.1.2\libgcc.a(_unpack_df.o)
 .comment       0x00000000       0x24 c:/altera/10.1/nios2eds/bin/gnu/h-i686-mingw32/bin/../lib/gcc/nios2-elf/4.1.2\libgcc.a(_fpcmp_parts_df.o)
 .comment       0x00000000       0x24 c:/altera/10.1/nios2eds/bin/gnu/h-i686-mingw32/bin/../lib/gcc/nios2-elf/4.1.2\libgcc.a(_clz.o)
 .comment       0x00000000       0x24 c:/altera/10.1/nios2eds/bin/gnu/h-i686-mingw32/bin/../lib/gcc/nios2-elf/4.1.2\libgcc.a(_pack_sf.o)
 .comment       0x00000000       0x24 c:/altera/10.1/nios2eds/bin/gnu/h-i686-mingw32/bin/../lib/gcc/nios2-elf/4.1.2/../../../../nios2-elf/lib\libc.a(lib_a-printf.o)
 .comment       0x00000000       0x24 c:/altera/10.1/nios2eds/bin/gnu/h-i686-mingw32/bin/../lib/gcc/nios2-elf/4.1.2/../../../../nios2-elf/lib\libc.a(lib_a-putchar.o)
 .comment       0x00000000       0x24 c:/altera/10.1/nios2eds/bin/gnu/h-i686-mingw32/bin/../lib/gcc/nios2-elf/4.1.2/../../../../nios2-elf/lib\libc.a(lib_a-rand.o)
 .comment       0x00000000       0x24 c:/altera/10.1/nios2eds/bin/gnu/h-i686-mingw32/bin/../lib/gcc/nios2-elf/4.1.2/../../../../nios2-elf/lib\libc.a(lib_a-time.o)
 .comment       0x00000000       0x24 c:/altera/10.1/nios2eds/bin/gnu/h-i686-mingw32/bin/../lib/gcc/nios2-elf/4.1.2/../../../../nios2-elf/lib\libc.a(lib_a-vfprintf.o)
 .comment       0x00000000       0x24 c:/altera/10.1/nios2eds/bin/gnu/h-i686-mingw32/bin/../lib/gcc/nios2-elf/4.1.2/../../../../nios2-elf/lib\libc.a(lib_a-wsetup.o)
 .comment       0x00000000       0x24 c:/altera/10.1/nios2eds/bin/gnu/h-i686-mingw32/bin/../lib/gcc/nios2-elf/4.1.2/../../../../nios2-elf/lib\libc.a(lib_a-dtoa.o)
 .comment       0x00000000       0x24 c:/altera/10.1/nios2eds/bin/gnu/h-i686-mingw32/bin/../lib/gcc/nios2-elf/4.1.2/../../../../nios2-elf/lib\libc.a(lib_a-fflush.o)
 .comment       0x00000000       0x24 c:/altera/10.1/nios2eds/bin/gnu/h-i686-mingw32/bin/../lib/gcc/nios2-elf/4.1.2/../../../../nios2-elf/lib\libc.a(lib_a-findfp.o)
 .comment       0x00000000       0x24 c:/altera/10.1/nios2eds/bin/gnu/h-i686-mingw32/bin/../lib/gcc/nios2-elf/4.1.2/../../../../nios2-elf/lib\libc.a(lib_a-freer.o)
 .comment       0x00000000       0x24 c:/altera/10.1/nios2eds/bin/gnu/h-i686-mingw32/bin/../lib/gcc/nios2-elf/4.1.2/../../../../nios2-elf/lib\libc.a(lib_a-fvwrite.o)
 .comment       0x00000000       0x24 c:/altera/10.1/nios2eds/bin/gnu/h-i686-mingw32/bin/../lib/gcc/nios2-elf/4.1.2/../../../../nios2-elf/lib\libc.a(lib_a-fwalk.o)
 .comment       0x00000000       0x24 c:/altera/10.1/nios2eds/bin/gnu/h-i686-mingw32/bin/../lib/gcc/nios2-elf/4.1.2/../../../../nios2-elf/lib\libc.a(lib_a-gettimeofdayr.o)
 .comment       0x00000000       0x24 c:/altera/10.1/nios2eds/bin/gnu/h-i686-mingw32/bin/../lib/gcc/nios2-elf/4.1.2/../../../../nios2-elf/lib\libc.a(lib_a-impure.o)
 .comment       0x00000000       0x24 c:/altera/10.1/nios2eds/bin/gnu/h-i686-mingw32/bin/../lib/gcc/nios2-elf/4.1.2/../../../../nios2-elf/lib\libc.a(lib_a-int_errno.o)
 .comment       0x00000000       0x24 c:/altera/10.1/nios2eds/bin/gnu/h-i686-mingw32/bin/../lib/gcc/nios2-elf/4.1.2/../../../../nios2-elf/lib\libc.a(lib_a-locale.o)
 .comment       0x00000000       0x24 c:/altera/10.1/nios2eds/bin/gnu/h-i686-mingw32/bin/../lib/gcc/nios2-elf/4.1.2/../../../../nios2-elf/lib\libc.a(lib_a-makebuf.o)
 .comment       0x00000000       0x24 c:/altera/10.1/nios2eds/bin/gnu/h-i686-mingw32/bin/../lib/gcc/nios2-elf/4.1.2/../../../../nios2-elf/lib\libc.a(lib_a-mallocr.o)
 .comment       0x00000000       0x24 c:/altera/10.1/nios2eds/bin/gnu/h-i686-mingw32/bin/../lib/gcc/nios2-elf/4.1.2/../../../../nios2-elf/lib\libc.a(lib_a-memchr.o)
 .comment       0x00000000       0x24 c:/altera/10.1/nios2eds/bin/gnu/h-i686-mingw32/bin/../lib/gcc/nios2-elf/4.1.2/../../../../nios2-elf/lib\libc.a(lib_a-memcpy.o)
 .comment       0x00000000       0x24 c:/altera/10.1/nios2eds/bin/gnu/h-i686-mingw32/bin/../lib/gcc/nios2-elf/4.1.2/../../../../nios2-elf/lib\libc.a(lib_a-memmove.o)
 .comment       0x00000000       0x24 c:/altera/10.1/nios2eds/bin/gnu/h-i686-mingw32/bin/../lib/gcc/nios2-elf/4.1.2/../../../../nios2-elf/lib\libc.a(lib_a-memset.o)
 .comment       0x00000000       0x24 c:/altera/10.1/nios2eds/bin/gnu/h-i686-mingw32/bin/../lib/gcc/nios2-elf/4.1.2/../../../../nios2-elf/lib\libc.a(lib_a-mprec.o)
 .comment       0x00000000       0x24 c:/altera/10.1/nios2eds/bin/gnu/h-i686-mingw32/bin/../lib/gcc/nios2-elf/4.1.2/../../../../nios2-elf/lib\libc.a(lib_a-putc.o)
 .comment       0x00000000       0x24 c:/altera/10.1/nios2eds/bin/gnu/h-i686-mingw32/bin/../lib/gcc/nios2-elf/4.1.2/../../../../nios2-elf/lib\libc.a(lib_a-reallocr.o)
 .comment       0x00000000       0x24 c:/altera/10.1/nios2eds/bin/gnu/h-i686-mingw32/bin/../lib/gcc/nios2-elf/4.1.2/../../../../nios2-elf/lib\libc.a(lib_a-s_isinfd.o)
 .comment       0x00000000       0x24 c:/altera/10.1/nios2eds/bin/gnu/h-i686-mingw32/bin/../lib/gcc/nios2-elf/4.1.2/../../../../nios2-elf/lib\libc.a(lib_a-s_isnand.o)
 .comment       0x00000000       0x24 c:/altera/10.1/nios2eds/bin/gnu/h-i686-mingw32/bin/../lib/gcc/nios2-elf/4.1.2/../../../../nios2-elf/lib\libc.a(lib_a-sbrkr.o)
 .comment       0x00000000       0x24 c:/altera/10.1/nios2eds/bin/gnu/h-i686-mingw32/bin/../lib/gcc/nios2-elf/4.1.2/../../../../nios2-elf/lib\libc.a(lib_a-stdio.o)
 .comment       0x00000000       0x24 c:/altera/10.1/nios2eds/bin/gnu/h-i686-mingw32/bin/../lib/gcc/nios2-elf/4.1.2/../../../../nios2-elf/lib\libc.a(lib_a-strcmp.o)
 .comment       0x00000000       0x24 c:/altera/10.1/nios2eds/bin/gnu/h-i686-mingw32/bin/../lib/gcc/nios2-elf/4.1.2/../../../../nios2-elf/lib\libc.a(lib_a-strlen.o)
 .comment       0x00000000       0x24 c:/altera/10.1/nios2eds/bin/gnu/h-i686-mingw32/bin/../lib/gcc/nios2-elf/4.1.2/../../../../nios2-elf/lib\libc.a(lib_a-wbuf.o)
 .comment       0x00000000       0x24 c:/altera/10.1/nios2eds/bin/gnu/h-i686-mingw32/bin/../lib/gcc/nios2-elf/4.1.2/../../../../nios2-elf/lib\libc.a(lib_a-writer.o)
 .comment       0x00000000       0x24 c:/altera/10.1/nios2eds/bin/gnu/h-i686-mingw32/bin/../lib/gcc/nios2-elf/4.1.2/../../../../nios2-elf/lib\libc.a(lib_a-callocr.o)
 .comment       0x00000000       0x24 c:/altera/10.1/nios2eds/bin/gnu/h-i686-mingw32/bin/../lib/gcc/nios2-elf/4.1.2/../../../../nios2-elf/lib\libc.a(lib_a-closer.o)
 .comment       0x00000000       0x24 c:/altera/10.1/nios2eds/bin/gnu/h-i686-mingw32/bin/../lib/gcc/nios2-elf/4.1.2/../../../../nios2-elf/lib\libc.a(lib_a-fclose.o)
 .comment       0x00000000       0x24 c:/altera/10.1/nios2eds/bin/gnu/h-i686-mingw32/bin/../lib/gcc/nios2-elf/4.1.2/../../../../nios2-elf/lib\libc.a(lib_a-fstatr.o)
 .comment       0x00000000       0x24 c:/altera/10.1/nios2eds/bin/gnu/h-i686-mingw32/bin/../lib/gcc/nios2-elf/4.1.2/../../../../nios2-elf/lib\libc.a(lib_a-isattyr.o)
 .comment       0x00000000       0x24 c:/altera/10.1/nios2eds/bin/gnu/h-i686-mingw32/bin/../lib/gcc/nios2-elf/4.1.2/../../../../nios2-elf/lib\libc.a(lib_a-lseekr.o)
 .comment       0x00000000       0x24 c:/altera/10.1/nios2eds/bin/gnu/h-i686-mingw32/bin/../lib/gcc/nios2-elf/4.1.2/../../../../nios2-elf/lib\libc.a(lib_a-readr.o)
 .comment       0x00000000       0x24 c:/altera/10.1/nios2eds/bin/gnu/h-i686-mingw32/bin/../lib/gcc/nios2-elf/4.1.2\libgcc.a(_muldi3.o)
 .comment       0x00000000       0x24 c:/altera/10.1/nios2eds/bin/gnu/h-i686-mingw32/bin/../lib/gcc/nios2-elf/4.1.2\libgcc.a(_udivdi3.o)
 .comment       0x00000000       0x24 c:/altera/10.1/nios2eds/bin/gnu/h-i686-mingw32/bin/../lib/gcc/nios2-elf/4.1.2\libgcc.a(_umoddi3.o)
 .comment       0x00000000       0x24 c:/altera/10.1/nios2eds/bin/gnu/h-i686-mingw32/bin/../lib/gcc/nios2-elf/4.1.2\libgcc.a(_addsub_df.o)
 .comment       0x00000000       0x24 c:/altera/10.1/nios2eds/bin/gnu/h-i686-mingw32/bin/../lib/gcc/nios2-elf/4.1.2\libgcc.a(_mul_df.o)
 .comment       0x00000000       0x24 c:/altera/10.1/nios2eds/bin/gnu/h-i686-mingw32/bin/../lib/gcc/nios2-elf/4.1.2\libgcc.a(_eq_df.o)
 .comment       0x00000000       0x24 c:/altera/10.1/nios2eds/bin/gnu/h-i686-mingw32/bin/../lib/gcc/nios2-elf/4.1.2\libgcc.a(_ne_df.o)
 .comment       0x00000000       0x24 c:/altera/10.1/nios2eds/bin/gnu/h-i686-mingw32/bin/../lib/gcc/nios2-elf/4.1.2\libgcc.a(_ge_df.o)
 .comment       0x00000000       0x24 c:/altera/10.1/nios2eds/bin/gnu/h-i686-mingw32/bin/../lib/gcc/nios2-elf/4.1.2\libgcc.a(_df_to_si.o)
 .comment       0x00000000       0x24 c:/altera/10.1/nios2eds/bin/gnu/h-i686-mingw32/bin/../lib/gcc/nios2-elf/4.1.2\libgcc.a(_usi_to_df.o)
 .comment       0x00000000       0x24 ../helloWorld_bsp\libhal_bsp.a(alt_close.o)
 .comment       0x00000000       0x24 ../helloWorld_bsp\libhal_bsp.a(alt_dev.o)
 .comment       0x00000000       0x24 ../helloWorld_bsp\libhal_bsp.a(alt_errno.o)
 .comment       0x00000000       0x24 ../helloWorld_bsp\libhal_bsp.a(alt_fstat.o)
 .comment       0x00000000       0x24 ../helloWorld_bsp\libhal_bsp.a(alt_gettod.o)
 .comment       0x00000000       0x24 ../helloWorld_bsp\libhal_bsp.a(alt_isatty.o)
 .comment       0x00000000       0x24 ../helloWorld_bsp\libhal_bsp.a(alt_lseek.o)
 .comment       0x00000000       0x24 ../helloWorld_bsp\libhal_bsp.a(alt_main.o)
 .comment       0x00000000       0x24 ../helloWorld_bsp\libhal_bsp.a(alt_malloc_lock.o)
 .comment       0x00000000       0x24 ../helloWorld_bsp\libhal_bsp.a(alt_printf.o)
 .comment       0x00000000       0x24 ../helloWorld_bsp\libhal_bsp.a(alt_putchar.o)
 .comment       0x00000000       0x24 ../helloWorld_bsp\libhal_bsp.a(alt_read.o)
 .comment       0x00000000       0x24 ../helloWorld_bsp\libhal_bsp.a(alt_release_fd.o)
 .comment       0x00000000       0x24 ../helloWorld_bsp\libhal_bsp.a(alt_sbrk.o)
 .comment       0x00000000       0x24 ../helloWorld_bsp\libhal_bsp.a(alt_tick.o)
 .comment       0x00000000       0x24 ../helloWorld_bsp\libhal_bsp.a(alt_usleep.o)
 .comment       0x00000000       0x24 ../helloWorld_bsp\libhal_bsp.a(alt_write.o)
 .comment       0x00000000       0x24 ../helloWorld_bsp\libhal_bsp.a(alt_sys_init.o)
 .comment       0x00000000       0x24 ../helloWorld_bsp\libhal_bsp.a(altera_avalon_cfi_flash.o)
 .comment       0x00000000       0x24 ../helloWorld_bsp\libhal_bsp.a(altera_avalon_cfi_flash_table.o)
 .comment       0x00000000       0x24 ../helloWorld_bsp\libhal_bsp.a(altera_avalon_jtag_uart_fd.o)
 .comment       0x00000000       0x24 ../helloWorld_bsp\libhal_bsp.a(altera_avalon_jtag_uart_init.o)
 .comment       0x00000000       0x24 ../helloWorld_bsp\libhal_bsp.a(altera_avalon_jtag_uart_ioctl.o)
 .comment       0x00000000       0x24 ../helloWorld_bsp\libhal_bsp.a(altera_avalon_jtag_uart_read.o)
 .comment       0x00000000       0x24 ../helloWorld_bsp\libhal_bsp.a(altera_avalon_jtag_uart_write.o)
 .comment       0x00000000       0x24 ../helloWorld_bsp\libhal_bsp.a(altera_avalon_spi.o)
 .comment       0x00000000       0x24 ../helloWorld_bsp\libhal_bsp.a(altera_avalon_timer_sc.o)
 .comment       0x00000000       0x24 ../helloWorld_bsp\libhal_bsp.a(altera_avalon_uart_fd.o)
 .comment       0x00000000       0x24 ../helloWorld_bsp\libhal_bsp.a(altera_avalon_uart_init.o)
 .comment       0x00000000       0x24 ../helloWorld_bsp\libhal_bsp.a(altera_avalon_uart_read.o)
 .comment       0x00000000       0x24 ../helloWorld_bsp\libhal_bsp.a(altera_avalon_uart_write.o)
 .comment       0x00000000       0x24 ../helloWorld_bsp\libhal_bsp.a(altera_up_avalon_ps2.o)
 .comment       0x00000000       0x24 ../helloWorld_bsp\libhal_bsp.a(altera_up_avalon_video_character_buffer_with_dma.o)
 .comment       0x00000000       0x24 ../helloWorld_bsp\libhal_bsp.a(altera_up_ps2_keyboard.o)
 .comment       0x00000000       0x24 ../helloWorld_bsp\libhal_bsp.a(alt_alarm_start.o)
 .comment       0x00000000       0x24 ../helloWorld_bsp\libhal_bsp.a(alt_busy_sleep.o)
 .comment       0x00000000       0x24 ../helloWorld_bsp\libhal_bsp.a(alt_dcache_flush.o)
 .comment       0x00000000       0x24 ../helloWorld_bsp\libhal_bsp.a(alt_dev_llist_insert.o)
 .comment       0x00000000       0x24 ../helloWorld_bsp\libhal_bsp.a(alt_do_ctors.o)
 .comment       0x00000000       0x24 ../helloWorld_bsp\libhal_bsp.a(alt_do_dtors.o)
 .comment       0x00000000       0x24 ../helloWorld_bsp\libhal_bsp.a(alt_find_dev.o)
 .comment       0x00000000       0x24 ../helloWorld_bsp\libhal_bsp.a(alt_flash_dev.o)
 .comment       0x00000000       0x24 ../helloWorld_bsp\libhal_bsp.a(alt_io_redirect.o)
 .comment       0x00000000       0x24 ../helloWorld_bsp\libhal_bsp.a(alt_irq_register.o)
 .comment       0x00000000       0x24 ../helloWorld_bsp\libhal_bsp.a(alt_irq_vars.o)
 .comment       0x00000000       0x24 ../helloWorld_bsp\libhal_bsp.a(alt_open.o)
 .comment       0x00000000       0x24 ../helloWorld_bsp\libhal_bsp.a(altera_nios2_irq.o)
 .comment       0x00000000       0x24 ../helloWorld_bsp\libhal_bsp.a(altera_avalon_cfi_flash_amd.o)
 .comment       0x00000000       0x24 ../helloWorld_bsp\libhal_bsp.a(altera_avalon_cfi_flash_intel.o)
 .comment       0x00000000       0x24 ../helloWorld_bsp\libhal_bsp.a(alt_find_file.o)
 .comment       0x00000000       0x24 ../helloWorld_bsp\libhal_bsp.a(alt_get_fd.o)
 .comment       0x00000000       0x24 ../helloWorld_bsp\libhal_bsp.a(alt_irq_handler.o)
 .comment       0x00000000       0x24 c:/altera/10.1/nios2eds/bin/gnu/h-i686-mingw32/bin/../lib/gcc/nios2-elf/4.1.2/../../../../nios2-elf/lib\libc.a(lib_a-atexit.o)
 .comment       0x00000000       0x24 c:/altera/10.1/nios2eds/bin/gnu/h-i686-mingw32/bin/../lib/gcc/nios2-elf/4.1.2/../../../../nios2-elf/lib\libc.a(lib_a-exit.o)
 .comment       0x00000000       0x24 c:/altera/10.1/nios2eds/bin/gnu/h-i686-mingw32/bin/../lib/gcc/nios2-elf/4.1.2/../../../../nios2-elf/lib\libc.a(lib_a-memcmp.o)
 .comment       0x00000000       0x24 c:/altera/10.1/nios2eds/bin/gnu/h-i686-mingw32/bin/../lib/gcc/nios2-elf/4.1.2/../../../../nios2-elf/lib\libc.a(lib_a-strcpy.o)
 .comment       0x00000000       0x24 c:/altera/10.1/nios2eds/bin/gnu/h-i686-mingw32/bin/../lib/gcc/nios2-elf/4.1.2/../../../../nios2-elf/lib\libc.a(lib_a-__atexit.o)
 .comment       0x00000000       0x24 c:/altera/10.1/nios2eds/bin/gnu/h-i686-mingw32/bin/../lib/gcc/nios2-elf/4.1.2/../../../../nios2-elf/lib\libc.a(lib_a-__call_atexit.o)
 .comment       0x00000000       0x24 ../helloWorld_bsp\libhal_bsp.a(alt_exit.o)

.debug
 *(.debug)

.line
 *(.line)

.debug_srcinfo
 *(.debug_srcinfo)

.debug_sfnames
 *(.debug_sfnames)

.debug_aranges  0x00000000     0x1010
 *(.debug_aranges)
 .debug_aranges
                0x00000000       0x20 ../helloWorld_bsp/obj/HAL/src/crt0.o
 .debug_aranges
                0x00000020       0x20 obj/hello_world.o
 .debug_aranges
                0x00000040       0x20 c:/altera/10.1/nios2eds/bin/gnu/h-i686-mingw32/bin/../lib/gcc/nios2-elf/4.1.2\libgcc.a(_gt_sf.o)
 .debug_aranges
                0x00000060       0x20 c:/altera/10.1/nios2eds/bin/gnu/h-i686-mingw32/bin/../lib/gcc/nios2-elf/4.1.2\libgcc.a(_lt_sf.o)
 .debug_aranges
                0x00000080       0x20 c:/altera/10.1/nios2eds/bin/gnu/h-i686-mingw32/bin/../lib/gcc/nios2-elf/4.1.2\libgcc.a(_sf_to_df.o)
 .debug_aranges
                0x000000a0       0x20 c:/altera/10.1/nios2eds/bin/gnu/h-i686-mingw32/bin/../lib/gcc/nios2-elf/4.1.2\libgcc.a(_div_df.o)
 .debug_aranges
                0x000000c0       0x20 c:/altera/10.1/nios2eds/bin/gnu/h-i686-mingw32/bin/../lib/gcc/nios2-elf/4.1.2\libgcc.a(_gt_df.o)
 .debug_aranges
                0x000000e0       0x20 c:/altera/10.1/nios2eds/bin/gnu/h-i686-mingw32/bin/../lib/gcc/nios2-elf/4.1.2\libgcc.a(_lt_df.o)
 .debug_aranges
                0x00000100       0x20 c:/altera/10.1/nios2eds/bin/gnu/h-i686-mingw32/bin/../lib/gcc/nios2-elf/4.1.2\libgcc.a(_si_to_df.o)
 .debug_aranges
                0x00000120       0x20 c:/altera/10.1/nios2eds/bin/gnu/h-i686-mingw32/bin/../lib/gcc/nios2-elf/4.1.2\libgcc.a(_make_df.o)
 .debug_aranges
                0x00000140       0x20 c:/altera/10.1/nios2eds/bin/gnu/h-i686-mingw32/bin/../lib/gcc/nios2-elf/4.1.2\libgcc.a(_df_to_sf.o)
 .debug_aranges
                0x00000160       0x20 c:/altera/10.1/nios2eds/bin/gnu/h-i686-mingw32/bin/../lib/gcc/nios2-elf/4.1.2\libgcc.a(lib2-divmod.o)
 .debug_aranges
                0x00000180       0x20 c:/altera/10.1/nios2eds/bin/gnu/h-i686-mingw32/bin/../lib/gcc/nios2-elf/4.1.2\libgcc.a(_clzsi2.o)
 .debug_aranges
                0x000001a0       0x20 c:/altera/10.1/nios2eds/bin/gnu/h-i686-mingw32/bin/../lib/gcc/nios2-elf/4.1.2\libgcc.a(_unpack_sf.o)
 .debug_aranges
                0x000001c0       0x20 c:/altera/10.1/nios2eds/bin/gnu/h-i686-mingw32/bin/../lib/gcc/nios2-elf/4.1.2\libgcc.a(_fpcmp_parts_sf.o)
 .debug_aranges
                0x000001e0       0x20 c:/altera/10.1/nios2eds/bin/gnu/h-i686-mingw32/bin/../lib/gcc/nios2-elf/4.1.2\libgcc.a(_make_sf.o)
 .debug_aranges
                0x00000200       0x20 c:/altera/10.1/nios2eds/bin/gnu/h-i686-mingw32/bin/../lib/gcc/nios2-elf/4.1.2\libgcc.a(_pack_df.o)
 .debug_aranges
                0x00000220       0x20 c:/altera/10.1/nios2eds/bin/gnu/h-i686-mingw32/bin/../lib/gcc/nios2-elf/4.1.2\libgcc.a(_unpack_df.o)
 .debug_aranges
                0x00000240       0x20 c:/altera/10.1/nios2eds/bin/gnu/h-i686-mingw32/bin/../lib/gcc/nios2-elf/4.1.2\libgcc.a(_fpcmp_parts_df.o)
 .debug_aranges
                0x00000260       0x20 c:/altera/10.1/nios2eds/bin/gnu/h-i686-mingw32/bin/../lib/gcc/nios2-elf/4.1.2\libgcc.a(_pack_sf.o)
 .debug_aranges
                0x00000280       0x20 c:/altera/10.1/nios2eds/bin/gnu/h-i686-mingw32/bin/../lib/gcc/nios2-elf/4.1.2/../../../../nios2-elf/lib\libc.a(lib_a-printf.o)
 .debug_aranges
                0x000002a0       0x20 c:/altera/10.1/nios2eds/bin/gnu/h-i686-mingw32/bin/../lib/gcc/nios2-elf/4.1.2/../../../../nios2-elf/lib\libc.a(lib_a-putchar.o)
 .debug_aranges
                0x000002c0       0x20 c:/altera/10.1/nios2eds/bin/gnu/h-i686-mingw32/bin/../lib/gcc/nios2-elf/4.1.2/../../../../nios2-elf/lib\libc.a(lib_a-rand.o)
 .debug_aranges
                0x000002e0       0x20 c:/altera/10.1/nios2eds/bin/gnu/h-i686-mingw32/bin/../lib/gcc/nios2-elf/4.1.2/../../../../nios2-elf/lib\libc.a(lib_a-time.o)
 .debug_aranges
                0x00000300       0x20 c:/altera/10.1/nios2eds/bin/gnu/h-i686-mingw32/bin/../lib/gcc/nios2-elf/4.1.2/../../../../nios2-elf/lib\libc.a(lib_a-vfprintf.o)
 .debug_aranges
                0x00000320       0x20 c:/altera/10.1/nios2eds/bin/gnu/h-i686-mingw32/bin/../lib/gcc/nios2-elf/4.1.2/../../../../nios2-elf/lib\libc.a(lib_a-wsetup.o)
 .debug_aranges
                0x00000340       0x20 c:/altera/10.1/nios2eds/bin/gnu/h-i686-mingw32/bin/../lib/gcc/nios2-elf/4.1.2/../../../../nios2-elf/lib\libc.a(lib_a-dtoa.o)
 .debug_aranges
                0x00000360       0x20 c:/altera/10.1/nios2eds/bin/gnu/h-i686-mingw32/bin/../lib/gcc/nios2-elf/4.1.2/../../../../nios2-elf/lib\libc.a(lib_a-fflush.o)
 .debug_aranges
                0x00000380       0x20 c:/altera/10.1/nios2eds/bin/gnu/h-i686-mingw32/bin/../lib/gcc/nios2-elf/4.1.2/../../../../nios2-elf/lib\libc.a(lib_a-findfp.o)
 .debug_aranges
                0x000003a0       0x20 c:/altera/10.1/nios2eds/bin/gnu/h-i686-mingw32/bin/../lib/gcc/nios2-elf/4.1.2/../../../../nios2-elf/lib\libc.a(lib_a-freer.o)
 .debug_aranges
                0x000003c0       0x20 c:/altera/10.1/nios2eds/bin/gnu/h-i686-mingw32/bin/../lib/gcc/nios2-elf/4.1.2/../../../../nios2-elf/lib\libc.a(lib_a-fvwrite.o)
 .debug_aranges
                0x000003e0       0x20 c:/altera/10.1/nios2eds/bin/gnu/h-i686-mingw32/bin/../lib/gcc/nios2-elf/4.1.2/../../../../nios2-elf/lib\libc.a(lib_a-fwalk.o)
 .debug_aranges
                0x00000400       0x20 c:/altera/10.1/nios2eds/bin/gnu/h-i686-mingw32/bin/../lib/gcc/nios2-elf/4.1.2/../../../../nios2-elf/lib\libc.a(lib_a-gettimeofdayr.o)
 .debug_aranges
                0x00000420       0x20 c:/altera/10.1/nios2eds/bin/gnu/h-i686-mingw32/bin/../lib/gcc/nios2-elf/4.1.2/../../../../nios2-elf/lib\libc.a(lib_a-locale.o)
 .debug_aranges
                0x00000440       0x20 c:/altera/10.1/nios2eds/bin/gnu/h-i686-mingw32/bin/../lib/gcc/nios2-elf/4.1.2/../../../../nios2-elf/lib\libc.a(lib_a-makebuf.o)
 .debug_aranges
                0x00000460       0x20 c:/altera/10.1/nios2eds/bin/gnu/h-i686-mingw32/bin/../lib/gcc/nios2-elf/4.1.2/../../../../nios2-elf/lib\libc.a(lib_a-mallocr.o)
 .debug_aranges
                0x00000480       0x20 c:/altera/10.1/nios2eds/bin/gnu/h-i686-mingw32/bin/../lib/gcc/nios2-elf/4.1.2/../../../../nios2-elf/lib\libc.a(lib_a-memchr.o)
 .debug_aranges
                0x000004a0       0x20 c:/altera/10.1/nios2eds/bin/gnu/h-i686-mingw32/bin/../lib/gcc/nios2-elf/4.1.2/../../../../nios2-elf/lib\libc.a(lib_a-memcpy.o)
 .debug_aranges
                0x000004c0       0x20 c:/altera/10.1/nios2eds/bin/gnu/h-i686-mingw32/bin/../lib/gcc/nios2-elf/4.1.2/../../../../nios2-elf/lib\libc.a(lib_a-memmove.o)
 .debug_aranges
                0x000004e0       0x20 c:/altera/10.1/nios2eds/bin/gnu/h-i686-mingw32/bin/../lib/gcc/nios2-elf/4.1.2/../../../../nios2-elf/lib\libc.a(lib_a-memset.o)
 .debug_aranges
                0x00000500       0x20 c:/altera/10.1/nios2eds/bin/gnu/h-i686-mingw32/bin/../lib/gcc/nios2-elf/4.1.2/../../../../nios2-elf/lib\libc.a(lib_a-mprec.o)
 .debug_aranges
                0x00000520       0x20 c:/altera/10.1/nios2eds/bin/gnu/h-i686-mingw32/bin/../lib/gcc/nios2-elf/4.1.2/../../../../nios2-elf/lib\libc.a(lib_a-putc.o)
 .debug_aranges
                0x00000540       0x20 c:/altera/10.1/nios2eds/bin/gnu/h-i686-mingw32/bin/../lib/gcc/nios2-elf/4.1.2/../../../../nios2-elf/lib\libc.a(lib_a-reallocr.o)
 .debug_aranges
                0x00000560       0x20 c:/altera/10.1/nios2eds/bin/gnu/h-i686-mingw32/bin/../lib/gcc/nios2-elf/4.1.2/../../../../nios2-elf/lib\libc.a(lib_a-s_isinfd.o)
 .debug_aranges
                0x00000580       0x20 c:/altera/10.1/nios2eds/bin/gnu/h-i686-mingw32/bin/../lib/gcc/nios2-elf/4.1.2/../../../../nios2-elf/lib\libc.a(lib_a-s_isnand.o)
 .debug_aranges
                0x000005a0       0x20 c:/altera/10.1/nios2eds/bin/gnu/h-i686-mingw32/bin/../lib/gcc/nios2-elf/4.1.2/../../../../nios2-elf/lib\libc.a(lib_a-sbrkr.o)
 .debug_aranges
                0x000005c0       0x20 c:/altera/10.1/nios2eds/bin/gnu/h-i686-mingw32/bin/../lib/gcc/nios2-elf/4.1.2/../../../../nios2-elf/lib\libc.a(lib_a-stdio.o)
 .debug_aranges
                0x000005e0       0x20 c:/altera/10.1/nios2eds/bin/gnu/h-i686-mingw32/bin/../lib/gcc/nios2-elf/4.1.2/../../../../nios2-elf/lib\libc.a(lib_a-strcmp.o)
 .debug_aranges
                0x00000600       0x20 c:/altera/10.1/nios2eds/bin/gnu/h-i686-mingw32/bin/../lib/gcc/nios2-elf/4.1.2/../../../../nios2-elf/lib\libc.a(lib_a-strlen.o)
 .debug_aranges
                0x00000620       0x20 c:/altera/10.1/nios2eds/bin/gnu/h-i686-mingw32/bin/../lib/gcc/nios2-elf/4.1.2/../../../../nios2-elf/lib\libc.a(lib_a-wbuf.o)
 .debug_aranges
                0x00000640       0x20 c:/altera/10.1/nios2eds/bin/gnu/h-i686-mingw32/bin/../lib/gcc/nios2-elf/4.1.2/../../../../nios2-elf/lib\libc.a(lib_a-writer.o)
 .debug_aranges
                0x00000660       0x20 c:/altera/10.1/nios2eds/bin/gnu/h-i686-mingw32/bin/../lib/gcc/nios2-elf/4.1.2/../../../../nios2-elf/lib\libc.a(lib_a-callocr.o)
 .debug_aranges
                0x00000680       0x20 c:/altera/10.1/nios2eds/bin/gnu/h-i686-mingw32/bin/../lib/gcc/nios2-elf/4.1.2/../../../../nios2-elf/lib\libc.a(lib_a-closer.o)
 .debug_aranges
                0x000006a0       0x20 c:/altera/10.1/nios2eds/bin/gnu/h-i686-mingw32/bin/../lib/gcc/nios2-elf/4.1.2/../../../../nios2-elf/lib\libc.a(lib_a-fclose.o)
 .debug_aranges
                0x000006c0       0x20 c:/altera/10.1/nios2eds/bin/gnu/h-i686-mingw32/bin/../lib/gcc/nios2-elf/4.1.2/../../../../nios2-elf/lib\libc.a(lib_a-fstatr.o)
 .debug_aranges
                0x000006e0       0x20 c:/altera/10.1/nios2eds/bin/gnu/h-i686-mingw32/bin/../lib/gcc/nios2-elf/4.1.2/../../../../nios2-elf/lib\libc.a(lib_a-isattyr.o)
 .debug_aranges
                0x00000700       0x20 c:/altera/10.1/nios2eds/bin/gnu/h-i686-mingw32/bin/../lib/gcc/nios2-elf/4.1.2/../../../../nios2-elf/lib\libc.a(lib_a-lseekr.o)
 .debug_aranges
                0x00000720       0x20 c:/altera/10.1/nios2eds/bin/gnu/h-i686-mingw32/bin/../lib/gcc/nios2-elf/4.1.2/../../../../nios2-elf/lib\libc.a(lib_a-readr.o)
 .debug_aranges
                0x00000740       0x20 c:/altera/10.1/nios2eds/bin/gnu/h-i686-mingw32/bin/../lib/gcc/nios2-elf/4.1.2\libgcc.a(_muldi3.o)
 .debug_aranges
                0x00000760       0x20 c:/altera/10.1/nios2eds/bin/gnu/h-i686-mingw32/bin/../lib/gcc/nios2-elf/4.1.2\libgcc.a(_udivdi3.o)
 .debug_aranges
                0x00000780       0x20 c:/altera/10.1/nios2eds/bin/gnu/h-i686-mingw32/bin/../lib/gcc/nios2-elf/4.1.2\libgcc.a(_umoddi3.o)
 .debug_aranges
                0x000007a0       0x20 c:/altera/10.1/nios2eds/bin/gnu/h-i686-mingw32/bin/../lib/gcc/nios2-elf/4.1.2\libgcc.a(_addsub_df.o)
 .debug_aranges
                0x000007c0       0x20 c:/altera/10.1/nios2eds/bin/gnu/h-i686-mingw32/bin/../lib/gcc/nios2-elf/4.1.2\libgcc.a(_mul_df.o)
 .debug_aranges
                0x000007e0       0x20 c:/altera/10.1/nios2eds/bin/gnu/h-i686-mingw32/bin/../lib/gcc/nios2-elf/4.1.2\libgcc.a(_eq_df.o)
 .debug_aranges
                0x00000800       0x20 c:/altera/10.1/nios2eds/bin/gnu/h-i686-mingw32/bin/../lib/gcc/nios2-elf/4.1.2\libgcc.a(_ne_df.o)
 .debug_aranges
                0x00000820       0x20 c:/altera/10.1/nios2eds/bin/gnu/h-i686-mingw32/bin/../lib/gcc/nios2-elf/4.1.2\libgcc.a(_ge_df.o)
 .debug_aranges
                0x00000840       0x20 c:/altera/10.1/nios2eds/bin/gnu/h-i686-mingw32/bin/../lib/gcc/nios2-elf/4.1.2\libgcc.a(_df_to_si.o)
 .debug_aranges
                0x00000860       0x20 c:/altera/10.1/nios2eds/bin/gnu/h-i686-mingw32/bin/../lib/gcc/nios2-elf/4.1.2\libgcc.a(_usi_to_df.o)
 .debug_aranges
                0x00000880       0x20 ../helloWorld_bsp\libhal_bsp.a(alt_close.o)
 .debug_aranges
                0x000008a0       0x20 ../helloWorld_bsp\libhal_bsp.a(alt_dev.o)
 .debug_aranges
                0x000008c0       0x20 ../helloWorld_bsp\libhal_bsp.a(alt_fstat.o)
 .debug_aranges
                0x000008e0       0x20 ../helloWorld_bsp\libhal_bsp.a(alt_gettod.o)
 .debug_aranges
                0x00000900       0x20 ../helloWorld_bsp\libhal_bsp.a(alt_isatty.o)
 .debug_aranges
                0x00000920       0x20 ../helloWorld_bsp\libhal_bsp.a(alt_lseek.o)
 .debug_aranges
                0x00000940       0x20 ../helloWorld_bsp\libhal_bsp.a(alt_main.o)
 .debug_aranges
                0x00000960       0x20 ../helloWorld_bsp\libhal_bsp.a(alt_malloc_lock.o)
 .debug_aranges
                0x00000980       0x20 ../helloWorld_bsp\libhal_bsp.a(alt_printf.o)
 .debug_aranges
                0x000009a0       0x20 ../helloWorld_bsp\libhal_bsp.a(alt_putchar.o)
 .debug_aranges
                0x000009c0       0x20 ../helloWorld_bsp\libhal_bsp.a(alt_read.o)
 .debug_aranges
                0x000009e0       0x20 ../helloWorld_bsp\libhal_bsp.a(alt_release_fd.o)
 .debug_aranges
                0x00000a00       0x20 ../helloWorld_bsp\libhal_bsp.a(alt_sbrk.o)
 .debug_aranges
                0x00000a20       0x20 ../helloWorld_bsp\libhal_bsp.a(alt_tick.o)
 .debug_aranges
                0x00000a40       0x20 ../helloWorld_bsp\libhal_bsp.a(alt_usleep.o)
 .debug_aranges
                0x00000a60       0x20 ../helloWorld_bsp\libhal_bsp.a(alt_write.o)
 .debug_aranges
                0x00000a80       0x20 ../helloWorld_bsp\libhal_bsp.a(alt_sys_init.o)
 .debug_aranges
                0x00000aa0       0x20 ../helloWorld_bsp\libhal_bsp.a(altera_avalon_cfi_flash.o)
 .debug_aranges
                0x00000ac0       0x20 ../helloWorld_bsp\libhal_bsp.a(altera_avalon_cfi_flash_table.o)
 .debug_aranges
                0x00000ae0       0x20 ../helloWorld_bsp\libhal_bsp.a(altera_avalon_jtag_uart_fd.o)
 .debug_aranges
                0x00000b00       0x20 ../helloWorld_bsp\libhal_bsp.a(altera_avalon_jtag_uart_init.o)
 .debug_aranges
                0x00000b20       0x20 ../helloWorld_bsp\libhal_bsp.a(altera_avalon_jtag_uart_ioctl.o)
 .debug_aranges
                0x00000b40       0x20 ../helloWorld_bsp\libhal_bsp.a(altera_avalon_jtag_uart_read.o)
 .debug_aranges
                0x00000b60       0x20 ../helloWorld_bsp\libhal_bsp.a(altera_avalon_jtag_uart_write.o)
 .debug_aranges
                0x00000b80       0x20 ../helloWorld_bsp\libhal_bsp.a(altera_avalon_spi.o)
 .debug_aranges
                0x00000ba0       0x20 ../helloWorld_bsp\libhal_bsp.a(altera_avalon_timer_sc.o)
 .debug_aranges
                0x00000bc0       0x20 ../helloWorld_bsp\libhal_bsp.a(altera_avalon_uart_fd.o)
 .debug_aranges
                0x00000be0       0x20 ../helloWorld_bsp\libhal_bsp.a(altera_avalon_uart_init.o)
 .debug_aranges
                0x00000c00       0x20 ../helloWorld_bsp\libhal_bsp.a(altera_avalon_uart_read.o)
 .debug_aranges
                0x00000c20       0x20 ../helloWorld_bsp\libhal_bsp.a(altera_avalon_uart_write.o)
 .debug_aranges
                0x00000c40       0x20 ../helloWorld_bsp\libhal_bsp.a(altera_up_avalon_ps2.o)
 .debug_aranges
                0x00000c60       0x20 ../helloWorld_bsp\libhal_bsp.a(altera_up_avalon_video_character_buffer_with_dma.o)
 .debug_aranges
                0x00000c80       0x20 ../helloWorld_bsp\libhal_bsp.a(altera_up_ps2_keyboard.o)
 .debug_aranges
                0x00000ca0       0x20 ../helloWorld_bsp\libhal_bsp.a(alt_alarm_start.o)
 .debug_aranges
                0x00000cc0       0x20 ../helloWorld_bsp\libhal_bsp.a(alt_busy_sleep.o)
 .debug_aranges
                0x00000ce0       0x20 ../helloWorld_bsp\libhal_bsp.a(alt_dcache_flush.o)
 .debug_aranges
                0x00000d00       0x20 ../helloWorld_bsp\libhal_bsp.a(alt_dev_llist_insert.o)
 .debug_aranges
                0x00000d20       0x20 ../helloWorld_bsp\libhal_bsp.a(alt_do_ctors.o)
 .debug_aranges
                0x00000d40       0x20 ../helloWorld_bsp\libhal_bsp.a(alt_do_dtors.o)
 .debug_aranges
                0x00000d60       0x20 ../helloWorld_bsp\libhal_bsp.a(alt_find_dev.o)
 .debug_aranges
                0x00000d80       0x20 ../helloWorld_bsp\libhal_bsp.a(alt_flash_dev.o)
 .debug_aranges
                0x00000da0       0x20 ../helloWorld_bsp\libhal_bsp.a(alt_io_redirect.o)
 .debug_aranges
                0x00000dc0       0x20 ../helloWorld_bsp\libhal_bsp.a(alt_irq_register.o)
 .debug_aranges
                0x00000de0       0x20 ../helloWorld_bsp\libhal_bsp.a(alt_open.o)
 .debug_aranges
                0x00000e00       0x20 ../helloWorld_bsp\libhal_bsp.a(altera_nios2_irq.o)
 .debug_aranges
                0x00000e20       0x20 ../helloWorld_bsp\libhal_bsp.a(altera_avalon_cfi_flash_amd.o)
 .debug_aranges
                0x00000e40       0x20 ../helloWorld_bsp\libhal_bsp.a(altera_avalon_cfi_flash_intel.o)
 .debug_aranges
                0x00000e60       0x20 ../helloWorld_bsp\libhal_bsp.a(alt_find_file.o)
 .debug_aranges
                0x00000e80       0x20 ../helloWorld_bsp\libhal_bsp.a(alt_get_fd.o)
 .debug_aranges
                0x00000ea0       0x30 ../helloWorld_bsp\libhal_bsp.a(alt_irq_entry.o)
 .debug_aranges
                0x00000ed0       0x28 ../helloWorld_bsp\libhal_bsp.a(alt_irq_handler.o)
 .debug_aranges
                0x00000ef8       0x38 ../helloWorld_bsp\libhal_bsp.a(alt_exception_entry.o)
 .debug_aranges
                0x00000f30       0x20 c:/altera/10.1/nios2eds/bin/gnu/h-i686-mingw32/bin/../lib/gcc/nios2-elf/4.1.2/../../../../nios2-elf/lib\libc.a(lib_a-atexit.o)
 .debug_aranges
                0x00000f50       0x20 c:/altera/10.1/nios2eds/bin/gnu/h-i686-mingw32/bin/../lib/gcc/nios2-elf/4.1.2/../../../../nios2-elf/lib\libc.a(lib_a-exit.o)
 .debug_aranges
                0x00000f70       0x20 c:/altera/10.1/nios2eds/bin/gnu/h-i686-mingw32/bin/../lib/gcc/nios2-elf/4.1.2/../../../../nios2-elf/lib\libc.a(lib_a-memcmp.o)
 .debug_aranges
                0x00000f90       0x20 c:/altera/10.1/nios2eds/bin/gnu/h-i686-mingw32/bin/../lib/gcc/nios2-elf/4.1.2/../../../../nios2-elf/lib\libc.a(lib_a-strcpy.o)
 .debug_aranges
                0x00000fb0       0x20 c:/altera/10.1/nios2eds/bin/gnu/h-i686-mingw32/bin/../lib/gcc/nios2-elf/4.1.2/../../../../nios2-elf/lib\libc.a(lib_a-__atexit.o)
 .debug_aranges
                0x00000fd0       0x20 c:/altera/10.1/nios2eds/bin/gnu/h-i686-mingw32/bin/../lib/gcc/nios2-elf/4.1.2/../../../../nios2-elf/lib\libc.a(lib_a-__call_atexit.o)
 .debug_aranges
                0x00000ff0       0x20 ../helloWorld_bsp\libhal_bsp.a(alt_exit.o)

.debug_pubnames
                0x00000000     0x1eee
 *(.debug_pubnames)
 .debug_pubnames
                0x00000000      0x112 obj/hello_world.o
 .debug_pubnames
                0x00000112       0x1e c:/altera/10.1/nios2eds/bin/gnu/h-i686-mingw32/bin/../lib/gcc/nios2-elf/4.1.2\libgcc.a(_gt_sf.o)
 .debug_pubnames
                0x00000130       0x1e c:/altera/10.1/nios2eds/bin/gnu/h-i686-mingw32/bin/../lib/gcc/nios2-elf/4.1.2\libgcc.a(_lt_sf.o)
 .debug_pubnames
                0x0000014e       0x24 c:/altera/10.1/nios2eds/bin/gnu/h-i686-mingw32/bin/../lib/gcc/nios2-elf/4.1.2\libgcc.a(_sf_to_df.o)
 .debug_pubnames
                0x00000172       0x1f c:/altera/10.1/nios2eds/bin/gnu/h-i686-mingw32/bin/../lib/gcc/nios2-elf/4.1.2\libgcc.a(_div_df.o)
 .debug_pubnames
                0x00000191       0x1e c:/altera/10.1/nios2eds/bin/gnu/h-i686-mingw32/bin/../lib/gcc/nios2-elf/4.1.2\libgcc.a(_gt_df.o)
 .debug_pubnames
                0x000001af       0x1e c:/altera/10.1/nios2eds/bin/gnu/h-i686-mingw32/bin/../lib/gcc/nios2-elf/4.1.2\libgcc.a(_lt_df.o)
 .debug_pubnames
                0x000001cd       0x22 c:/altera/10.1/nios2eds/bin/gnu/h-i686-mingw32/bin/../lib/gcc/nios2-elf/4.1.2\libgcc.a(_si_to_df.o)
 .debug_pubnames
                0x000001ef       0x20 c:/altera/10.1/nios2eds/bin/gnu/h-i686-mingw32/bin/../lib/gcc/nios2-elf/4.1.2\libgcc.a(_make_df.o)
 .debug_pubnames
                0x0000020f       0x23 c:/altera/10.1/nios2eds/bin/gnu/h-i686-mingw32/bin/../lib/gcc/nios2-elf/4.1.2\libgcc.a(_df_to_sf.o)
 .debug_pubnames
                0x00000232       0x22 c:/altera/10.1/nios2eds/bin/gnu/h-i686-mingw32/bin/../lib/gcc/nios2-elf/4.1.2\libgcc.a(_thenan_df.o)
 .debug_pubnames
                0x00000254       0x48 c:/altera/10.1/nios2eds/bin/gnu/h-i686-mingw32/bin/../lib/gcc/nios2-elf/4.1.2\libgcc.a(lib2-divmod.o)
 .debug_pubnames
                0x0000029c       0x1f c:/altera/10.1/nios2eds/bin/gnu/h-i686-mingw32/bin/../lib/gcc/nios2-elf/4.1.2\libgcc.a(_clzsi2.o)
 .debug_pubnames
                0x000002bb       0x21 c:/altera/10.1/nios2eds/bin/gnu/h-i686-mingw32/bin/../lib/gcc/nios2-elf/4.1.2\libgcc.a(_unpack_sf.o)
 .debug_pubnames
                0x000002dc       0x26 c:/altera/10.1/nios2eds/bin/gnu/h-i686-mingw32/bin/../lib/gcc/nios2-elf/4.1.2\libgcc.a(_fpcmp_parts_sf.o)
 .debug_pubnames
                0x00000302       0x20 c:/altera/10.1/nios2eds/bin/gnu/h-i686-mingw32/bin/../lib/gcc/nios2-elf/4.1.2\libgcc.a(_make_sf.o)
 .debug_pubnames
                0x00000322       0x1f c:/altera/10.1/nios2eds/bin/gnu/h-i686-mingw32/bin/../lib/gcc/nios2-elf/4.1.2\libgcc.a(_pack_df.o)
 .debug_pubnames
                0x00000341       0x21 c:/altera/10.1/nios2eds/bin/gnu/h-i686-mingw32/bin/../lib/gcc/nios2-elf/4.1.2\libgcc.a(_unpack_df.o)
 .debug_pubnames
                0x00000362       0x26 c:/altera/10.1/nios2eds/bin/gnu/h-i686-mingw32/bin/../lib/gcc/nios2-elf/4.1.2\libgcc.a(_fpcmp_parts_df.o)
 .debug_pubnames
                0x00000388       0x20 c:/altera/10.1/nios2eds/bin/gnu/h-i686-mingw32/bin/../lib/gcc/nios2-elf/4.1.2\libgcc.a(_clz.o)
 .debug_pubnames
                0x000003a8       0x1f c:/altera/10.1/nios2eds/bin/gnu/h-i686-mingw32/bin/../lib/gcc/nios2-elf/4.1.2\libgcc.a(_pack_sf.o)
 .debug_pubnames
                0x000003c7       0x2b c:/altera/10.1/nios2eds/bin/gnu/h-i686-mingw32/bin/../lib/gcc/nios2-elf/4.1.2/../../../../nios2-elf/lib\libc.a(lib_a-printf.o)
 .debug_pubnames
                0x000003f2       0x2d c:/altera/10.1/nios2eds/bin/gnu/h-i686-mingw32/bin/../lib/gcc/nios2-elf/4.1.2/../../../../nios2-elf/lib\libc.a(lib_a-putchar.o)
 .debug_pubnames
                0x0000041f       0x25 c:/altera/10.1/nios2eds/bin/gnu/h-i686-mingw32/bin/../lib/gcc/nios2-elf/4.1.2/../../../../nios2-elf/lib\libc.a(lib_a-rand.o)
 .debug_pubnames
                0x00000444       0x1b c:/altera/10.1/nios2eds/bin/gnu/h-i686-mingw32/bin/../lib/gcc/nios2-elf/4.1.2/../../../../nios2-elf/lib\libc.a(lib_a-time.o)
 .debug_pubnames
                0x0000045f       0x45 c:/altera/10.1/nios2eds/bin/gnu/h-i686-mingw32/bin/../lib/gcc/nios2-elf/4.1.2/../../../../nios2-elf/lib\libc.a(lib_a-vfprintf.o)
 .debug_pubnames
                0x000004a4       0x22 c:/altera/10.1/nios2eds/bin/gnu/h-i686-mingw32/bin/../lib/gcc/nios2-elf/4.1.2/../../../../nios2-elf/lib\libc.a(lib_a-wsetup.o)
 .debug_pubnames
                0x000004c6       0x1e c:/altera/10.1/nios2eds/bin/gnu/h-i686-mingw32/bin/../lib/gcc/nios2-elf/4.1.2/../../../../nios2-elf/lib\libc.a(lib_a-dtoa.o)
 .debug_pubnames
                0x000004e4       0x2b c:/altera/10.1/nios2eds/bin/gnu/h-i686-mingw32/bin/../lib/gcc/nios2-elf/4.1.2/../../../../nios2-elf/lib\libc.a(lib_a-fflush.o)
 .debug_pubnames
                0x0000050f       0xdb c:/altera/10.1/nios2eds/bin/gnu/h-i686-mingw32/bin/../lib/gcc/nios2-elf/4.1.2/../../../../nios2-elf/lib\libc.a(lib_a-findfp.o)
 .debug_pubnames
                0x000005ea       0x31 c:/altera/10.1/nios2eds/bin/gnu/h-i686-mingw32/bin/../lib/gcc/nios2-elf/4.1.2/../../../../nios2-elf/lib\libc.a(lib_a-freer.o)
 .debug_pubnames
                0x0000061b       0x23 c:/altera/10.1/nios2eds/bin/gnu/h-i686-mingw32/bin/../lib/gcc/nios2-elf/4.1.2/../../../../nios2-elf/lib\libc.a(lib_a-fvwrite.o)
 .debug_pubnames
                0x0000063e       0x2e c:/altera/10.1/nios2eds/bin/gnu/h-i686-mingw32/bin/../lib/gcc/nios2-elf/4.1.2/../../../../nios2-elf/lib\libc.a(lib_a-fwalk.o)
 .debug_pubnames
                0x0000066c       0x26 c:/altera/10.1/nios2eds/bin/gnu/h-i686-mingw32/bin/../lib/gcc/nios2-elf/4.1.2/../../../../nios2-elf/lib\libc.a(lib_a-gettimeofdayr.o)
 .debug_pubnames
                0x00000692       0x39 c:/altera/10.1/nios2eds/bin/gnu/h-i686-mingw32/bin/../lib/gcc/nios2-elf/4.1.2/../../../../nios2-elf/lib\libc.a(lib_a-impure.o)
 .debug_pubnames
                0x000006cb       0x1c c:/altera/10.1/nios2eds/bin/gnu/h-i686-mingw32/bin/../lib/gcc/nios2-elf/4.1.2/../../../../nios2-elf/lib\libc.a(lib_a-int_errno.o)
 .debug_pubnames
                0x000006e7       0xc3 c:/altera/10.1/nios2eds/bin/gnu/h-i686-mingw32/bin/../lib/gcc/nios2-elf/4.1.2/../../../../nios2-elf/lib\libc.a(lib_a-locale.o)
 .debug_pubnames
                0x000007aa       0x23 c:/altera/10.1/nios2eds/bin/gnu/h-i686-mingw32/bin/../lib/gcc/nios2-elf/4.1.2/../../../../nios2-elf/lib\libc.a(lib_a-makebuf.o)
 .debug_pubnames
                0x000007cd       0xce c:/altera/10.1/nios2eds/bin/gnu/h-i686-mingw32/bin/../lib/gcc/nios2-elf/4.1.2/../../../../nios2-elf/lib\libc.a(lib_a-mallocr.o)
 .debug_pubnames
                0x0000089b       0x1d c:/altera/10.1/nios2eds/bin/gnu/h-i686-mingw32/bin/../lib/gcc/nios2-elf/4.1.2/../../../../nios2-elf/lib\libc.a(lib_a-memchr.o)
 .debug_pubnames
                0x000008b8       0x1d c:/altera/10.1/nios2eds/bin/gnu/h-i686-mingw32/bin/../lib/gcc/nios2-elf/4.1.2/../../../../nios2-elf/lib\libc.a(lib_a-memcpy.o)
 .debug_pubnames
                0x000008d5       0x1e c:/altera/10.1/nios2eds/bin/gnu/h-i686-mingw32/bin/../lib/gcc/nios2-elf/4.1.2/../../../../nios2-elf/lib\libc.a(lib_a-memmove.o)
 .debug_pubnames
                0x000008f3       0x1d c:/altera/10.1/nios2eds/bin/gnu/h-i686-mingw32/bin/../lib/gcc/nios2-elf/4.1.2/../../../../nios2-elf/lib\libc.a(lib_a-memset.o)
 .debug_pubnames
                0x00000910      0x13a c:/altera/10.1/nios2eds/bin/gnu/h-i686-mingw32/bin/../lib/gcc/nios2-elf/4.1.2/../../../../nios2-elf/lib\libc.a(lib_a-mprec.o)
 .debug_pubnames
                0x00000a4a       0x27 c:/altera/10.1/nios2eds/bin/gnu/h-i686-mingw32/bin/../lib/gcc/nios2-elf/4.1.2/../../../../nios2-elf/lib\libc.a(lib_a-putc.o)
 .debug_pubnames
                0x00000a71       0x21 c:/altera/10.1/nios2eds/bin/gnu/h-i686-mingw32/bin/../lib/gcc/nios2-elf/4.1.2/../../../../nios2-elf/lib\libc.a(lib_a-reallocr.o)
 .debug_pubnames
                0x00000a92       0x1f c:/altera/10.1/nios2eds/bin/gnu/h-i686-mingw32/bin/../lib/gcc/nios2-elf/4.1.2/../../../../nios2-elf/lib\libc.a(lib_a-s_isinfd.o)
 .debug_pubnames
                0x00000ab1       0x1f c:/altera/10.1/nios2eds/bin/gnu/h-i686-mingw32/bin/../lib/gcc/nios2-elf/4.1.2/../../../../nios2-elf/lib\libc.a(lib_a-s_isnand.o)
 .debug_pubnames
                0x00000ad0       0x1e c:/altera/10.1/nios2eds/bin/gnu/h-i686-mingw32/bin/../lib/gcc/nios2-elf/4.1.2/../../../../nios2-elf/lib\libc.a(lib_a-sbrkr.o)
 .debug_pubnames
                0x00000aee       0x44 c:/altera/10.1/nios2eds/bin/gnu/h-i686-mingw32/bin/../lib/gcc/nios2-elf/4.1.2/../../../../nios2-elf/lib\libc.a(lib_a-stdio.o)
 .debug_pubnames
                0x00000b32       0x1d c:/altera/10.1/nios2eds/bin/gnu/h-i686-mingw32/bin/../lib/gcc/nios2-elf/4.1.2/../../../../nios2-elf/lib\libc.a(lib_a-strcmp.o)
 .debug_pubnames
                0x00000b4f       0x1d c:/altera/10.1/nios2eds/bin/gnu/h-i686-mingw32/bin/../lib/gcc/nios2-elf/4.1.2/../../../../nios2-elf/lib\libc.a(lib_a-strlen.o)
 .debug_pubnames
                0x00000b6c       0x2c c:/altera/10.1/nios2eds/bin/gnu/h-i686-mingw32/bin/../lib/gcc/nios2-elf/4.1.2/../../../../nios2-elf/lib\libc.a(lib_a-wbuf.o)
 .debug_pubnames
                0x00000b98       0x1f c:/altera/10.1/nios2eds/bin/gnu/h-i686-mingw32/bin/../lib/gcc/nios2-elf/4.1.2/../../../../nios2-elf/lib\libc.a(lib_a-writer.o)
 .debug_pubnames
                0x00000bb7       0x20 c:/altera/10.1/nios2eds/bin/gnu/h-i686-mingw32/bin/../lib/gcc/nios2-elf/4.1.2/../../../../nios2-elf/lib\libc.a(lib_a-callocr.o)
 .debug_pubnames
                0x00000bd7       0x1f c:/altera/10.1/nios2eds/bin/gnu/h-i686-mingw32/bin/../lib/gcc/nios2-elf/4.1.2/../../../../nios2-elf/lib\libc.a(lib_a-closer.o)
 .debug_pubnames
                0x00000bf6       0x2b c:/altera/10.1/nios2eds/bin/gnu/h-i686-mingw32/bin/../lib/gcc/nios2-elf/4.1.2/../../../../nios2-elf/lib\libc.a(lib_a-fclose.o)
 .debug_pubnames
                0x00000c21       0x1f c:/altera/10.1/nios2eds/bin/gnu/h-i686-mingw32/bin/../lib/gcc/nios2-elf/4.1.2/../../../../nios2-elf/lib\libc.a(lib_a-fstatr.o)
 .debug_pubnames
                0x00000c40       0x20 c:/altera/10.1/nios2eds/bin/gnu/h-i686-mingw32/bin/../lib/gcc/nios2-elf/4.1.2/../../../../nios2-elf/lib\libc.a(lib_a-isattyr.o)
 .debug_pubnames
                0x00000c60       0x1f c:/altera/10.1/nios2eds/bin/gnu/h-i686-mingw32/bin/../lib/gcc/nios2-elf/4.1.2/../../../../nios2-elf/lib\libc.a(lib_a-lseekr.o)
 .debug_pubnames
                0x00000c7f       0x1e c:/altera/10.1/nios2eds/bin/gnu/h-i686-mingw32/bin/../lib/gcc/nios2-elf/4.1.2/../../../../nios2-elf/lib\libc.a(lib_a-readr.o)
 .debug_pubnames
                0x00000c9d       0x1f c:/altera/10.1/nios2eds/bin/gnu/h-i686-mingw32/bin/../lib/gcc/nios2-elf/4.1.2\libgcc.a(_muldi3.o)
 .debug_pubnames
                0x00000cbc       0x20 c:/altera/10.1/nios2eds/bin/gnu/h-i686-mingw32/bin/../lib/gcc/nios2-elf/4.1.2\libgcc.a(_udivdi3.o)
 .debug_pubnames
                0x00000cdc       0x20 c:/altera/10.1/nios2eds/bin/gnu/h-i686-mingw32/bin/../lib/gcc/nios2-elf/4.1.2\libgcc.a(_umoddi3.o)
 .debug_pubnames
                0x00000cfc       0x2c c:/altera/10.1/nios2eds/bin/gnu/h-i686-mingw32/bin/../lib/gcc/nios2-elf/4.1.2\libgcc.a(_addsub_df.o)
 .debug_pubnames
                0x00000d28       0x1f c:/altera/10.1/nios2eds/bin/gnu/h-i686-mingw32/bin/../lib/gcc/nios2-elf/4.1.2\libgcc.a(_mul_df.o)
 .debug_pubnames
                0x00000d47       0x1e c:/altera/10.1/nios2eds/bin/gnu/h-i686-mingw32/bin/../lib/gcc/nios2-elf/4.1.2\libgcc.a(_eq_df.o)
 .debug_pubnames
                0x00000d65       0x1e c:/altera/10.1/nios2eds/bin/gnu/h-i686-mingw32/bin/../lib/gcc/nios2-elf/4.1.2\libgcc.a(_ne_df.o)
 .debug_pubnames
                0x00000d83       0x1e c:/altera/10.1/nios2eds/bin/gnu/h-i686-mingw32/bin/../lib/gcc/nios2-elf/4.1.2\libgcc.a(_ge_df.o)
 .debug_pubnames
                0x00000da1       0x20 c:/altera/10.1/nios2eds/bin/gnu/h-i686-mingw32/bin/../lib/gcc/nios2-elf/4.1.2\libgcc.a(_df_to_si.o)
 .debug_pubnames
                0x00000dc1       0x24 c:/altera/10.1/nios2eds/bin/gnu/h-i686-mingw32/bin/../lib/gcc/nios2-elf/4.1.2\libgcc.a(_usi_to_df.o)
 .debug_pubnames
                0x00000de5       0x1c ../helloWorld_bsp\libhal_bsp.a(alt_close.o)
 .debug_pubnames
                0x00000e01       0x63 ../helloWorld_bsp\libhal_bsp.a(alt_dev.o)
 .debug_pubnames
                0x00000e64       0x20 ../helloWorld_bsp\libhal_bsp.a(alt_errno.o)
 .debug_pubnames
                0x00000e84       0x1c ../helloWorld_bsp\libhal_bsp.a(alt_fstat.o)
 .debug_pubnames
                0x00000ea0       0x46 ../helloWorld_bsp\libhal_bsp.a(alt_gettod.o)
 .debug_pubnames
                0x00000ee6       0x1d ../helloWorld_bsp\libhal_bsp.a(alt_isatty.o)
 .debug_pubnames
                0x00000f03       0x1c ../helloWorld_bsp\libhal_bsp.a(alt_lseek.o)
 .debug_pubnames
                0x00000f1f       0x46 ../helloWorld_bsp\libhal_bsp.a(alt_main.o)
 .debug_pubnames
                0x00000f65       0x38 ../helloWorld_bsp\libhal_bsp.a(alt_malloc_lock.o)
 .debug_pubnames
                0x00000f9d       0x21 ../helloWorld_bsp\libhal_bsp.a(alt_printf.o)
 .debug_pubnames
                0x00000fbe       0x22 ../helloWorld_bsp\libhal_bsp.a(alt_putchar.o)
 .debug_pubnames
                0x00000fe0       0x1b ../helloWorld_bsp\libhal_bsp.a(alt_read.o)
 .debug_pubnames
                0x00000ffb       0x25 ../helloWorld_bsp\libhal_bsp.a(alt_release_fd.o)
 .debug_pubnames
                0x00001020       0x1b ../helloWorld_bsp\libhal_bsp.a(alt_sbrk.o)
 .debug_pubnames
                0x0000103b       0x68 ../helloWorld_bsp\libhal_bsp.a(alt_tick.o)
 .debug_pubnames
                0x000010a3       0x1d ../helloWorld_bsp\libhal_bsp.a(alt_usleep.o)
 .debug_pubnames
                0x000010c0       0x1c ../helloWorld_bsp\libhal_bsp.a(alt_write.o)
 .debug_pubnames
                0x000010dc       0x34 ../helloWorld_bsp\libhal_bsp.a(alt_sys_init.o)
 .debug_pubnames
                0x00001110       0xac ../helloWorld_bsp\libhal_bsp.a(altera_avalon_cfi_flash.o)
 .debug_pubnames
                0x000011bc      0x27a ../helloWorld_bsp\libhal_bsp.a(altera_avalon_cfi_flash_table.o)
 .debug_pubnames
                0x00001436       0xa5 ../helloWorld_bsp\libhal_bsp.a(altera_avalon_jtag_uart_fd.o)
 .debug_pubnames
                0x000014db       0x55 ../helloWorld_bsp\libhal_bsp.a(altera_avalon_jtag_uart_init.o)
 .debug_pubnames
                0x00001530       0x34 ../helloWorld_bsp\libhal_bsp.a(altera_avalon_jtag_uart_ioctl.o)
 .debug_pubnames
                0x00001564       0x33 ../helloWorld_bsp\libhal_bsp.a(altera_avalon_jtag_uart_read.o)
 .debug_pubnames
                0x00001597       0x34 ../helloWorld_bsp\libhal_bsp.a(altera_avalon_jtag_uart_write.o)
 .debug_pubnames
                0x000015cb       0x2d ../helloWorld_bsp\libhal_bsp.a(altera_avalon_spi.o)
 .debug_pubnames
                0x000015f8       0x2f ../helloWorld_bsp\libhal_bsp.a(altera_avalon_timer_sc.o)
 .debug_pubnames
                0x00001627       0x71 ../helloWorld_bsp\libhal_bsp.a(altera_avalon_uart_fd.o)
 .debug_pubnames
                0x00001698       0x4b ../helloWorld_bsp\libhal_bsp.a(altera_avalon_uart_init.o)
 .debug_pubnames
                0x000016e3       0x2e ../helloWorld_bsp\libhal_bsp.a(altera_avalon_uart_read.o)
 .debug_pubnames
                0x00001711       0x2f ../helloWorld_bsp\libhal_bsp.a(altera_avalon_uart_write.o)
 .debug_pubnames
                0x00001740      0x1ed ../helloWorld_bsp\libhal_bsp.a(altera_up_avalon_ps2.o)
 .debug_pubnames
                0x0000192d       0xa5 ../helloWorld_bsp\libhal_bsp.a(altera_up_avalon_video_character_buffer_with_dma.o)
 .debug_pubnames
                0x000019d2      0x112 ../helloWorld_bsp\libhal_bsp.a(altera_up_ps2_keyboard.o)
 .debug_pubnames
                0x00001ae4       0x26 ../helloWorld_bsp\libhal_bsp.a(alt_alarm_start.o)
 .debug_pubnames
                0x00001b0a       0x25 ../helloWorld_bsp\libhal_bsp.a(alt_busy_sleep.o)
 .debug_pubnames
                0x00001b2f       0x27 ../helloWorld_bsp\libhal_bsp.a(alt_dcache_flush.o)
 .debug_pubnames
                0x00001b56       0x2b ../helloWorld_bsp\libhal_bsp.a(alt_dev_llist_insert.o)
 .debug_pubnames
                0x00001b81       0x20 ../helloWorld_bsp\libhal_bsp.a(alt_do_ctors.o)
 .debug_pubnames
                0x00001ba1       0x20 ../helloWorld_bsp\libhal_bsp.a(alt_do_dtors.o)
 .debug_pubnames
                0x00001bc1       0x23 ../helloWorld_bsp\libhal_bsp.a(alt_find_dev.o)
 .debug_pubnames
                0x00001be4       0x58 ../helloWorld_bsp\libhal_bsp.a(alt_flash_dev.o)
 .debug_pubnames
                0x00001c3c       0x26 ../helloWorld_bsp\libhal_bsp.a(alt_io_redirect.o)
 .debug_pubnames
                0x00001c62       0x27 ../helloWorld_bsp\libhal_bsp.a(alt_irq_register.o)
 .debug_pubnames
                0x00001c89       0x3b ../helloWorld_bsp\libhal_bsp.a(alt_irq_vars.o)
 .debug_pubnames
                0x00001cc4       0x1b ../helloWorld_bsp\libhal_bsp.a(alt_open.o)
 .debug_pubnames
                0x00001cdf       0x2c ../helloWorld_bsp\libhal_bsp.a(altera_nios2_irq.o)
 .debug_pubnames
                0x00001d0b       0x3e ../helloWorld_bsp\libhal_bsp.a(altera_avalon_cfi_flash_amd.o)
 .debug_pubnames
                0x00001d49       0x42 ../helloWorld_bsp\libhal_bsp.a(altera_avalon_cfi_flash_intel.o)
 .debug_pubnames
                0x00001d8b       0x24 ../helloWorld_bsp\libhal_bsp.a(alt_find_file.o)
 .debug_pubnames
                0x00001daf       0x21 ../helloWorld_bsp\libhal_bsp.a(alt_get_fd.o)
 .debug_pubnames
                0x00001dd0       0x32 ../helloWorld_bsp\libhal_bsp.a(alt_irq_handler.o)
 .debug_pubnames
                0x00001e02       0x2a c:/altera/10.1/nios2eds/bin/gnu/h-i686-mingw32/bin/../lib/gcc/nios2-elf/4.1.2/../../../../nios2-elf/lib\libc.a(lib_a-atexit.o)
 .debug_pubnames
                0x00001e2c       0x1b c:/altera/10.1/nios2eds/bin/gnu/h-i686-mingw32/bin/../lib/gcc/nios2-elf/4.1.2/../../../../nios2-elf/lib\libc.a(lib_a-exit.o)
 .debug_pubnames
                0x00001e47       0x1d c:/altera/10.1/nios2eds/bin/gnu/h-i686-mingw32/bin/../lib/gcc/nios2-elf/4.1.2/../../../../nios2-elf/lib\libc.a(lib_a-memcmp.o)
 .debug_pubnames
                0x00001e64       0x1d c:/altera/10.1/nios2eds/bin/gnu/h-i686-mingw32/bin/../lib/gcc/nios2-elf/4.1.2/../../../../nios2-elf/lib\libc.a(lib_a-strcpy.o)
 .debug_pubnames
                0x00001e81       0x2a c:/altera/10.1/nios2eds/bin/gnu/h-i686-mingw32/bin/../lib/gcc/nios2-elf/4.1.2/../../../../nios2-elf/lib\libc.a(lib_a-__atexit.o)
 .debug_pubnames
                0x00001eab       0x27 c:/altera/10.1/nios2eds/bin/gnu/h-i686-mingw32/bin/../lib/gcc/nios2-elf/4.1.2/../../../../nios2-elf/lib\libc.a(lib_a-__call_atexit.o)
 .debug_pubnames
                0x00001ed2       0x1c ../helloWorld_bsp\libhal_bsp.a(alt_exit.o)

.debug_info     0x00000000    0x2f694
 *(.debug_info .gnu.linkonce.wi.*)
 .debug_info    0x00000000       0x7d ../helloWorld_bsp/obj/HAL/src/crt0.o
 .debug_info    0x0000007d      0xd41 obj/hello_world.o
 .debug_info    0x00000dbe      0x290 c:/altera/10.1/nios2eds/bin/gnu/h-i686-mingw32/bin/../lib/gcc/nios2-elf/4.1.2\libgcc.a(_gt_sf.o)
 .debug_info    0x0000104e      0x290 c:/altera/10.1/nios2eds/bin/gnu/h-i686-mingw32/bin/../lib/gcc/nios2-elf/4.1.2\libgcc.a(_lt_sf.o)
 .debug_info    0x000012de      0x245 c:/altera/10.1/nios2eds/bin/gnu/h-i686-mingw32/bin/../lib/gcc/nios2-elf/4.1.2\libgcc.a(_sf_to_df.o)
 .debug_info    0x00001523      0x39b c:/altera/10.1/nios2eds/bin/gnu/h-i686-mingw32/bin/../lib/gcc/nios2-elf/4.1.2\libgcc.a(_div_df.o)
 .debug_info    0x000018be      0x29d c:/altera/10.1/nios2eds/bin/gnu/h-i686-mingw32/bin/../lib/gcc/nios2-elf/4.1.2\libgcc.a(_gt_df.o)
 .debug_info    0x00001b5b      0x29d c:/altera/10.1/nios2eds/bin/gnu/h-i686-mingw32/bin/../lib/gcc/nios2-elf/4.1.2\libgcc.a(_lt_df.o)
 .debug_info    0x00001df8      0x218 c:/altera/10.1/nios2eds/bin/gnu/h-i686-mingw32/bin/../lib/gcc/nios2-elf/4.1.2\libgcc.a(_si_to_df.o)
 .debug_info    0x00002010      0x1d6 c:/altera/10.1/nios2eds/bin/gnu/h-i686-mingw32/bin/../lib/gcc/nios2-elf/4.1.2\libgcc.a(_make_df.o)
 .debug_info    0x000021e6      0x261 c:/altera/10.1/nios2eds/bin/gnu/h-i686-mingw32/bin/../lib/gcc/nios2-elf/4.1.2\libgcc.a(_df_to_sf.o)
 .debug_info    0x00002447      0x164 c:/altera/10.1/nios2eds/bin/gnu/h-i686-mingw32/bin/../lib/gcc/nios2-elf/4.1.2\libgcc.a(_thenan_df.o)
 .debug_info    0x000025ab      0x21c c:/altera/10.1/nios2eds/bin/gnu/h-i686-mingw32/bin/../lib/gcc/nios2-elf/4.1.2\libgcc.a(lib2-divmod.o)
 .debug_info    0x000027c7      0x130 c:/altera/10.1/nios2eds/bin/gnu/h-i686-mingw32/bin/../lib/gcc/nios2-elf/4.1.2\libgcc.a(_clzsi2.o)
 .debug_info    0x000028f7      0x25a c:/altera/10.1/nios2eds/bin/gnu/h-i686-mingw32/bin/../lib/gcc/nios2-elf/4.1.2\libgcc.a(_unpack_sf.o)
 .debug_info    0x00002b51      0x21f c:/altera/10.1/nios2eds/bin/gnu/h-i686-mingw32/bin/../lib/gcc/nios2-elf/4.1.2\libgcc.a(_fpcmp_parts_sf.o)
 .debug_info    0x00002d70      0x1d7 c:/altera/10.1/nios2eds/bin/gnu/h-i686-mingw32/bin/../lib/gcc/nios2-elf/4.1.2\libgcc.a(_make_sf.o)
 .debug_info    0x00002f47      0x2fc c:/altera/10.1/nios2eds/bin/gnu/h-i686-mingw32/bin/../lib/gcc/nios2-elf/4.1.2\libgcc.a(_pack_df.o)
 .debug_info    0x00003243      0x268 c:/altera/10.1/nios2eds/bin/gnu/h-i686-mingw32/bin/../lib/gcc/nios2-elf/4.1.2\libgcc.a(_unpack_df.o)
 .debug_info    0x000034ab      0x21b c:/altera/10.1/nios2eds/bin/gnu/h-i686-mingw32/bin/../lib/gcc/nios2-elf/4.1.2\libgcc.a(_fpcmp_parts_df.o)
 .debug_info    0x000036c6       0xc9 c:/altera/10.1/nios2eds/bin/gnu/h-i686-mingw32/bin/../lib/gcc/nios2-elf/4.1.2\libgcc.a(_clz.o)
 .debug_info    0x0000378f      0x2f2 c:/altera/10.1/nios2eds/bin/gnu/h-i686-mingw32/bin/../lib/gcc/nios2-elf/4.1.2\libgcc.a(_pack_sf.o)
 .debug_info    0x00003a81      0x9d1 c:/altera/10.1/nios2eds/bin/gnu/h-i686-mingw32/bin/../lib/gcc/nios2-elf/4.1.2/../../../../nios2-elf/lib\libc.a(lib_a-printf.o)
 .debug_info    0x00004452      0x972 c:/altera/10.1/nios2eds/bin/gnu/h-i686-mingw32/bin/../lib/gcc/nios2-elf/4.1.2/../../../../nios2-elf/lib\libc.a(lib_a-putchar.o)
 .debug_info    0x00004dc4      0x951 c:/altera/10.1/nios2eds/bin/gnu/h-i686-mingw32/bin/../lib/gcc/nios2-elf/4.1.2/../../../../nios2-elf/lib\libc.a(lib_a-rand.o)
 .debug_info    0x00005715      0x98f c:/altera/10.1/nios2eds/bin/gnu/h-i686-mingw32/bin/../lib/gcc/nios2-elf/4.1.2/../../../../nios2-elf/lib\libc.a(lib_a-time.o)
 .debug_info    0x000060a4     0x10d5 c:/altera/10.1/nios2eds/bin/gnu/h-i686-mingw32/bin/../lib/gcc/nios2-elf/4.1.2/../../../../nios2-elf/lib\libc.a(lib_a-vfprintf.o)
 .debug_info    0x00007179      0x95d c:/altera/10.1/nios2eds/bin/gnu/h-i686-mingw32/bin/../lib/gcc/nios2-elf/4.1.2/../../../../nios2-elf/lib\libc.a(lib_a-wsetup.o)
 .debug_info    0x00007ad6      0xd6f c:/altera/10.1/nios2eds/bin/gnu/h-i686-mingw32/bin/../lib/gcc/nios2-elf/4.1.2/../../../../nios2-elf/lib\libc.a(lib_a-dtoa.o)
 .debug_info    0x00008845      0x9fe c:/altera/10.1/nios2eds/bin/gnu/h-i686-mingw32/bin/../lib/gcc/nios2-elf/4.1.2/../../../../nios2-elf/lib\libc.a(lib_a-fflush.o)
 .debug_info    0x00009243      0xb72 c:/altera/10.1/nios2eds/bin/gnu/h-i686-mingw32/bin/../lib/gcc/nios2-elf/4.1.2/../../../../nios2-elf/lib\libc.a(lib_a-findfp.o)
 .debug_info    0x00009db5      0xbc9 c:/altera/10.1/nios2eds/bin/gnu/h-i686-mingw32/bin/../lib/gcc/nios2-elf/4.1.2/../../../../nios2-elf/lib\libc.a(lib_a-freer.o)
 .debug_info    0x0000a97e      0xa88 c:/altera/10.1/nios2eds/bin/gnu/h-i686-mingw32/bin/../lib/gcc/nios2-elf/4.1.2/../../../../nios2-elf/lib\libc.a(lib_a-fvwrite.o)
 .debug_info    0x0000b406      0xaed c:/altera/10.1/nios2eds/bin/gnu/h-i686-mingw32/bin/../lib/gcc/nios2-elf/4.1.2/../../../../nios2-elf/lib\libc.a(lib_a-fwalk.o)
 .debug_info    0x0000bef3      0x9ad c:/altera/10.1/nios2eds/bin/gnu/h-i686-mingw32/bin/../lib/gcc/nios2-elf/4.1.2/../../../../nios2-elf/lib\libc.a(lib_a-gettimeofdayr.o)
 .debug_info    0x0000c8a0      0x93d c:/altera/10.1/nios2eds/bin/gnu/h-i686-mingw32/bin/../lib/gcc/nios2-elf/4.1.2/../../../../nios2-elf/lib\libc.a(lib_a-impure.o)
 .debug_info    0x0000d1dd       0x8c c:/altera/10.1/nios2eds/bin/gnu/h-i686-mingw32/bin/../lib/gcc/nios2-elf/4.1.2/../../../../nios2-elf/lib\libc.a(lib_a-int_errno.o)
 .debug_info    0x0000d269      0xb97 c:/altera/10.1/nios2eds/bin/gnu/h-i686-mingw32/bin/../lib/gcc/nios2-elf/4.1.2/../../../../nios2-elf/lib\libc.a(lib_a-locale.o)
 .debug_info    0x0000de00      0xb1a c:/altera/10.1/nios2eds/bin/gnu/h-i686-mingw32/bin/../lib/gcc/nios2-elf/4.1.2/../../../../nios2-elf/lib\libc.a(lib_a-makebuf.o)
 .debug_info    0x0000e91a      0xcd0 c:/altera/10.1/nios2eds/bin/gnu/h-i686-mingw32/bin/../lib/gcc/nios2-elf/4.1.2/../../../../nios2-elf/lib\libc.a(lib_a-mallocr.o)
 .debug_info    0x0000f5ea      0x138 c:/altera/10.1/nios2eds/bin/gnu/h-i686-mingw32/bin/../lib/gcc/nios2-elf/4.1.2/../../../../nios2-elf/lib\libc.a(lib_a-memchr.o)
 .debug_info    0x0000f722      0x106 c:/altera/10.1/nios2eds/bin/gnu/h-i686-mingw32/bin/../lib/gcc/nios2-elf/4.1.2/../../../../nios2-elf/lib\libc.a(lib_a-memcpy.o)
 .debug_info    0x0000f828      0x13e c:/altera/10.1/nios2eds/bin/gnu/h-i686-mingw32/bin/../lib/gcc/nios2-elf/4.1.2/../../../../nios2-elf/lib\libc.a(lib_a-memmove.o)
 .debug_info    0x0000f966      0x113 c:/altera/10.1/nios2eds/bin/gnu/h-i686-mingw32/bin/../lib/gcc/nios2-elf/4.1.2/../../../../nios2-elf/lib\libc.a(lib_a-memset.o)
 .debug_info    0x0000fa79     0x1437 c:/altera/10.1/nios2eds/bin/gnu/h-i686-mingw32/bin/../lib/gcc/nios2-elf/4.1.2/../../../../nios2-elf/lib\libc.a(lib_a-mprec.o)
 .debug_info    0x00010eb0      0x9c1 c:/altera/10.1/nios2eds/bin/gnu/h-i686-mingw32/bin/../lib/gcc/nios2-elf/4.1.2/../../../../nios2-elf/lib\libc.a(lib_a-putc.o)
 .debug_info    0x00011871      0xbd7 c:/altera/10.1/nios2eds/bin/gnu/h-i686-mingw32/bin/../lib/gcc/nios2-elf/4.1.2/../../../../nios2-elf/lib\libc.a(lib_a-reallocr.o)
 .debug_info    0x00012448       0xd7 c:/altera/10.1/nios2eds/bin/gnu/h-i686-mingw32/bin/../lib/gcc/nios2-elf/4.1.2/../../../../nios2-elf/lib\libc.a(lib_a-s_isinfd.o)
 .debug_info    0x0001251f       0xd5 c:/altera/10.1/nios2eds/bin/gnu/h-i686-mingw32/bin/../lib/gcc/nios2-elf/4.1.2/../../../../nios2-elf/lib\libc.a(lib_a-s_isnand.o)
 .debug_info    0x000125f4      0x962 c:/altera/10.1/nios2eds/bin/gnu/h-i686-mingw32/bin/../lib/gcc/nios2-elf/4.1.2/../../../../nios2-elf/lib\libc.a(lib_a-sbrkr.o)
 .debug_info    0x00012f56      0xaac c:/altera/10.1/nios2eds/bin/gnu/h-i686-mingw32/bin/../lib/gcc/nios2-elf/4.1.2/../../../../nios2-elf/lib\libc.a(lib_a-stdio.o)
 .debug_info    0x00013a02       0xdd c:/altera/10.1/nios2eds/bin/gnu/h-i686-mingw32/bin/../lib/gcc/nios2-elf/4.1.2/../../../../nios2-elf/lib\libc.a(lib_a-strcmp.o)
 .debug_info    0x00013adf       0xdb c:/altera/10.1/nios2eds/bin/gnu/h-i686-mingw32/bin/../lib/gcc/nios2-elf/4.1.2/../../../../nios2-elf/lib\libc.a(lib_a-strlen.o)
 .debug_info    0x00013bba      0x9ae c:/altera/10.1/nios2eds/bin/gnu/h-i686-mingw32/bin/../lib/gcc/nios2-elf/4.1.2/../../../../nios2-elf/lib\libc.a(lib_a-wbuf.o)
 .debug_info    0x00014568      0x993 c:/altera/10.1/nios2eds/bin/gnu/h-i686-mingw32/bin/../lib/gcc/nios2-elf/4.1.2/../../../../nios2-elf/lib\libc.a(lib_a-writer.o)
 .debug_info    0x00014efb      0xa1b c:/altera/10.1/nios2eds/bin/gnu/h-i686-mingw32/bin/../lib/gcc/nios2-elf/4.1.2/../../../../nios2-elf/lib\libc.a(lib_a-callocr.o)
 .debug_info    0x00015916      0x958 c:/altera/10.1/nios2eds/bin/gnu/h-i686-mingw32/bin/../lib/gcc/nios2-elf/4.1.2/../../../../nios2-elf/lib\libc.a(lib_a-closer.o)
 .debug_info    0x0001626e      0x994 c:/altera/10.1/nios2eds/bin/gnu/h-i686-mingw32/bin/../lib/gcc/nios2-elf/4.1.2/../../../../nios2-elf/lib\libc.a(lib_a-fclose.o)
 .debug_info    0x00016c02      0xafc c:/altera/10.1/nios2eds/bin/gnu/h-i686-mingw32/bin/../lib/gcc/nios2-elf/4.1.2/../../../../nios2-elf/lib\libc.a(lib_a-fstatr.o)
 .debug_info    0x000176fe      0x958 c:/altera/10.1/nios2eds/bin/gnu/h-i686-mingw32/bin/../lib/gcc/nios2-elf/4.1.2/../../../../nios2-elf/lib\libc.a(lib_a-isattyr.o)
 .debug_info    0x00018056      0x981 c:/altera/10.1/nios2eds/bin/gnu/h-i686-mingw32/bin/../lib/gcc/nios2-elf/4.1.2/../../../../nios2-elf/lib\libc.a(lib_a-lseekr.o)
 .debug_info    0x000189d7      0x98c c:/altera/10.1/nios2eds/bin/gnu/h-i686-mingw32/bin/../lib/gcc/nios2-elf/4.1.2/../../../../nios2-elf/lib\libc.a(lib_a-readr.o)
 .debug_info    0x00019363      0x215 c:/altera/10.1/nios2eds/bin/gnu/h-i686-mingw32/bin/../lib/gcc/nios2-elf/4.1.2\libgcc.a(_muldi3.o)
 .debug_info    0x00019578      0x724 c:/altera/10.1/nios2eds/bin/gnu/h-i686-mingw32/bin/../lib/gcc/nios2-elf/4.1.2\libgcc.a(_udivdi3.o)
 .debug_info    0x00019c9c      0x751 c:/altera/10.1/nios2eds/bin/gnu/h-i686-mingw32/bin/../lib/gcc/nios2-elf/4.1.2\libgcc.a(_umoddi3.o)
 .debug_info    0x0001a3ed      0x493 c:/altera/10.1/nios2eds/bin/gnu/h-i686-mingw32/bin/../lib/gcc/nios2-elf/4.1.2\libgcc.a(_addsub_df.o)
 .debug_info    0x0001a880      0x488 c:/altera/10.1/nios2eds/bin/gnu/h-i686-mingw32/bin/../lib/gcc/nios2-elf/4.1.2\libgcc.a(_mul_df.o)
 .debug_info    0x0001ad08      0x29d c:/altera/10.1/nios2eds/bin/gnu/h-i686-mingw32/bin/../lib/gcc/nios2-elf/4.1.2\libgcc.a(_eq_df.o)
 .debug_info    0x0001afa5      0x29d c:/altera/10.1/nios2eds/bin/gnu/h-i686-mingw32/bin/../lib/gcc/nios2-elf/4.1.2\libgcc.a(_ne_df.o)
 .debug_info    0x0001b242      0x29d c:/altera/10.1/nios2eds/bin/gnu/h-i686-mingw32/bin/../lib/gcc/nios2-elf/4.1.2\libgcc.a(_ge_df.o)
 .debug_info    0x0001b4df      0x2cd c:/altera/10.1/nios2eds/bin/gnu/h-i686-mingw32/bin/../lib/gcc/nios2-elf/4.1.2\libgcc.a(_df_to_si.o)
 .debug_info    0x0001b7ac      0x213 c:/altera/10.1/nios2eds/bin/gnu/h-i686-mingw32/bin/../lib/gcc/nios2-elf/4.1.2\libgcc.a(_usi_to_df.o)
 .debug_info    0x0001b9bf      0x465 ../helloWorld_bsp\libhal_bsp.a(alt_close.o)
 .debug_info    0x0001be24      0x67d ../helloWorld_bsp\libhal_bsp.a(alt_dev.o)
 .debug_info    0x0001c4a1      0x162 ../helloWorld_bsp\libhal_bsp.a(alt_errno.o)
 .debug_info    0x0001c603      0x65e ../helloWorld_bsp\libhal_bsp.a(alt_fstat.o)
 .debug_info    0x0001cc61      0x321 ../helloWorld_bsp\libhal_bsp.a(alt_gettod.o)
 .debug_info    0x0001cf82      0x664 ../helloWorld_bsp\libhal_bsp.a(alt_isatty.o)
 .debug_info    0x0001d5e6      0x498 ../helloWorld_bsp\libhal_bsp.a(alt_lseek.o)
 .debug_info    0x0001da7e      0x26a ../helloWorld_bsp\libhal_bsp.a(alt_main.o)
 .debug_info    0x0001dce8      0xbf2 ../helloWorld_bsp\libhal_bsp.a(alt_malloc_lock.o)
 .debug_info    0x0001e8da      0x182 ../helloWorld_bsp\libhal_bsp.a(alt_printf.o)
 .debug_info    0x0001ea5c      0xbd6 ../helloWorld_bsp\libhal_bsp.a(alt_putchar.o)
 .debug_info    0x0001f632      0x688 ../helloWorld_bsp\libhal_bsp.a(alt_read.o)
 .debug_info    0x0001fcba      0x3f0 ../helloWorld_bsp\libhal_bsp.a(alt_release_fd.o)
 .debug_info    0x000200aa      0x2fc ../helloWorld_bsp\libhal_bsp.a(alt_sbrk.o)
 .debug_info    0x000203a6      0x42f ../helloWorld_bsp\libhal_bsp.a(alt_tick.o)
 .debug_info    0x000207d5      0x142 ../helloWorld_bsp\libhal_bsp.a(alt_usleep.o)
 .debug_info    0x00020917      0x691 ../helloWorld_bsp\libhal_bsp.a(alt_write.o)
 .debug_info    0x00020fa8     0x10aa ../helloWorld_bsp\libhal_bsp.a(alt_sys_init.o)
 .debug_info    0x00022052      0xb47 ../helloWorld_bsp\libhal_bsp.a(altera_avalon_cfi_flash.o)
 .debug_info    0x00022b99      0xe33 ../helloWorld_bsp\libhal_bsp.a(altera_avalon_cfi_flash_table.o)
 .debug_info    0x000239cc      0x7d7 ../helloWorld_bsp\libhal_bsp.a(altera_avalon_jtag_uart_fd.o)
 .debug_info    0x000241a3      0x63f ../helloWorld_bsp\libhal_bsp.a(altera_avalon_jtag_uart_init.o)
 .debug_info    0x000247e2      0x441 ../helloWorld_bsp\libhal_bsp.a(altera_avalon_jtag_uart_ioctl.o)
 .debug_info    0x00024c23      0x577 ../helloWorld_bsp\libhal_bsp.a(altera_avalon_jtag_uart_read.o)
 .debug_info    0x0002519a      0x56f ../helloWorld_bsp\libhal_bsp.a(altera_avalon_jtag_uart_write.o)
 .debug_info    0x00025709      0x2a7 ../helloWorld_bsp\libhal_bsp.a(altera_avalon_spi.o)
 .debug_info    0x000259b0      0x3c9 ../helloWorld_bsp\libhal_bsp.a(altera_avalon_timer_sc.o)
 .debug_info    0x00025d79      0x63a ../helloWorld_bsp\libhal_bsp.a(altera_avalon_uart_fd.o)
 .debug_info    0x000263b3      0x54c ../helloWorld_bsp\libhal_bsp.a(altera_avalon_uart_init.o)
 .debug_info    0x000268ff      0x4f3 ../helloWorld_bsp\libhal_bsp.a(altera_avalon_uart_read.o)
 .debug_info    0x00026df2      0x4f1 ../helloWorld_bsp\libhal_bsp.a(altera_avalon_uart_write.o)
 .debug_info    0x000272e3      0xaeb ../helloWorld_bsp\libhal_bsp.a(altera_up_avalon_ps2.o)
 .debug_info    0x00027dce      0x690 ../helloWorld_bsp\libhal_bsp.a(altera_up_avalon_video_character_buffer_with_dma.o)
 .debug_info    0x0002845e      0x92d ../helloWorld_bsp\libhal_bsp.a(altera_up_ps2_keyboard.o)
 .debug_info    0x00028d8b      0x473 ../helloWorld_bsp\libhal_bsp.a(alt_alarm_start.o)
 .debug_info    0x000291fe      0x1a9 ../helloWorld_bsp\libhal_bsp.a(alt_busy_sleep.o)
 .debug_info    0x000293a7      0x1a2 ../helloWorld_bsp\libhal_bsp.a(alt_dcache_flush.o)
 .debug_info    0x00029549      0x2b5 ../helloWorld_bsp\libhal_bsp.a(alt_dev_llist_insert.o)
 .debug_info    0x000297fe       0xe9 ../helloWorld_bsp\libhal_bsp.a(alt_do_ctors.o)
 .debug_info    0x000298e7       0xe8 ../helloWorld_bsp\libhal_bsp.a(alt_do_dtors.o)
 .debug_info    0x000299cf      0x416 ../helloWorld_bsp\libhal_bsp.a(alt_find_dev.o)
 .debug_info    0x00029de5      0x597 ../helloWorld_bsp\libhal_bsp.a(alt_flash_dev.o)
 .debug_info    0x0002a37c      0x693 ../helloWorld_bsp\libhal_bsp.a(alt_io_redirect.o)
 .debug_info    0x0002aa0f      0x42d ../helloWorld_bsp\libhal_bsp.a(alt_irq_register.o)
 .debug_info    0x0002ae3c      0x165 ../helloWorld_bsp\libhal_bsp.a(alt_irq_vars.o)
 .debug_info    0x0002afa1      0x523 ../helloWorld_bsp\libhal_bsp.a(alt_open.o)
 .debug_info    0x0002b4c4      0x19e ../helloWorld_bsp\libhal_bsp.a(altera_nios2_irq.o)
 .debug_info    0x0002b662      0x8e7 ../helloWorld_bsp\libhal_bsp.a(altera_avalon_cfi_flash_amd.o)
 .debug_info    0x0002bf49      0x8dd ../helloWorld_bsp\libhal_bsp.a(altera_avalon_cfi_flash_intel.o)
 .debug_info    0x0002c826      0x41d ../helloWorld_bsp\libhal_bsp.a(alt_find_file.o)
 .debug_info    0x0002cc43      0x45e ../helloWorld_bsp\libhal_bsp.a(alt_get_fd.o)
 .debug_info    0x0002d0a1       0x82 ../helloWorld_bsp\libhal_bsp.a(alt_irq_entry.o)
 .debug_info    0x0002d123      0x2b0 ../helloWorld_bsp\libhal_bsp.a(alt_irq_handler.o)
 .debug_info    0x0002d3d3       0x88 ../helloWorld_bsp\libhal_bsp.a(alt_exception_entry.o)
 .debug_info    0x0002d45b      0x181 c:/altera/10.1/nios2eds/bin/gnu/h-i686-mingw32/bin/../lib/gcc/nios2-elf/4.1.2/../../../../nios2-elf/lib\libc.a(lib_a-atexit.o)
 .debug_info    0x0002d5dc      0x93f c:/altera/10.1/nios2eds/bin/gnu/h-i686-mingw32/bin/../lib/gcc/nios2-elf/4.1.2/../../../../nios2-elf/lib\libc.a(lib_a-exit.o)
 .debug_info    0x0002df1b      0x115 c:/altera/10.1/nios2eds/bin/gnu/h-i686-mingw32/bin/../lib/gcc/nios2-elf/4.1.2/../../../../nios2-elf/lib\libc.a(lib_a-memcmp.o)
 .debug_info    0x0002e030      0x110 c:/altera/10.1/nios2eds/bin/gnu/h-i686-mingw32/bin/../lib/gcc/nios2-elf/4.1.2/../../../../nios2-elf/lib\libc.a(lib_a-strcpy.o)
 .debug_info    0x0002e140      0x99c c:/altera/10.1/nios2eds/bin/gnu/h-i686-mingw32/bin/../lib/gcc/nios2-elf/4.1.2/../../../../nios2-elf/lib\libc.a(lib_a-__atexit.o)
 .debug_info    0x0002eadc      0x9e2 c:/altera/10.1/nios2eds/bin/gnu/h-i686-mingw32/bin/../lib/gcc/nios2-elf/4.1.2/../../../../nios2-elf/lib\libc.a(lib_a-__call_atexit.o)
 .debug_info    0x0002f4be      0x1d6 ../helloWorld_bsp\libhal_bsp.a(alt_exit.o)

.debug_abbrev   0x00000000     0xa073
 *(.debug_abbrev)
 .debug_abbrev  0x00000000       0x14 ../helloWorld_bsp/obj/HAL/src/crt0.o
 .debug_abbrev  0x00000014      0x1fe obj/hello_world.o
 .debug_abbrev  0x00000212      0x151 c:/altera/10.1/nios2eds/bin/gnu/h-i686-mingw32/bin/../lib/gcc/nios2-elf/4.1.2\libgcc.a(_gt_sf.o)
 .debug_abbrev  0x00000363      0x151 c:/altera/10.1/nios2eds/bin/gnu/h-i686-mingw32/bin/../lib/gcc/nios2-elf/4.1.2\libgcc.a(_lt_sf.o)
 .debug_abbrev  0x000004b4      0x128 c:/altera/10.1/nios2eds/bin/gnu/h-i686-mingw32/bin/../lib/gcc/nios2-elf/4.1.2\libgcc.a(_sf_to_df.o)
 .debug_abbrev  0x000005dc      0x1e3 c:/altera/10.1/nios2eds/bin/gnu/h-i686-mingw32/bin/../lib/gcc/nios2-elf/4.1.2\libgcc.a(_div_df.o)
 .debug_abbrev  0x000007bf      0x151 c:/altera/10.1/nios2eds/bin/gnu/h-i686-mingw32/bin/../lib/gcc/nios2-elf/4.1.2\libgcc.a(_gt_df.o)
 .debug_abbrev  0x00000910      0x151 c:/altera/10.1/nios2eds/bin/gnu/h-i686-mingw32/bin/../lib/gcc/nios2-elf/4.1.2\libgcc.a(_lt_df.o)
 .debug_abbrev  0x00000a61      0x13f c:/altera/10.1/nios2eds/bin/gnu/h-i686-mingw32/bin/../lib/gcc/nios2-elf/4.1.2\libgcc.a(_si_to_df.o)
 .debug_abbrev  0x00000ba0      0x10f c:/altera/10.1/nios2eds/bin/gnu/h-i686-mingw32/bin/../lib/gcc/nios2-elf/4.1.2\libgcc.a(_make_df.o)
 .debug_abbrev  0x00000caf      0x137 c:/altera/10.1/nios2eds/bin/gnu/h-i686-mingw32/bin/../lib/gcc/nios2-elf/4.1.2\libgcc.a(_df_to_sf.o)
 .debug_abbrev  0x00000de6       0xba c:/altera/10.1/nios2eds/bin/gnu/h-i686-mingw32/bin/../lib/gcc/nios2-elf/4.1.2\libgcc.a(_thenan_df.o)
 .debug_abbrev  0x00000ea0       0xe0 c:/altera/10.1/nios2eds/bin/gnu/h-i686-mingw32/bin/../lib/gcc/nios2-elf/4.1.2\libgcc.a(lib2-divmod.o)
 .debug_abbrev  0x00000f80       0xb9 c:/altera/10.1/nios2eds/bin/gnu/h-i686-mingw32/bin/../lib/gcc/nios2-elf/4.1.2\libgcc.a(_clzsi2.o)
 .debug_abbrev  0x00001039      0x158 c:/altera/10.1/nios2eds/bin/gnu/h-i686-mingw32/bin/../lib/gcc/nios2-elf/4.1.2\libgcc.a(_unpack_sf.o)
 .debug_abbrev  0x00001191      0x132 c:/altera/10.1/nios2eds/bin/gnu/h-i686-mingw32/bin/../lib/gcc/nios2-elf/4.1.2\libgcc.a(_fpcmp_parts_sf.o)
 .debug_abbrev  0x000012c3      0x100 c:/altera/10.1/nios2eds/bin/gnu/h-i686-mingw32/bin/../lib/gcc/nios2-elf/4.1.2\libgcc.a(_make_sf.o)
 .debug_abbrev  0x000013c3      0x1b1 c:/altera/10.1/nios2eds/bin/gnu/h-i686-mingw32/bin/../lib/gcc/nios2-elf/4.1.2\libgcc.a(_pack_df.o)
 .debug_abbrev  0x00001574      0x149 c:/altera/10.1/nios2eds/bin/gnu/h-i686-mingw32/bin/../lib/gcc/nios2-elf/4.1.2\libgcc.a(_unpack_df.o)
 .debug_abbrev  0x000016bd      0x132 c:/altera/10.1/nios2eds/bin/gnu/h-i686-mingw32/bin/../lib/gcc/nios2-elf/4.1.2\libgcc.a(_fpcmp_parts_df.o)
 .debug_abbrev  0x000017ef       0x61 c:/altera/10.1/nios2eds/bin/gnu/h-i686-mingw32/bin/../lib/gcc/nios2-elf/4.1.2\libgcc.a(_clz.o)
 .debug_abbrev  0x00001850      0x1aa c:/altera/10.1/nios2eds/bin/gnu/h-i686-mingw32/bin/../lib/gcc/nios2-elf/4.1.2\libgcc.a(_pack_sf.o)
 .debug_abbrev  0x000019fa      0x191 c:/altera/10.1/nios2eds/bin/gnu/h-i686-mingw32/bin/../lib/gcc/nios2-elf/4.1.2/../../../../nios2-elf/lib\libc.a(lib_a-printf.o)
 .debug_abbrev  0x00001b8b      0x170 c:/altera/10.1/nios2eds/bin/gnu/h-i686-mingw32/bin/../lib/gcc/nios2-elf/4.1.2/../../../../nios2-elf/lib\libc.a(lib_a-putchar.o)
 .debug_abbrev  0x00001cfb      0x185 c:/altera/10.1/nios2eds/bin/gnu/h-i686-mingw32/bin/../lib/gcc/nios2-elf/4.1.2/../../../../nios2-elf/lib\libc.a(lib_a-rand.o)
 .debug_abbrev  0x00001e80      0x17f c:/altera/10.1/nios2eds/bin/gnu/h-i686-mingw32/bin/../lib/gcc/nios2-elf/4.1.2/../../../../nios2-elf/lib\libc.a(lib_a-time.o)
 .debug_abbrev  0x00001fff      0x30a c:/altera/10.1/nios2eds/bin/gnu/h-i686-mingw32/bin/../lib/gcc/nios2-elf/4.1.2/../../../../nios2-elf/lib\libc.a(lib_a-vfprintf.o)
 .debug_abbrev  0x00002309      0x170 c:/altera/10.1/nios2eds/bin/gnu/h-i686-mingw32/bin/../lib/gcc/nios2-elf/4.1.2/../../../../nios2-elf/lib\libc.a(lib_a-wsetup.o)
 .debug_abbrev  0x00002479      0x232 c:/altera/10.1/nios2eds/bin/gnu/h-i686-mingw32/bin/../lib/gcc/nios2-elf/4.1.2/../../../../nios2-elf/lib\libc.a(lib_a-dtoa.o)
 .debug_abbrev  0x000026ab      0x1c6 c:/altera/10.1/nios2eds/bin/gnu/h-i686-mingw32/bin/../lib/gcc/nios2-elf/4.1.2/../../../../nios2-elf/lib\libc.a(lib_a-fflush.o)
 .debug_abbrev  0x00002871      0x24c c:/altera/10.1/nios2eds/bin/gnu/h-i686-mingw32/bin/../lib/gcc/nios2-elf/4.1.2/../../../../nios2-elf/lib\libc.a(lib_a-findfp.o)
 .debug_abbrev  0x00002abd      0x1d9 c:/altera/10.1/nios2eds/bin/gnu/h-i686-mingw32/bin/../lib/gcc/nios2-elf/4.1.2/../../../../nios2-elf/lib\libc.a(lib_a-freer.o)
 .debug_abbrev  0x00002c96      0x1a3 c:/altera/10.1/nios2eds/bin/gnu/h-i686-mingw32/bin/../lib/gcc/nios2-elf/4.1.2/../../../../nios2-elf/lib\libc.a(lib_a-fvwrite.o)
 .debug_abbrev  0x00002e39      0x1e3 c:/altera/10.1/nios2eds/bin/gnu/h-i686-mingw32/bin/../lib/gcc/nios2-elf/4.1.2/../../../../nios2-elf/lib\libc.a(lib_a-fwalk.o)
 .debug_abbrev  0x0000301c      0x18e c:/altera/10.1/nios2eds/bin/gnu/h-i686-mingw32/bin/../lib/gcc/nios2-elf/4.1.2/../../../../nios2-elf/lib\libc.a(lib_a-gettimeofdayr.o)
 .debug_abbrev  0x000031aa      0x157 c:/altera/10.1/nios2eds/bin/gnu/h-i686-mingw32/bin/../lib/gcc/nios2-elf/4.1.2/../../../../nios2-elf/lib\libc.a(lib_a-impure.o)
 .debug_abbrev  0x00003301       0x3b c:/altera/10.1/nios2eds/bin/gnu/h-i686-mingw32/bin/../lib/gcc/nios2-elf/4.1.2/../../../../nios2-elf/lib\libc.a(lib_a-int_errno.o)
 .debug_abbrev  0x0000333c      0x1ed c:/altera/10.1/nios2eds/bin/gnu/h-i686-mingw32/bin/../lib/gcc/nios2-elf/4.1.2/../../../../nios2-elf/lib\libc.a(lib_a-locale.o)
 .debug_abbrev  0x00003529      0x197 c:/altera/10.1/nios2eds/bin/gnu/h-i686-mingw32/bin/../lib/gcc/nios2-elf/4.1.2/../../../../nios2-elf/lib\libc.a(lib_a-makebuf.o)
 .debug_abbrev  0x000036c0      0x216 c:/altera/10.1/nios2eds/bin/gnu/h-i686-mingw32/bin/../lib/gcc/nios2-elf/4.1.2/../../../../nios2-elf/lib\libc.a(lib_a-mallocr.o)
 .debug_abbrev  0x000038d6       0xb5 c:/altera/10.1/nios2eds/bin/gnu/h-i686-mingw32/bin/../lib/gcc/nios2-elf/4.1.2/../../../../nios2-elf/lib\libc.a(lib_a-memchr.o)
 .debug_abbrev  0x0000398b       0xb5 c:/altera/10.1/nios2eds/bin/gnu/h-i686-mingw32/bin/../lib/gcc/nios2-elf/4.1.2/../../../../nios2-elf/lib\libc.a(lib_a-memcpy.o)
 .debug_abbrev  0x00003a40       0xb5 c:/altera/10.1/nios2eds/bin/gnu/h-i686-mingw32/bin/../lib/gcc/nios2-elf/4.1.2/../../../../nios2-elf/lib\libc.a(lib_a-memmove.o)
 .debug_abbrev  0x00003af5       0xb8 c:/altera/10.1/nios2eds/bin/gnu/h-i686-mingw32/bin/../lib/gcc/nios2-elf/4.1.2/../../../../nios2-elf/lib\libc.a(lib_a-memset.o)
 .debug_abbrev  0x00003bad      0x297 c:/altera/10.1/nios2eds/bin/gnu/h-i686-mingw32/bin/../lib/gcc/nios2-elf/4.1.2/../../../../nios2-elf/lib\libc.a(lib_a-mprec.o)
 .debug_abbrev  0x00003e44      0x17f c:/altera/10.1/nios2eds/bin/gnu/h-i686-mingw32/bin/../lib/gcc/nios2-elf/4.1.2/../../../../nios2-elf/lib\libc.a(lib_a-putc.o)
 .debug_abbrev  0x00003fc3      0x1c3 c:/altera/10.1/nios2eds/bin/gnu/h-i686-mingw32/bin/../lib/gcc/nios2-elf/4.1.2/../../../../nios2-elf/lib\libc.a(lib_a-reallocr.o)
 .debug_abbrev  0x00004186       0x79 c:/altera/10.1/nios2eds/bin/gnu/h-i686-mingw32/bin/../lib/gcc/nios2-elf/4.1.2/../../../../nios2-elf/lib\libc.a(lib_a-s_isinfd.o)
 .debug_abbrev  0x000041ff       0x79 c:/altera/10.1/nios2eds/bin/gnu/h-i686-mingw32/bin/../lib/gcc/nios2-elf/4.1.2/../../../../nios2-elf/lib\libc.a(lib_a-s_isnand.o)
 .debug_abbrev  0x00004278      0x18c c:/altera/10.1/nios2eds/bin/gnu/h-i686-mingw32/bin/../lib/gcc/nios2-elf/4.1.2/../../../../nios2-elf/lib\libc.a(lib_a-sbrkr.o)
 .debug_abbrev  0x00004404      0x1c9 c:/altera/10.1/nios2eds/bin/gnu/h-i686-mingw32/bin/../lib/gcc/nios2-elf/4.1.2/../../../../nios2-elf/lib\libc.a(lib_a-stdio.o)
 .debug_abbrev  0x000045cd       0x80 c:/altera/10.1/nios2eds/bin/gnu/h-i686-mingw32/bin/../lib/gcc/nios2-elf/4.1.2/../../../../nios2-elf/lib\libc.a(lib_a-strcmp.o)
 .debug_abbrev  0x0000464d       0x8b c:/altera/10.1/nios2eds/bin/gnu/h-i686-mingw32/bin/../lib/gcc/nios2-elf/4.1.2/../../../../nios2-elf/lib\libc.a(lib_a-strlen.o)
 .debug_abbrev  0x000046d8      0x198 c:/altera/10.1/nios2eds/bin/gnu/h-i686-mingw32/bin/../lib/gcc/nios2-elf/4.1.2/../../../../nios2-elf/lib\libc.a(lib_a-wbuf.o)
 .debug_abbrev  0x00004870      0x184 c:/altera/10.1/nios2eds/bin/gnu/h-i686-mingw32/bin/../lib/gcc/nios2-elf/4.1.2/../../../../nios2-elf/lib\libc.a(lib_a-writer.o)
 .debug_abbrev  0x000049f4      0x1b8 c:/altera/10.1/nios2eds/bin/gnu/h-i686-mingw32/bin/../lib/gcc/nios2-elf/4.1.2/../../../../nios2-elf/lib\libc.a(lib_a-callocr.o)
 .debug_abbrev  0x00004bac      0x17f c:/altera/10.1/nios2eds/bin/gnu/h-i686-mingw32/bin/../lib/gcc/nios2-elf/4.1.2/../../../../nios2-elf/lib\libc.a(lib_a-closer.o)
 .debug_abbrev  0x00004d2b      0x1a7 c:/altera/10.1/nios2eds/bin/gnu/h-i686-mingw32/bin/../lib/gcc/nios2-elf/4.1.2/../../../../nios2-elf/lib\libc.a(lib_a-fclose.o)
 .debug_abbrev  0x00004ed2      0x18e c:/altera/10.1/nios2eds/bin/gnu/h-i686-mingw32/bin/../lib/gcc/nios2-elf/4.1.2/../../../../nios2-elf/lib\libc.a(lib_a-fstatr.o)
 .debug_abbrev  0x00005060      0x17f c:/altera/10.1/nios2eds/bin/gnu/h-i686-mingw32/bin/../lib/gcc/nios2-elf/4.1.2/../../../../nios2-elf/lib\libc.a(lib_a-isattyr.o)
 .debug_abbrev  0x000051df      0x18e c:/altera/10.1/nios2eds/bin/gnu/h-i686-mingw32/bin/../lib/gcc/nios2-elf/4.1.2/../../../../nios2-elf/lib\libc.a(lib_a-lseekr.o)
 .debug_abbrev  0x0000536d      0x17f c:/altera/10.1/nios2eds/bin/gnu/h-i686-mingw32/bin/../lib/gcc/nios2-elf/4.1.2/../../../../nios2-elf/lib\libc.a(lib_a-readr.o)
 .debug_abbrev  0x000054ec       0xee c:/altera/10.1/nios2eds/bin/gnu/h-i686-mingw32/bin/../lib/gcc/nios2-elf/4.1.2\libgcc.a(_muldi3.o)
 .debug_abbrev  0x000055da      0x16b c:/altera/10.1/nios2eds/bin/gnu/h-i686-mingw32/bin/../lib/gcc/nios2-elf/4.1.2\libgcc.a(_udivdi3.o)
 .debug_abbrev  0x00005745      0x18e c:/altera/10.1/nios2eds/bin/gnu/h-i686-mingw32/bin/../lib/gcc/nios2-elf/4.1.2\libgcc.a(_umoddi3.o)
 .debug_abbrev  0x000058d3      0x1d2 c:/altera/10.1/nios2eds/bin/gnu/h-i686-mingw32/bin/../lib/gcc/nios2-elf/4.1.2\libgcc.a(_addsub_df.o)
 .debug_abbrev  0x00005aa5      0x204 c:/altera/10.1/nios2eds/bin/gnu/h-i686-mingw32/bin/../lib/gcc/nios2-elf/4.1.2\libgcc.a(_mul_df.o)
 .debug_abbrev  0x00005ca9      0x151 c:/altera/10.1/nios2eds/bin/gnu/h-i686-mingw32/bin/../lib/gcc/nios2-elf/4.1.2\libgcc.a(_eq_df.o)
 .debug_abbrev  0x00005dfa      0x151 c:/altera/10.1/nios2eds/bin/gnu/h-i686-mingw32/bin/../lib/gcc/nios2-elf/4.1.2\libgcc.a(_ne_df.o)
 .debug_abbrev  0x00005f4b      0x151 c:/altera/10.1/nios2eds/bin/gnu/h-i686-mingw32/bin/../lib/gcc/nios2-elf/4.1.2\libgcc.a(_ge_df.o)
 .debug_abbrev  0x0000609c      0x176 c:/altera/10.1/nios2eds/bin/gnu/h-i686-mingw32/bin/../lib/gcc/nios2-elf/4.1.2\libgcc.a(_df_to_si.o)
 .debug_abbrev  0x00006212      0x155 c:/altera/10.1/nios2eds/bin/gnu/h-i686-mingw32/bin/../lib/gcc/nios2-elf/4.1.2\libgcc.a(_usi_to_df.o)
 .debug_abbrev  0x00006367       0xfb ../helloWorld_bsp\libhal_bsp.a(alt_close.o)
 .debug_abbrev  0x00006462       0xc7 ../helloWorld_bsp\libhal_bsp.a(alt_dev.o)
 .debug_abbrev  0x00006529       0x5e ../helloWorld_bsp\libhal_bsp.a(alt_errno.o)
 .debug_abbrev  0x00006587       0xfb ../helloWorld_bsp\libhal_bsp.a(alt_fstat.o)
 .debug_abbrev  0x00006682       0xe5 ../helloWorld_bsp\libhal_bsp.a(alt_gettod.o)
 .debug_abbrev  0x00006767       0xfb ../helloWorld_bsp\libhal_bsp.a(alt_isatty.o)
 .debug_abbrev  0x00006862       0xfb ../helloWorld_bsp\libhal_bsp.a(alt_lseek.o)
 .debug_abbrev  0x0000695d       0xbe ../helloWorld_bsp\libhal_bsp.a(alt_main.o)
 .debug_abbrev  0x00006a1b      0x17f ../helloWorld_bsp\libhal_bsp.a(alt_malloc_lock.o)
 .debug_abbrev  0x00006b9a       0x8f ../helloWorld_bsp\libhal_bsp.a(alt_printf.o)
 .debug_abbrev  0x00006c29      0x17d ../helloWorld_bsp\libhal_bsp.a(alt_putchar.o)
 .debug_abbrev  0x00006da6       0xfb ../helloWorld_bsp\libhal_bsp.a(alt_read.o)
 .debug_abbrev  0x00006ea1       0xc1 ../helloWorld_bsp\libhal_bsp.a(alt_release_fd.o)
 .debug_abbrev  0x00006f62      0x11c ../helloWorld_bsp\libhal_bsp.a(alt_sbrk.o)
 .debug_abbrev  0x0000707e      0x161 ../helloWorld_bsp\libhal_bsp.a(alt_tick.o)
 .debug_abbrev  0x000071df       0x5b ../helloWorld_bsp\libhal_bsp.a(alt_usleep.o)
 .debug_abbrev  0x0000723a      0x100 ../helloWorld_bsp\libhal_bsp.a(alt_write.o)
 .debug_abbrev  0x0000733a      0x189 ../helloWorld_bsp\libhal_bsp.a(alt_sys_init.o)
 .debug_abbrev  0x000074c3      0x1bf ../helloWorld_bsp\libhal_bsp.a(altera_avalon_cfi_flash.o)
 .debug_abbrev  0x00007682      0x185 ../helloWorld_bsp\libhal_bsp.a(altera_avalon_cfi_flash_table.o)
 .debug_abbrev  0x00007807       0xf7 ../helloWorld_bsp\libhal_bsp.a(altera_avalon_jtag_uart_fd.o)
 .debug_abbrev  0x000078fe      0x17c ../helloWorld_bsp\libhal_bsp.a(altera_avalon_jtag_uart_init.o)
 .debug_abbrev  0x00007a7a       0xf0 ../helloWorld_bsp\libhal_bsp.a(altera_avalon_jtag_uart_ioctl.o)
 .debug_abbrev  0x00007b6a      0x191 ../helloWorld_bsp\libhal_bsp.a(altera_avalon_jtag_uart_read.o)
 .debug_abbrev  0x00007cfb      0x18d ../helloWorld_bsp\libhal_bsp.a(altera_avalon_jtag_uart_write.o)
 .debug_abbrev  0x00007e88       0x7c ../helloWorld_bsp\libhal_bsp.a(altera_avalon_spi.o)
 .debug_abbrev  0x00007f04      0x137 ../helloWorld_bsp\libhal_bsp.a(altera_avalon_timer_sc.o)
 .debug_abbrev  0x0000803b       0xe8 ../helloWorld_bsp\libhal_bsp.a(altera_avalon_uart_fd.o)
 .debug_abbrev  0x00008123      0x148 ../helloWorld_bsp\libhal_bsp.a(altera_avalon_uart_init.o)
 .debug_abbrev  0x0000826b      0x174 ../helloWorld_bsp\libhal_bsp.a(altera_avalon_uart_read.o)
 .debug_abbrev  0x000083df      0x17b ../helloWorld_bsp\libhal_bsp.a(altera_avalon_uart_write.o)
 .debug_abbrev  0x0000855a      0x16d ../helloWorld_bsp\libhal_bsp.a(altera_up_avalon_ps2.o)
 .debug_abbrev  0x000086c7      0x111 ../helloWorld_bsp\libhal_bsp.a(altera_up_avalon_video_character_buffer_with_dma.o)
 .debug_abbrev  0x000087d8      0x14a ../helloWorld_bsp\libhal_bsp.a(altera_up_ps2_keyboard.o)
 .debug_abbrev  0x00008922      0x172 ../helloWorld_bsp\libhal_bsp.a(alt_alarm_start.o)
 .debug_abbrev  0x00008a94       0x6c ../helloWorld_bsp\libhal_bsp.a(alt_busy_sleep.o)
 .debug_abbrev  0x00008b00       0x7a ../helloWorld_bsp\libhal_bsp.a(alt_dcache_flush.o)
 .debug_abbrev  0x00008b7a       0xf6 ../helloWorld_bsp\libhal_bsp.a(alt_dev_llist_insert.o)
 .debug_abbrev  0x00008c70       0x74 ../helloWorld_bsp\libhal_bsp.a(alt_do_ctors.o)
 .debug_abbrev  0x00008ce4       0x74 ../helloWorld_bsp\libhal_bsp.a(alt_do_dtors.o)
 .debug_abbrev  0x00008d58       0xcf ../helloWorld_bsp\libhal_bsp.a(alt_find_dev.o)
 .debug_abbrev  0x00008e27      0x121 ../helloWorld_bsp\libhal_bsp.a(alt_flash_dev.o)
 .debug_abbrev  0x00008f48       0xf0 ../helloWorld_bsp\libhal_bsp.a(alt_io_redirect.o)
 .debug_abbrev  0x00009038      0x180 ../helloWorld_bsp\libhal_bsp.a(alt_irq_register.o)
 .debug_abbrev  0x000091b8       0x44 ../helloWorld_bsp\libhal_bsp.a(alt_irq_vars.o)
 .debug_abbrev  0x000091fc      0x112 ../helloWorld_bsp\libhal_bsp.a(alt_open.o)
 .debug_abbrev  0x0000930e       0x64 ../helloWorld_bsp\libhal_bsp.a(altera_nios2_irq.o)
 .debug_abbrev  0x00009372      0x14d ../helloWorld_bsp\libhal_bsp.a(altera_avalon_cfi_flash_amd.o)
 .debug_abbrev  0x000094bf      0x14d ../helloWorld_bsp\libhal_bsp.a(altera_avalon_cfi_flash_intel.o)
 .debug_abbrev  0x0000960c       0xcf ../helloWorld_bsp\libhal_bsp.a(alt_find_file.o)
 .debug_abbrev  0x000096db       0xfb ../helloWorld_bsp\libhal_bsp.a(alt_get_fd.o)
 .debug_abbrev  0x000097d6       0x12 ../helloWorld_bsp\libhal_bsp.a(alt_irq_entry.o)
 .debug_abbrev  0x000097e8      0x124 ../helloWorld_bsp\libhal_bsp.a(alt_irq_handler.o)
 .debug_abbrev  0x0000990c       0x12 ../helloWorld_bsp\libhal_bsp.a(alt_exception_entry.o)
 .debug_abbrev  0x0000991e       0xb7 c:/altera/10.1/nios2eds/bin/gnu/h-i686-mingw32/bin/../lib/gcc/nios2-elf/4.1.2/../../../../nios2-elf/lib\libc.a(lib_a-atexit.o)
 .debug_abbrev  0x000099d5      0x16e c:/altera/10.1/nios2eds/bin/gnu/h-i686-mingw32/bin/../lib/gcc/nios2-elf/4.1.2/../../../../nios2-elf/lib\libc.a(lib_a-exit.o)
 .debug_abbrev  0x00009b43       0x7c c:/altera/10.1/nios2eds/bin/gnu/h-i686-mingw32/bin/../lib/gcc/nios2-elf/4.1.2/../../../../nios2-elf/lib\libc.a(lib_a-memcmp.o)
 .debug_abbrev  0x00009bbf       0x8f c:/altera/10.1/nios2eds/bin/gnu/h-i686-mingw32/bin/../lib/gcc/nios2-elf/4.1.2/../../../../nios2-elf/lib\libc.a(lib_a-strcpy.o)
 .debug_abbrev  0x00009c4e      0x1ae c:/altera/10.1/nios2eds/bin/gnu/h-i686-mingw32/bin/../lib/gcc/nios2-elf/4.1.2/../../../../nios2-elf/lib\libc.a(lib_a-__atexit.o)
 .debug_abbrev  0x00009dfc      0x1de c:/altera/10.1/nios2eds/bin/gnu/h-i686-mingw32/bin/../lib/gcc/nios2-elf/4.1.2/../../../../nios2-elf/lib\libc.a(lib_a-__call_atexit.o)
 .debug_abbrev  0x00009fda       0x99 ../helloWorld_bsp\libhal_bsp.a(alt_exit.o)

.debug_line     0x00000000    0x19269
 *(.debug_line)
 .debug_line    0x00000000       0x7b ../helloWorld_bsp/obj/HAL/src/crt0.o
 .debug_line    0x0000007b      0x94c obj/hello_world.o
 .debug_line    0x000009c7      0x121 c:/altera/10.1/nios2eds/bin/gnu/h-i686-mingw32/bin/../lib/gcc/nios2-elf/4.1.2\libgcc.a(_gt_sf.o)
 .debug_line    0x00000ae8      0x121 c:/altera/10.1/nios2eds/bin/gnu/h-i686-mingw32/bin/../lib/gcc/nios2-elf/4.1.2\libgcc.a(_lt_sf.o)
 .debug_line    0x00000c09       0xd1 c:/altera/10.1/nios2eds/bin/gnu/h-i686-mingw32/bin/../lib/gcc/nios2-elf/4.1.2\libgcc.a(_sf_to_df.o)
 .debug_line    0x00000cda      0x301 c:/altera/10.1/nios2eds/bin/gnu/h-i686-mingw32/bin/../lib/gcc/nios2-elf/4.1.2\libgcc.a(_div_df.o)
 .debug_line    0x00000fdb      0x129 c:/altera/10.1/nios2eds/bin/gnu/h-i686-mingw32/bin/../lib/gcc/nios2-elf/4.1.2\libgcc.a(_gt_df.o)
 .debug_line    0x00001104      0x129 c:/altera/10.1/nios2eds/bin/gnu/h-i686-mingw32/bin/../lib/gcc/nios2-elf/4.1.2\libgcc.a(_lt_df.o)
 .debug_line    0x0000122d      0x175 c:/altera/10.1/nios2eds/bin/gnu/h-i686-mingw32/bin/../lib/gcc/nios2-elf/4.1.2\libgcc.a(_si_to_df.o)
 .debug_line    0x000013a2       0xe9 c:/altera/10.1/nios2eds/bin/gnu/h-i686-mingw32/bin/../lib/gcc/nios2-elf/4.1.2\libgcc.a(_make_df.o)
 .debug_line    0x0000148b      0x121 c:/altera/10.1/nios2eds/bin/gnu/h-i686-mingw32/bin/../lib/gcc/nios2-elf/4.1.2\libgcc.a(_df_to_sf.o)
 .debug_line    0x000015ac       0x94 c:/altera/10.1/nios2eds/bin/gnu/h-i686-mingw32/bin/../lib/gcc/nios2-elf/4.1.2\libgcc.a(_thenan_df.o)
 .debug_line    0x00001640      0x24f c:/altera/10.1/nios2eds/bin/gnu/h-i686-mingw32/bin/../lib/gcc/nios2-elf/4.1.2\libgcc.a(lib2-divmod.o)
 .debug_line    0x0000188f      0x105 c:/altera/10.1/nios2eds/bin/gnu/h-i686-mingw32/bin/../lib/gcc/nios2-elf/4.1.2\libgcc.a(_clzsi2.o)
 .debug_line    0x00001994      0x197 c:/altera/10.1/nios2eds/bin/gnu/h-i686-mingw32/bin/../lib/gcc/nios2-elf/4.1.2\libgcc.a(_unpack_sf.o)
 .debug_line    0x00001b2b      0x177 c:/altera/10.1/nios2eds/bin/gnu/h-i686-mingw32/bin/../lib/gcc/nios2-elf/4.1.2\libgcc.a(_fpcmp_parts_sf.o)
 .debug_line    0x00001ca2       0xe1 c:/altera/10.1/nios2eds/bin/gnu/h-i686-mingw32/bin/../lib/gcc/nios2-elf/4.1.2\libgcc.a(_make_sf.o)
 .debug_line    0x00001d83      0x222 c:/altera/10.1/nios2eds/bin/gnu/h-i686-mingw32/bin/../lib/gcc/nios2-elf/4.1.2\libgcc.a(_pack_df.o)
 .debug_line    0x00001fa5      0x1e4 c:/altera/10.1/nios2eds/bin/gnu/h-i686-mingw32/bin/../lib/gcc/nios2-elf/4.1.2\libgcc.a(_unpack_df.o)
 .debug_line    0x00002189      0x187 c:/altera/10.1/nios2eds/bin/gnu/h-i686-mingw32/bin/../lib/gcc/nios2-elf/4.1.2\libgcc.a(_fpcmp_parts_df.o)
 .debug_line    0x00002310       0xaa c:/altera/10.1/nios2eds/bin/gnu/h-i686-mingw32/bin/../lib/gcc/nios2-elf/4.1.2\libgcc.a(_clz.o)
 .debug_line    0x000023ba      0x1ca c:/altera/10.1/nios2eds/bin/gnu/h-i686-mingw32/bin/../lib/gcc/nios2-elf/4.1.2\libgcc.a(_pack_sf.o)
 .debug_line    0x00002584      0x275 c:/altera/10.1/nios2eds/bin/gnu/h-i686-mingw32/bin/../lib/gcc/nios2-elf/4.1.2/../../../../nios2-elf/lib\libc.a(lib_a-printf.o)
 .debug_line    0x000027f9      0x23e c:/altera/10.1/nios2eds/bin/gnu/h-i686-mingw32/bin/../lib/gcc/nios2-elf/4.1.2/../../../../nios2-elf/lib\libc.a(lib_a-putchar.o)
 .debug_line    0x00002a37      0x217 c:/altera/10.1/nios2eds/bin/gnu/h-i686-mingw32/bin/../lib/gcc/nios2-elf/4.1.2/../../../../nios2-elf/lib\libc.a(lib_a-rand.o)
 .debug_line    0x00002c4e      0x221 c:/altera/10.1/nios2eds/bin/gnu/h-i686-mingw32/bin/../lib/gcc/nios2-elf/4.1.2/../../../../nios2-elf/lib\libc.a(lib_a-time.o)
 .debug_line    0x00002e6f     0x10e6 c:/altera/10.1/nios2eds/bin/gnu/h-i686-mingw32/bin/../lib/gcc/nios2-elf/4.1.2/../../../../nios2-elf/lib\libc.a(lib_a-vfprintf.o)
 .debug_line    0x00003f55      0x2ca c:/altera/10.1/nios2eds/bin/gnu/h-i686-mingw32/bin/../lib/gcc/nios2-elf/4.1.2/../../../../nios2-elf/lib\libc.a(lib_a-wsetup.o)
 .debug_line    0x0000421f     0x12a0 c:/altera/10.1/nios2eds/bin/gnu/h-i686-mingw32/bin/../lib/gcc/nios2-elf/4.1.2/../../../../nios2-elf/lib\libc.a(lib_a-dtoa.o)
 .debug_line    0x000054bf      0x3e7 c:/altera/10.1/nios2eds/bin/gnu/h-i686-mingw32/bin/../lib/gcc/nios2-elf/4.1.2/../../../../nios2-elf/lib\libc.a(lib_a-fflush.o)
 .debug_line    0x000058a6      0x5db c:/altera/10.1/nios2eds/bin/gnu/h-i686-mingw32/bin/../lib/gcc/nios2-elf/4.1.2/../../../../nios2-elf/lib\libc.a(lib_a-findfp.o)
 .debug_line    0x00005e81      0x5c5 c:/altera/10.1/nios2eds/bin/gnu/h-i686-mingw32/bin/../lib/gcc/nios2-elf/4.1.2/../../../../nios2-elf/lib\libc.a(lib_a-freer.o)
 .debug_line    0x00006446      0x61b c:/altera/10.1/nios2eds/bin/gnu/h-i686-mingw32/bin/../lib/gcc/nios2-elf/4.1.2/../../../../nios2-elf/lib\libc.a(lib_a-fvwrite.o)
 .debug_line    0x00006a61      0x324 c:/altera/10.1/nios2eds/bin/gnu/h-i686-mingw32/bin/../lib/gcc/nios2-elf/4.1.2/../../../../nios2-elf/lib\libc.a(lib_a-fwalk.o)
 .debug_line    0x00006d85      0x254 c:/altera/10.1/nios2eds/bin/gnu/h-i686-mingw32/bin/../lib/gcc/nios2-elf/4.1.2/../../../../nios2-elf/lib\libc.a(lib_a-gettimeofdayr.o)
 .debug_line    0x00006fd9      0x1f4 c:/altera/10.1/nios2eds/bin/gnu/h-i686-mingw32/bin/../lib/gcc/nios2-elf/4.1.2/../../../../nios2-elf/lib\libc.a(lib_a-impure.o)
 .debug_line    0x000071cd      0x1b9 c:/altera/10.1/nios2eds/bin/gnu/h-i686-mingw32/bin/../lib/gcc/nios2-elf/4.1.2/../../../../nios2-elf/lib\libc.a(lib_a-int_errno.o)
 .debug_line    0x00007386      0x2a2 c:/altera/10.1/nios2eds/bin/gnu/h-i686-mingw32/bin/../lib/gcc/nios2-elf/4.1.2/../../../../nios2-elf/lib\libc.a(lib_a-locale.o)
 .debug_line    0x00007628      0x39d c:/altera/10.1/nios2eds/bin/gnu/h-i686-mingw32/bin/../lib/gcc/nios2-elf/4.1.2/../../../../nios2-elf/lib\libc.a(lib_a-makebuf.o)
 .debug_line    0x000079c5      0x7e4 c:/altera/10.1/nios2eds/bin/gnu/h-i686-mingw32/bin/../lib/gcc/nios2-elf/4.1.2/../../../../nios2-elf/lib\libc.a(lib_a-mallocr.o)
 .debug_line    0x000081a9      0x2ca c:/altera/10.1/nios2eds/bin/gnu/h-i686-mingw32/bin/../lib/gcc/nios2-elf/4.1.2/../../../../nios2-elf/lib\libc.a(lib_a-memchr.o)
 .debug_line    0x00008473      0x199 c:/altera/10.1/nios2eds/bin/gnu/h-i686-mingw32/bin/../lib/gcc/nios2-elf/4.1.2/../../../../nios2-elf/lib\libc.a(lib_a-memcpy.o)
 .debug_line    0x0000860c      0x2d1 c:/altera/10.1/nios2eds/bin/gnu/h-i686-mingw32/bin/../lib/gcc/nios2-elf/4.1.2/../../../../nios2-elf/lib\libc.a(lib_a-memmove.o)
 .debug_line    0x000088dd      0x2c8 c:/altera/10.1/nios2eds/bin/gnu/h-i686-mingw32/bin/../lib/gcc/nios2-elf/4.1.2/../../../../nios2-elf/lib\libc.a(lib_a-memset.o)
 .debug_line    0x00008ba5     0x121d c:/altera/10.1/nios2eds/bin/gnu/h-i686-mingw32/bin/../lib/gcc/nios2-elf/4.1.2/../../../../nios2-elf/lib\libc.a(lib_a-mprec.o)
 .debug_line    0x00009dc2      0x29e c:/altera/10.1/nios2eds/bin/gnu/h-i686-mingw32/bin/../lib/gcc/nios2-elf/4.1.2/../../../../nios2-elf/lib\libc.a(lib_a-putc.o)
 .debug_line    0x0000a060      0x564 c:/altera/10.1/nios2eds/bin/gnu/h-i686-mingw32/bin/../lib/gcc/nios2-elf/4.1.2/../../../../nios2-elf/lib\libc.a(lib_a-reallocr.o)
 .debug_line    0x0000a5c4      0x1fc c:/altera/10.1/nios2eds/bin/gnu/h-i686-mingw32/bin/../lib/gcc/nios2-elf/4.1.2/../../../../nios2-elf/lib\libc.a(lib_a-s_isinfd.o)
 .debug_line    0x0000a7c0      0x1f4 c:/altera/10.1/nios2eds/bin/gnu/h-i686-mingw32/bin/../lib/gcc/nios2-elf/4.1.2/../../../../nios2-elf/lib\libc.a(lib_a-s_isnand.o)
 .debug_line    0x0000a9b4      0x260 c:/altera/10.1/nios2eds/bin/gnu/h-i686-mingw32/bin/../lib/gcc/nios2-elf/4.1.2/../../../../nios2-elf/lib\libc.a(lib_a-sbrkr.o)
 .debug_line    0x0000ac14      0x366 c:/altera/10.1/nios2eds/bin/gnu/h-i686-mingw32/bin/../lib/gcc/nios2-elf/4.1.2/../../../../nios2-elf/lib\libc.a(lib_a-stdio.o)
 .debug_line    0x0000af7a      0x29c c:/altera/10.1/nios2eds/bin/gnu/h-i686-mingw32/bin/../lib/gcc/nios2-elf/4.1.2/../../../../nios2-elf/lib\libc.a(lib_a-strcmp.o)
 .debug_line    0x0000b216      0x234 c:/altera/10.1/nios2eds/bin/gnu/h-i686-mingw32/bin/../lib/gcc/nios2-elf/4.1.2/../../../../nios2-elf/lib\libc.a(lib_a-strlen.o)
 .debug_line    0x0000b44a      0x32a c:/altera/10.1/nios2eds/bin/gnu/h-i686-mingw32/bin/../lib/gcc/nios2-elf/4.1.2/../../../../nios2-elf/lib\libc.a(lib_a-wbuf.o)
 .debug_line    0x0000b774      0x261 c:/altera/10.1/nios2eds/bin/gnu/h-i686-mingw32/bin/../lib/gcc/nios2-elf/4.1.2/../../../../nios2-elf/lib\libc.a(lib_a-writer.o)
 .debug_line    0x0000b9d5      0x236 c:/altera/10.1/nios2eds/bin/gnu/h-i686-mingw32/bin/../lib/gcc/nios2-elf/4.1.2/../../../../nios2-elf/lib\libc.a(lib_a-callocr.o)
 .debug_line    0x0000bc0b      0x261 c:/altera/10.1/nios2eds/bin/gnu/h-i686-mingw32/bin/../lib/gcc/nios2-elf/4.1.2/../../../../nios2-elf/lib\libc.a(lib_a-closer.o)
 .debug_line    0x0000be6c      0x2c2 c:/altera/10.1/nios2eds/bin/gnu/h-i686-mingw32/bin/../lib/gcc/nios2-elf/4.1.2/../../../../nios2-elf/lib\libc.a(lib_a-fclose.o)
 .debug_line    0x0000c12e      0x23e c:/altera/10.1/nios2eds/bin/gnu/h-i686-mingw32/bin/../lib/gcc/nios2-elf/4.1.2/../../../../nios2-elf/lib\libc.a(lib_a-fstatr.o)
 .debug_line    0x0000c36c      0x262 c:/altera/10.1/nios2eds/bin/gnu/h-i686-mingw32/bin/../lib/gcc/nios2-elf/4.1.2/../../../../nios2-elf/lib\libc.a(lib_a-isattyr.o)
 .debug_line    0x0000c5ce      0x261 c:/altera/10.1/nios2eds/bin/gnu/h-i686-mingw32/bin/../lib/gcc/nios2-elf/4.1.2/../../../../nios2-elf/lib\libc.a(lib_a-lseekr.o)
 .debug_line    0x0000c82f      0x260 c:/altera/10.1/nios2eds/bin/gnu/h-i686-mingw32/bin/../lib/gcc/nios2-elf/4.1.2/../../../../nios2-elf/lib\libc.a(lib_a-readr.o)
 .debug_line    0x0000ca8f      0x11f c:/altera/10.1/nios2eds/bin/gnu/h-i686-mingw32/bin/../lib/gcc/nios2-elf/4.1.2\libgcc.a(_muldi3.o)
 .debug_line    0x0000cbae      0x2f2 c:/altera/10.1/nios2eds/bin/gnu/h-i686-mingw32/bin/../lib/gcc/nios2-elf/4.1.2\libgcc.a(_udivdi3.o)
 .debug_line    0x0000cea0      0x37d c:/altera/10.1/nios2eds/bin/gnu/h-i686-mingw32/bin/../lib/gcc/nios2-elf/4.1.2\libgcc.a(_umoddi3.o)
 .debug_line    0x0000d21d      0x430 c:/altera/10.1/nios2eds/bin/gnu/h-i686-mingw32/bin/../lib/gcc/nios2-elf/4.1.2\libgcc.a(_addsub_df.o)
 .debug_line    0x0000d64d      0x3e5 c:/altera/10.1/nios2eds/bin/gnu/h-i686-mingw32/bin/../lib/gcc/nios2-elf/4.1.2\libgcc.a(_mul_df.o)
 .debug_line    0x0000da32      0x129 c:/altera/10.1/nios2eds/bin/gnu/h-i686-mingw32/bin/../lib/gcc/nios2-elf/4.1.2\libgcc.a(_eq_df.o)
 .debug_line    0x0000db5b      0x129 c:/altera/10.1/nios2eds/bin/gnu/h-i686-mingw32/bin/../lib/gcc/nios2-elf/4.1.2\libgcc.a(_ne_df.o)
 .debug_line    0x0000dc84      0x129 c:/altera/10.1/nios2eds/bin/gnu/h-i686-mingw32/bin/../lib/gcc/nios2-elf/4.1.2\libgcc.a(_ge_df.o)
 .debug_line    0x0000ddad      0x149 c:/altera/10.1/nios2eds/bin/gnu/h-i686-mingw32/bin/../lib/gcc/nios2-elf/4.1.2\libgcc.a(_df_to_si.o)
 .debug_line    0x0000def6      0x189 c:/altera/10.1/nios2eds/bin/gnu/h-i686-mingw32/bin/../lib/gcc/nios2-elf/4.1.2\libgcc.a(_usi_to_df.o)
 .debug_line    0x0000e07f      0x2b7 ../helloWorld_bsp\libhal_bsp.a(alt_close.o)
 .debug_line    0x0000e336      0x272 ../helloWorld_bsp\libhal_bsp.a(alt_dev.o)
 .debug_line    0x0000e5a8      0x1c8 ../helloWorld_bsp\libhal_bsp.a(alt_errno.o)
 .debug_line    0x0000e770      0x2bf ../helloWorld_bsp\libhal_bsp.a(alt_fstat.o)
 .debug_line    0x0000ea2f      0x313 ../helloWorld_bsp\libhal_bsp.a(alt_gettod.o)
 .debug_line    0x0000ed42      0x2c0 ../helloWorld_bsp\libhal_bsp.a(alt_isatty.o)
 .debug_line    0x0000f002      0x2bf ../helloWorld_bsp\libhal_bsp.a(alt_lseek.o)
 .debug_line    0x0000f2c1      0x2fc ../helloWorld_bsp\libhal_bsp.a(alt_main.o)
 .debug_line    0x0000f5bd      0x22a ../helloWorld_bsp\libhal_bsp.a(alt_malloc_lock.o)
 .debug_line    0x0000f7e7      0x1fb ../helloWorld_bsp\libhal_bsp.a(alt_printf.o)
 .debug_line    0x0000f9e2      0x1e8 ../helloWorld_bsp\libhal_bsp.a(alt_putchar.o)
 .debug_line    0x0000fbca      0x2e6 ../helloWorld_bsp\libhal_bsp.a(alt_read.o)
 .debug_line    0x0000feb0      0x111 ../helloWorld_bsp\libhal_bsp.a(alt_release_fd.o)
 .debug_line    0x0000ffc1      0x298 ../helloWorld_bsp\libhal_bsp.a(alt_sbrk.o)
 .debug_line    0x00010259      0x313 ../helloWorld_bsp\libhal_bsp.a(alt_tick.o)
 .debug_line    0x0001056c      0x21d ../helloWorld_bsp\libhal_bsp.a(alt_usleep.o)
 .debug_line    0x00010789      0x2e7 ../helloWorld_bsp\libhal_bsp.a(alt_write.o)
 .debug_line    0x00010a70      0x428 ../helloWorld_bsp\libhal_bsp.a(alt_sys_init.o)
 .debug_line    0x00010e98      0x591 ../helloWorld_bsp\libhal_bsp.a(altera_avalon_cfi_flash.o)
 .debug_line    0x00011429      0x96f ../helloWorld_bsp\libhal_bsp.a(altera_avalon_cfi_flash_table.o)
 .debug_line    0x00011d98      0x238 ../helloWorld_bsp\libhal_bsp.a(altera_avalon_jtag_uart_fd.o)
 .debug_line    0x00011fd0      0x4dd ../helloWorld_bsp\libhal_bsp.a(altera_avalon_jtag_uart_init.o)
 .debug_line    0x000124ad      0x335 ../helloWorld_bsp\libhal_bsp.a(altera_avalon_jtag_uart_ioctl.o)
 .debug_line    0x000127e2      0x429 ../helloWorld_bsp\libhal_bsp.a(altera_avalon_jtag_uart_read.o)
 .debug_line    0x00012c0b      0x437 ../helloWorld_bsp\libhal_bsp.a(altera_avalon_jtag_uart_write.o)
 .debug_line    0x00013042      0x213 ../helloWorld_bsp\libhal_bsp.a(altera_avalon_spi.o)
 .debug_line    0x00013255      0x2e8 ../helloWorld_bsp\libhal_bsp.a(altera_avalon_timer_sc.o)
 .debug_line    0x0001353d      0x1f3 ../helloWorld_bsp\libhal_bsp.a(altera_avalon_uart_fd.o)
 .debug_line    0x00013730      0x4c7 ../helloWorld_bsp\libhal_bsp.a(altera_avalon_uart_init.o)
 .debug_line    0x00013bf7      0x439 ../helloWorld_bsp\libhal_bsp.a(altera_avalon_uart_read.o)
 .debug_line    0x00014030      0x41a ../helloWorld_bsp\libhal_bsp.a(altera_avalon_uart_write.o)
 .debug_line    0x0001444a      0x613 ../helloWorld_bsp\libhal_bsp.a(altera_up_avalon_ps2.o)
 .debug_line    0x00014a5d      0x3b3 ../helloWorld_bsp\libhal_bsp.a(altera_up_avalon_video_character_buffer_with_dma.o)
 .debug_line    0x00014e10      0x566 ../helloWorld_bsp\libhal_bsp.a(altera_up_ps2_keyboard.o)
 .debug_line    0x00015376      0x313 ../helloWorld_bsp\libhal_bsp.a(alt_alarm_start.o)
 .debug_line    0x00015689      0x277 ../helloWorld_bsp\libhal_bsp.a(alt_busy_sleep.o)
 .debug_line    0x00015900      0x1ff ../helloWorld_bsp\libhal_bsp.a(alt_dcache_flush.o)
 .debug_line    0x00015aff      0x278 ../helloWorld_bsp\libhal_bsp.a(alt_dev_llist_insert.o)
 .debug_line    0x00015d77       0xa7 ../helloWorld_bsp\libhal_bsp.a(alt_do_ctors.o)
 .debug_line    0x00015e1e       0xa7 ../helloWorld_bsp\libhal_bsp.a(alt_do_dtors.o)
 .debug_line    0x00015ec5      0x289 ../helloWorld_bsp\libhal_bsp.a(alt_find_dev.o)
 .debug_line    0x0001614e      0x286 ../helloWorld_bsp\libhal_bsp.a(alt_flash_dev.o)
 .debug_line    0x000163d4      0x2d2 ../helloWorld_bsp\libhal_bsp.a(alt_io_redirect.o)
 .debug_line    0x000166a6      0x321 ../helloWorld_bsp\libhal_bsp.a(alt_irq_register.o)
 .debug_line    0x000169c7       0x96 ../helloWorld_bsp\libhal_bsp.a(alt_irq_vars.o)
 .debug_line    0x00016a5d      0x31d ../helloWorld_bsp\libhal_bsp.a(alt_open.o)
 .debug_line    0x00016d7a      0x200 ../helloWorld_bsp\libhal_bsp.a(altera_nios2_irq.o)
 .debug_line    0x00016f7a      0x463 ../helloWorld_bsp\libhal_bsp.a(altera_avalon_cfi_flash_amd.o)
 .debug_line    0x000173dd      0x455 ../helloWorld_bsp\libhal_bsp.a(altera_avalon_cfi_flash_intel.o)
 .debug_line    0x00017832      0x29a ../helloWorld_bsp\libhal_bsp.a(alt_find_file.o)
 .debug_line    0x00017acc      0x2b5 ../helloWorld_bsp\libhal_bsp.a(alt_get_fd.o)
 .debug_line    0x00017d81       0x8f ../helloWorld_bsp\libhal_bsp.a(alt_irq_entry.o)
 .debug_line    0x00017e10      0x27f ../helloWorld_bsp\libhal_bsp.a(alt_irq_handler.o)
 .debug_line    0x0001808f       0xcf ../helloWorld_bsp\libhal_bsp.a(alt_exception_entry.o)
 .debug_line    0x0001815e      0x1da c:/altera/10.1/nios2eds/bin/gnu/h-i686-mingw32/bin/../lib/gcc/nios2-elf/4.1.2/../../../../nios2-elf/lib\libc.a(lib_a-atexit.o)
 .debug_line    0x00018338      0x212 c:/altera/10.1/nios2eds/bin/gnu/h-i686-mingw32/bin/../lib/gcc/nios2-elf/4.1.2/../../../../nios2-elf/lib\libc.a(lib_a-exit.o)
 .debug_line    0x0001854a      0x266 c:/altera/10.1/nios2eds/bin/gnu/h-i686-mingw32/bin/../lib/gcc/nios2-elf/4.1.2/../../../../nios2-elf/lib\libc.a(lib_a-memcmp.o)
 .debug_line    0x000187b0      0x24e c:/altera/10.1/nios2eds/bin/gnu/h-i686-mingw32/bin/../lib/gcc/nios2-elf/4.1.2/../../../../nios2-elf/lib\libc.a(lib_a-strcpy.o)
 .debug_line    0x000189fe      0x2ed c:/altera/10.1/nios2eds/bin/gnu/h-i686-mingw32/bin/../lib/gcc/nios2-elf/4.1.2/../../../../nios2-elf/lib\libc.a(lib_a-__atexit.o)
 .debug_line    0x00018ceb      0x341 c:/altera/10.1/nios2eds/bin/gnu/h-i686-mingw32/bin/../lib/gcc/nios2-elf/4.1.2/../../../../nios2-elf/lib\libc.a(lib_a-__call_atexit.o)
 .debug_line    0x0001902c      0x23d ../helloWorld_bsp\libhal_bsp.a(alt_exit.o)

.debug_frame    0x00000000     0x2520
 *(.debug_frame)
 .debug_frame   0x00000000      0x198 obj/hello_world.o
 .debug_frame   0x00000198       0x2c c:/altera/10.1/nios2eds/bin/gnu/h-i686-mingw32/bin/../lib/gcc/nios2-elf/4.1.2\libgcc.a(_gt_sf.o)
 .debug_frame   0x000001c4       0x2c c:/altera/10.1/nios2eds/bin/gnu/h-i686-mingw32/bin/../lib/gcc/nios2-elf/4.1.2\libgcc.a(_lt_sf.o)
 .debug_frame   0x000001f0       0x28 c:/altera/10.1/nios2eds/bin/gnu/h-i686-mingw32/bin/../lib/gcc/nios2-elf/4.1.2\libgcc.a(_sf_to_df.o)
 .debug_frame   0x00000218       0x30 c:/altera/10.1/nios2eds/bin/gnu/h-i686-mingw32/bin/../lib/gcc/nios2-elf/4.1.2\libgcc.a(_div_df.o)
 .debug_frame   0x00000248       0x2c c:/altera/10.1/nios2eds/bin/gnu/h-i686-mingw32/bin/../lib/gcc/nios2-elf/4.1.2\libgcc.a(_gt_df.o)
 .debug_frame   0x00000274       0x2c c:/altera/10.1/nios2eds/bin/gnu/h-i686-mingw32/bin/../lib/gcc/nios2-elf/4.1.2\libgcc.a(_lt_df.o)
 .debug_frame   0x000002a0       0x30 c:/altera/10.1/nios2eds/bin/gnu/h-i686-mingw32/bin/../lib/gcc/nios2-elf/4.1.2\libgcc.a(_si_to_df.o)
 .debug_frame   0x000002d0       0x28 c:/altera/10.1/nios2eds/bin/gnu/h-i686-mingw32/bin/../lib/gcc/nios2-elf/4.1.2\libgcc.a(_make_df.o)
 .debug_frame   0x000002f8       0x28 c:/altera/10.1/nios2eds/bin/gnu/h-i686-mingw32/bin/../lib/gcc/nios2-elf/4.1.2\libgcc.a(_df_to_sf.o)
 .debug_frame   0x00000320       0x70 c:/altera/10.1/nios2eds/bin/gnu/h-i686-mingw32/bin/../lib/gcc/nios2-elf/4.1.2\libgcc.a(lib2-divmod.o)
 .debug_frame   0x00000390       0x20 c:/altera/10.1/nios2eds/bin/gnu/h-i686-mingw32/bin/../lib/gcc/nios2-elf/4.1.2\libgcc.a(_clzsi2.o)
 .debug_frame   0x000003b0       0x20 c:/altera/10.1/nios2eds/bin/gnu/h-i686-mingw32/bin/../lib/gcc/nios2-elf/4.1.2\libgcc.a(_unpack_sf.o)
 .debug_frame   0x000003d0       0x20 c:/altera/10.1/nios2eds/bin/gnu/h-i686-mingw32/bin/../lib/gcc/nios2-elf/4.1.2\libgcc.a(_fpcmp_parts_sf.o)
 .debug_frame   0x000003f0       0x28 c:/altera/10.1/nios2eds/bin/gnu/h-i686-mingw32/bin/../lib/gcc/nios2-elf/4.1.2\libgcc.a(_make_sf.o)
 .debug_frame   0x00000418       0x2c c:/altera/10.1/nios2eds/bin/gnu/h-i686-mingw32/bin/../lib/gcc/nios2-elf/4.1.2\libgcc.a(_pack_df.o)
 .debug_frame   0x00000444       0x20 c:/altera/10.1/nios2eds/bin/gnu/h-i686-mingw32/bin/../lib/gcc/nios2-elf/4.1.2\libgcc.a(_unpack_df.o)
 .debug_frame   0x00000464       0x20 c:/altera/10.1/nios2eds/bin/gnu/h-i686-mingw32/bin/../lib/gcc/nios2-elf/4.1.2\libgcc.a(_fpcmp_parts_df.o)
 .debug_frame   0x00000484       0x20 c:/altera/10.1/nios2eds/bin/gnu/h-i686-mingw32/bin/../lib/gcc/nios2-elf/4.1.2\libgcc.a(_pack_sf.o)
 .debug_frame   0x000004a4       0x40 c:/altera/10.1/nios2eds/bin/gnu/h-i686-mingw32/bin/../lib/gcc/nios2-elf/4.1.2/../../../../nios2-elf/lib\libc.a(lib_a-printf.o)
 .debug_frame   0x000004e4       0x30 c:/altera/10.1/nios2eds/bin/gnu/h-i686-mingw32/bin/../lib/gcc/nios2-elf/4.1.2/../../../../nios2-elf/lib\libc.a(lib_a-putchar.o)
 .debug_frame   0x00000514       0x3c c:/altera/10.1/nios2eds/bin/gnu/h-i686-mingw32/bin/../lib/gcc/nios2-elf/4.1.2/../../../../nios2-elf/lib\libc.a(lib_a-rand.o)
 .debug_frame   0x00000550       0x2c c:/altera/10.1/nios2eds/bin/gnu/h-i686-mingw32/bin/../lib/gcc/nios2-elf/4.1.2/../../../../nios2-elf/lib\libc.a(lib_a-time.o)
 .debug_frame   0x0000057c       0x64 c:/altera/10.1/nios2eds/bin/gnu/h-i686-mingw32/bin/../lib/gcc/nios2-elf/4.1.2/../../../../nios2-elf/lib\libc.a(lib_a-vfprintf.o)
 .debug_frame   0x000005e0       0x2c c:/altera/10.1/nios2eds/bin/gnu/h-i686-mingw32/bin/../lib/gcc/nios2-elf/4.1.2/../../../../nios2-elf/lib\libc.a(lib_a-wsetup.o)
 .debug_frame   0x0000060c       0x64 c:/altera/10.1/nios2eds/bin/gnu/h-i686-mingw32/bin/../lib/gcc/nios2-elf/4.1.2/../../../../nios2-elf/lib\libc.a(lib_a-dtoa.o)
 .debug_frame   0x00000670       0x40 c:/altera/10.1/nios2eds/bin/gnu/h-i686-mingw32/bin/../lib/gcc/nios2-elf/4.1.2/../../../../nios2-elf/lib\libc.a(lib_a-fflush.o)
 .debug_frame   0x000006b0      0x118 c:/altera/10.1/nios2eds/bin/gnu/h-i686-mingw32/bin/../lib/gcc/nios2-elf/4.1.2/../../../../nios2-elf/lib\libc.a(lib_a-findfp.o)
 .debug_frame   0x000007c8       0x4c c:/altera/10.1/nios2eds/bin/gnu/h-i686-mingw32/bin/../lib/gcc/nios2-elf/4.1.2/../../../../nios2-elf/lib\libc.a(lib_a-freer.o)
 .debug_frame   0x00000814       0x38 c:/altera/10.1/nios2eds/bin/gnu/h-i686-mingw32/bin/../lib/gcc/nios2-elf/4.1.2/../../../../nios2-elf/lib\libc.a(lib_a-fvwrite.o)
 .debug_frame   0x0000084c       0x60 c:/altera/10.1/nios2eds/bin/gnu/h-i686-mingw32/bin/../lib/gcc/nios2-elf/4.1.2/../../../../nios2-elf/lib\libc.a(lib_a-fwalk.o)
 .debug_frame   0x000008ac       0x2c c:/altera/10.1/nios2eds/bin/gnu/h-i686-mingw32/bin/../lib/gcc/nios2-elf/4.1.2/../../../../nios2-elf/lib\libc.a(lib_a-gettimeofdayr.o)
 .debug_frame   0x000008d8       0x70 c:/altera/10.1/nios2eds/bin/gnu/h-i686-mingw32/bin/../lib/gcc/nios2-elf/4.1.2/../../../../nios2-elf/lib\libc.a(lib_a-locale.o)
 .debug_frame   0x00000948       0x2c c:/altera/10.1/nios2eds/bin/gnu/h-i686-mingw32/bin/../lib/gcc/nios2-elf/4.1.2/../../../../nios2-elf/lib\libc.a(lib_a-makebuf.o)
 .debug_frame   0x00000974       0x38 c:/altera/10.1/nios2eds/bin/gnu/h-i686-mingw32/bin/../lib/gcc/nios2-elf/4.1.2/../../../../nios2-elf/lib\libc.a(lib_a-mallocr.o)
 .debug_frame   0x000009ac       0x20 c:/altera/10.1/nios2eds/bin/gnu/h-i686-mingw32/bin/../lib/gcc/nios2-elf/4.1.2/../../../../nios2-elf/lib\libc.a(lib_a-memchr.o)
 .debug_frame   0x000009cc       0x20 c:/altera/10.1/nios2eds/bin/gnu/h-i686-mingw32/bin/../lib/gcc/nios2-elf/4.1.2/../../../../nios2-elf/lib\libc.a(lib_a-memcpy.o)
 .debug_frame   0x000009ec       0x20 c:/altera/10.1/nios2eds/bin/gnu/h-i686-mingw32/bin/../lib/gcc/nios2-elf/4.1.2/../../../../nios2-elf/lib\libc.a(lib_a-memmove.o)
 .debug_frame   0x00000a0c       0x20 c:/altera/10.1/nios2eds/bin/gnu/h-i686-mingw32/bin/../lib/gcc/nios2-elf/4.1.2/../../../../nios2-elf/lib\libc.a(lib_a-memset.o)
 .debug_frame   0x00000a2c      0x218 c:/altera/10.1/nios2eds/bin/gnu/h-i686-mingw32/bin/../lib/gcc/nios2-elf/4.1.2/../../../../nios2-elf/lib\libc.a(lib_a-mprec.o)
 .debug_frame   0x00000c44       0x4c c:/altera/10.1/nios2eds/bin/gnu/h-i686-mingw32/bin/../lib/gcc/nios2-elf/4.1.2/../../../../nios2-elf/lib\libc.a(lib_a-putc.o)
 .debug_frame   0x00000c90       0x38 c:/altera/10.1/nios2eds/bin/gnu/h-i686-mingw32/bin/../lib/gcc/nios2-elf/4.1.2/../../../../nios2-elf/lib\libc.a(lib_a-reallocr.o)
 .debug_frame   0x00000cc8       0x20 c:/altera/10.1/nios2eds/bin/gnu/h-i686-mingw32/bin/../lib/gcc/nios2-elf/4.1.2/../../../../nios2-elf/lib\libc.a(lib_a-s_isinfd.o)
 .debug_frame   0x00000ce8       0x20 c:/altera/10.1/nios2eds/bin/gnu/h-i686-mingw32/bin/../lib/gcc/nios2-elf/4.1.2/../../../../nios2-elf/lib\libc.a(lib_a-s_isnand.o)
 .debug_frame   0x00000d08       0x2c c:/altera/10.1/nios2eds/bin/gnu/h-i686-mingw32/bin/../lib/gcc/nios2-elf/4.1.2/../../../../nios2-elf/lib\libc.a(lib_a-sbrkr.o)
 .debug_frame   0x00000d34       0x78 c:/altera/10.1/nios2eds/bin/gnu/h-i686-mingw32/bin/../lib/gcc/nios2-elf/4.1.2/../../../../nios2-elf/lib\libc.a(lib_a-stdio.o)
 .debug_frame   0x00000dac       0x20 c:/altera/10.1/nios2eds/bin/gnu/h-i686-mingw32/bin/../lib/gcc/nios2-elf/4.1.2/../../../../nios2-elf/lib\libc.a(lib_a-strcmp.o)
 .debug_frame   0x00000dcc       0x20 c:/altera/10.1/nios2eds/bin/gnu/h-i686-mingw32/bin/../lib/gcc/nios2-elf/4.1.2/../../../../nios2-elf/lib\libc.a(lib_a-strlen.o)
 .debug_frame   0x00000dec       0x3c c:/altera/10.1/nios2eds/bin/gnu/h-i686-mingw32/bin/../lib/gcc/nios2-elf/4.1.2/../../../../nios2-elf/lib\libc.a(lib_a-wbuf.o)
 .debug_frame   0x00000e28       0x2c c:/altera/10.1/nios2eds/bin/gnu/h-i686-mingw32/bin/../lib/gcc/nios2-elf/4.1.2/../../../../nios2-elf/lib\libc.a(lib_a-writer.o)
 .debug_frame   0x00000e54       0x28 c:/altera/10.1/nios2eds/bin/gnu/h-i686-mingw32/bin/../lib/gcc/nios2-elf/4.1.2/../../../../nios2-elf/lib\libc.a(lib_a-callocr.o)
 .debug_frame   0x00000e7c       0x2c c:/altera/10.1/nios2eds/bin/gnu/h-i686-mingw32/bin/../lib/gcc/nios2-elf/4.1.2/../../../../nios2-elf/lib\libc.a(lib_a-closer.o)
 .debug_frame   0x00000ea8       0x3c c:/altera/10.1/nios2eds/bin/gnu/h-i686-mingw32/bin/../lib/gcc/nios2-elf/4.1.2/../../../../nios2-elf/lib\libc.a(lib_a-fclose.o)
 .debug_frame   0x00000ee4       0x2c c:/altera/10.1/nios2eds/bin/gnu/h-i686-mingw32/bin/../lib/gcc/nios2-elf/4.1.2/../../../../nios2-elf/lib\libc.a(lib_a-fstatr.o)
 .debug_frame   0x00000f10       0x2c c:/altera/10.1/nios2eds/bin/gnu/h-i686-mingw32/bin/../lib/gcc/nios2-elf/4.1.2/../../../../nios2-elf/lib\libc.a(lib_a-isattyr.o)
 .debug_frame   0x00000f3c       0x2c c:/altera/10.1/nios2eds/bin/gnu/h-i686-mingw32/bin/../lib/gcc/nios2-elf/4.1.2/../../../../nios2-elf/lib\libc.a(lib_a-lseekr.o)
 .debug_frame   0x00000f68       0x2c c:/altera/10.1/nios2eds/bin/gnu/h-i686-mingw32/bin/../lib/gcc/nios2-elf/4.1.2/../../../../nios2-elf/lib\libc.a(lib_a-readr.o)
 .debug_frame   0x00000f94       0x2c c:/altera/10.1/nios2eds/bin/gnu/h-i686-mingw32/bin/../lib/gcc/nios2-elf/4.1.2\libgcc.a(_muldi3.o)
 .debug_frame   0x00000fc0       0x38 c:/altera/10.1/nios2eds/bin/gnu/h-i686-mingw32/bin/../lib/gcc/nios2-elf/4.1.2\libgcc.a(_udivdi3.o)
 .debug_frame   0x00000ff8       0x38 c:/altera/10.1/nios2eds/bin/gnu/h-i686-mingw32/bin/../lib/gcc/nios2-elf/4.1.2\libgcc.a(_umoddi3.o)
 .debug_frame   0x00001030       0x70 c:/altera/10.1/nios2eds/bin/gnu/h-i686-mingw32/bin/../lib/gcc/nios2-elf/4.1.2\libgcc.a(_addsub_df.o)
 .debug_frame   0x000010a0       0x3c c:/altera/10.1/nios2eds/bin/gnu/h-i686-mingw32/bin/../lib/gcc/nios2-elf/4.1.2\libgcc.a(_mul_df.o)
 .debug_frame   0x000010dc       0x2c c:/altera/10.1/nios2eds/bin/gnu/h-i686-mingw32/bin/../lib/gcc/nios2-elf/4.1.2\libgcc.a(_eq_df.o)
 .debug_frame   0x00001108       0x2c c:/altera/10.1/nios2eds/bin/gnu/h-i686-mingw32/bin/../lib/gcc/nios2-elf/4.1.2\libgcc.a(_ne_df.o)
 .debug_frame   0x00001134       0x2c c:/altera/10.1/nios2eds/bin/gnu/h-i686-mingw32/bin/../lib/gcc/nios2-elf/4.1.2\libgcc.a(_ge_df.o)
 .debug_frame   0x00001160       0x28 c:/altera/10.1/nios2eds/bin/gnu/h-i686-mingw32/bin/../lib/gcc/nios2-elf/4.1.2\libgcc.a(_df_to_si.o)
 .debug_frame   0x00001188       0x38 c:/altera/10.1/nios2eds/bin/gnu/h-i686-mingw32/bin/../lib/gcc/nios2-elf/4.1.2\libgcc.a(_usi_to_df.o)
 .debug_frame   0x000011c0       0x48 ../helloWorld_bsp\libhal_bsp.a(alt_close.o)
 .debug_frame   0x00001208       0x2c ../helloWorld_bsp\libhal_bsp.a(alt_dev.o)
 .debug_frame   0x00001234       0x48 ../helloWorld_bsp\libhal_bsp.a(alt_fstat.o)
 .debug_frame   0x0000127c       0x34 ../helloWorld_bsp\libhal_bsp.a(alt_gettod.o)
 .debug_frame   0x000012b0       0x48 ../helloWorld_bsp\libhal_bsp.a(alt_isatty.o)
 .debug_frame   0x000012f8       0x48 ../helloWorld_bsp\libhal_bsp.a(alt_lseek.o)
 .debug_frame   0x00001340       0x2c ../helloWorld_bsp\libhal_bsp.a(alt_main.o)
 .debug_frame   0x0000136c       0x48 ../helloWorld_bsp\libhal_bsp.a(alt_malloc_lock.o)
 .debug_frame   0x000013b4       0x2c ../helloWorld_bsp\libhal_bsp.a(alt_printf.o)
 .debug_frame   0x000013e0       0x2c ../helloWorld_bsp\libhal_bsp.a(alt_putchar.o)
 .debug_frame   0x0000140c       0x48 ../helloWorld_bsp\libhal_bsp.a(alt_read.o)
 .debug_frame   0x00001454       0x2c ../helloWorld_bsp\libhal_bsp.a(alt_release_fd.o)
 .debug_frame   0x00001480       0x2c ../helloWorld_bsp\libhal_bsp.a(alt_sbrk.o)
 .debug_frame   0x000014ac       0x48 ../helloWorld_bsp\libhal_bsp.a(alt_tick.o)
 .debug_frame   0x000014f4       0x2c ../helloWorld_bsp\libhal_bsp.a(alt_usleep.o)
 .debug_frame   0x00001520       0x48 ../helloWorld_bsp\libhal_bsp.a(alt_write.o)
 .debug_frame   0x00001568       0x64 ../helloWorld_bsp\libhal_bsp.a(alt_sys_init.o)
 .debug_frame   0x000015cc       0xd4 ../helloWorld_bsp\libhal_bsp.a(altera_avalon_cfi_flash.o)
 .debug_frame   0x000016a0      0x210 ../helloWorld_bsp\libhal_bsp.a(altera_avalon_cfi_flash_table.o)
 .debug_frame   0x000018b0       0x80 ../helloWorld_bsp\libhal_bsp.a(altera_avalon_jtag_uart_fd.o)
 .debug_frame   0x00001930       0x80 ../helloWorld_bsp\libhal_bsp.a(altera_avalon_jtag_uart_init.o)
 .debug_frame   0x000019b0       0x2c ../helloWorld_bsp\libhal_bsp.a(altera_avalon_jtag_uart_ioctl.o)
 .debug_frame   0x000019dc       0x2c ../helloWorld_bsp\libhal_bsp.a(altera_avalon_jtag_uart_read.o)
 .debug_frame   0x00001a08       0x2c ../helloWorld_bsp\libhal_bsp.a(altera_avalon_jtag_uart_write.o)
 .debug_frame   0x00001a34       0x2c ../helloWorld_bsp\libhal_bsp.a(altera_avalon_spi.o)
 .debug_frame   0x00001a60       0x48 ../helloWorld_bsp\libhal_bsp.a(altera_avalon_timer_sc.o)
 .debug_frame   0x00001aa8       0x64 ../helloWorld_bsp\libhal_bsp.a(altera_avalon_uart_fd.o)
 .debug_frame   0x00001b0c       0x9c ../helloWorld_bsp\libhal_bsp.a(altera_avalon_uart_init.o)
 .debug_frame   0x00001ba8       0x48 ../helloWorld_bsp\libhal_bsp.a(altera_avalon_uart_read.o)
 .debug_frame   0x00001bf0       0x48 ../helloWorld_bsp\libhal_bsp.a(altera_avalon_uart_write.o)
 .debug_frame   0x00001c38      0x208 ../helloWorld_bsp\libhal_bsp.a(altera_up_avalon_ps2.o)
 .debug_frame   0x00001e40       0x9c ../helloWorld_bsp\libhal_bsp.a(altera_up_avalon_video_character_buffer_with_dma.o)
 .debug_frame   0x00001edc       0xd4 ../helloWorld_bsp\libhal_bsp.a(altera_up_ps2_keyboard.o)
 .debug_frame   0x00001fb0       0x2c ../helloWorld_bsp\libhal_bsp.a(alt_alarm_start.o)
 .debug_frame   0x00001fdc       0x2c ../helloWorld_bsp\libhal_bsp.a(alt_busy_sleep.o)
 .debug_frame   0x00002008       0x2c ../helloWorld_bsp\libhal_bsp.a(alt_dcache_flush.o)
 .debug_frame   0x00002034       0x48 ../helloWorld_bsp\libhal_bsp.a(alt_dev_llist_insert.o)
 .debug_frame   0x0000207c       0x2c ../helloWorld_bsp\libhal_bsp.a(alt_do_ctors.o)
 .debug_frame   0x000020a8       0x2c ../helloWorld_bsp\libhal_bsp.a(alt_do_dtors.o)
 .debug_frame   0x000020d4       0x2c ../helloWorld_bsp\libhal_bsp.a(alt_find_dev.o)
 .debug_frame   0x00002100       0x48 ../helloWorld_bsp\libhal_bsp.a(alt_flash_dev.o)
 .debug_frame   0x00002148       0x48 ../helloWorld_bsp\libhal_bsp.a(alt_io_redirect.o)
 .debug_frame   0x00002190       0x2c ../helloWorld_bsp\libhal_bsp.a(alt_irq_register.o)
 .debug_frame   0x000021bc       0x64 ../helloWorld_bsp\libhal_bsp.a(alt_open.o)
 .debug_frame   0x00002220       0x2c ../helloWorld_bsp\libhal_bsp.a(altera_nios2_irq.o)
 .debug_frame   0x0000224c       0x80 ../helloWorld_bsp\libhal_bsp.a(altera_avalon_cfi_flash_amd.o)
 .debug_frame   0x000022cc       0x80 ../helloWorld_bsp\libhal_bsp.a(altera_avalon_cfi_flash_intel.o)
 .debug_frame   0x0000234c       0x2c ../helloWorld_bsp\libhal_bsp.a(alt_find_file.o)
 .debug_frame   0x00002378       0x2c ../helloWorld_bsp\libhal_bsp.a(alt_get_fd.o)
 .debug_frame   0x000023a4       0x2c ../helloWorld_bsp\libhal_bsp.a(alt_irq_handler.o)
 .debug_frame   0x000023d0       0x20 c:/altera/10.1/nios2eds/bin/gnu/h-i686-mingw32/bin/../lib/gcc/nios2-elf/4.1.2/../../../../nios2-elf/lib\libc.a(lib_a-atexit.o)
 .debug_frame   0x000023f0       0x28 c:/altera/10.1/nios2eds/bin/gnu/h-i686-mingw32/bin/../lib/gcc/nios2-elf/4.1.2/../../../../nios2-elf/lib\libc.a(lib_a-exit.o)
 .debug_frame   0x00002418       0x20 c:/altera/10.1/nios2eds/bin/gnu/h-i686-mingw32/bin/../lib/gcc/nios2-elf/4.1.2/../../../../nios2-elf/lib\libc.a(lib_a-memcmp.o)
 .debug_frame   0x00002438       0x20 c:/altera/10.1/nios2eds/bin/gnu/h-i686-mingw32/bin/../lib/gcc/nios2-elf/4.1.2/../../../../nios2-elf/lib\libc.a(lib_a-strcpy.o)
 .debug_frame   0x00002458       0x34 c:/altera/10.1/nios2eds/bin/gnu/h-i686-mingw32/bin/../lib/gcc/nios2-elf/4.1.2/../../../../nios2-elf/lib\libc.a(lib_a-__atexit.o)
 .debug_frame   0x0000248c       0x4c c:/altera/10.1/nios2eds/bin/gnu/h-i686-mingw32/bin/../lib/gcc/nios2-elf/4.1.2/../../../../nios2-elf/lib\libc.a(lib_a-__call_atexit.o)
 .debug_frame   0x000024d8       0x48 ../helloWorld_bsp\libhal_bsp.a(alt_exit.o)

.debug_str      0x00000000     0x27bf
 *(.debug_str)
 .debug_str     0x00000000       0x51 obj/hello_world.o
 .debug_str     0x00000051      0x180 c:/altera/10.1/nios2eds/bin/gnu/h-i686-mingw32/bin/../lib/gcc/nios2-elf/4.1.2\libgcc.a(_gt_sf.o)
                                0x1e5 (size before relaxing)
 .debug_str     0x000001d1        0x8 c:/altera/10.1/nios2eds/bin/gnu/h-i686-mingw32/bin/../lib/gcc/nios2-elf/4.1.2\libgcc.a(_lt_sf.o)
                                0x1e5 (size before relaxing)
 .debug_str     0x000001d9       0x15 c:/altera/10.1/nios2eds/bin/gnu/h-i686-mingw32/bin/../lib/gcc/nios2-elf/4.1.2\libgcc.a(_sf_to_df.o)
                                0x1df (size before relaxing)
 .debug_str     0x000001ee       0x65 c:/altera/10.1/nios2eds/bin/gnu/h-i686-mingw32/bin/../lib/gcc/nios2-elf/4.1.2\libgcc.a(_div_df.o)
                                0x21e (size before relaxing)
 .debug_str     0x00000253        0x8 c:/altera/10.1/nios2eds/bin/gnu/h-i686-mingw32/bin/../lib/gcc/nios2-elf/4.1.2\libgcc.a(_gt_df.o)
                                0x1eb (size before relaxing)
 .debug_str     0x0000025b        0x8 c:/altera/10.1/nios2eds/bin/gnu/h-i686-mingw32/bin/../lib/gcc/nios2-elf/4.1.2\libgcc.a(_lt_df.o)
                                0x1eb (size before relaxing)
 .debug_str     0x00000263       0x18 c:/altera/10.1/nios2eds/bin/gnu/h-i686-mingw32/bin/../lib/gcc/nios2-elf/4.1.2\libgcc.a(_si_to_df.o)
                                0x1cb (size before relaxing)
 .debug_str     0x0000027b        0xa c:/altera/10.1/nios2eds/bin/gnu/h-i686-mingw32/bin/../lib/gcc/nios2-elf/4.1.2\libgcc.a(_make_df.o)
                                0x1a6 (size before relaxing)
 .debug_str     0x00000285       0x14 c:/altera/10.1/nios2eds/bin/gnu/h-i686-mingw32/bin/../lib/gcc/nios2-elf/4.1.2\libgcc.a(_df_to_sf.o)
                                0x1eb (size before relaxing)
 .debug_str     0x00000000      0x190 c:/altera/10.1/nios2eds/bin/gnu/h-i686-mingw32/bin/../lib/gcc/nios2-elf/4.1.2\libgcc.a(_thenan_df.o)
 .debug_str     0x00000299       0xa1 c:/altera/10.1/nios2eds/bin/gnu/h-i686-mingw32/bin/../lib/gcc/nios2-elf/4.1.2\libgcc.a(lib2-divmod.o)
                                0x1a1 (size before relaxing)
 .debug_str     0x0000033a       0x40 c:/altera/10.1/nios2eds/bin/gnu/h-i686-mingw32/bin/../lib/gcc/nios2-elf/4.1.2\libgcc.a(_clzsi2.o)
                                0x16b (size before relaxing)
 .debug_str     0x0000037a        0xb c:/altera/10.1/nios2eds/bin/gnu/h-i686-mingw32/bin/../lib/gcc/nios2-elf/4.1.2\libgcc.a(_unpack_sf.o)
                                0x1cf (size before relaxing)
 .debug_str     0x00000385       0x10 c:/altera/10.1/nios2eds/bin/gnu/h-i686-mingw32/bin/../lib/gcc/nios2-elf/4.1.2\libgcc.a(_fpcmp_parts_sf.o)
                                0x1b3 (size before relaxing)
 .debug_str     0x00000395        0xa c:/altera/10.1/nios2eds/bin/gnu/h-i686-mingw32/bin/../lib/gcc/nios2-elf/4.1.2\libgcc.a(_make_sf.o)
                                0x1a6 (size before relaxing)
 .debug_str     0x0000039f       0x10 c:/altera/10.1/nios2eds/bin/gnu/h-i686-mingw32/bin/../lib/gcc/nios2-elf/4.1.2\libgcc.a(_pack_df.o)
                                0x1f3 (size before relaxing)
 .debug_str     0x000003af        0xb c:/altera/10.1/nios2eds/bin/gnu/h-i686-mingw32/bin/../lib/gcc/nios2-elf/4.1.2\libgcc.a(_unpack_df.o)
                                0x1d5 (size before relaxing)
 .debug_str     0x000003ba       0x10 c:/altera/10.1/nios2eds/bin/gnu/h-i686-mingw32/bin/../lib/gcc/nios2-elf/4.1.2\libgcc.a(_fpcmp_parts_df.o)
                                0x1b3 (size before relaxing)
 .debug_str     0x00000000      0x14e c:/altera/10.1/nios2eds/bin/gnu/h-i686-mingw32/bin/../lib/gcc/nios2-elf/4.1.2\libgcc.a(_clz.o)
 .debug_str     0x000003ca        0x9 c:/altera/10.1/nios2eds/bin/gnu/h-i686-mingw32/bin/../lib/gcc/nios2-elf/4.1.2\libgcc.a(_pack_sf.o)
                                0x1ed (size before relaxing)
 .debug_str     0x000003d3      0x42c c:/altera/10.1/nios2eds/bin/gnu/h-i686-mingw32/bin/../lib/gcc/nios2-elf/4.1.2/../../../../nios2-elf/lib\libc.a(lib_a-printf.o)
                                0x510 (size before relaxing)
 .debug_str     0x000007ff       0x4e c:/altera/10.1/nios2eds/bin/gnu/h-i686-mingw32/bin/../lib/gcc/nios2-elf/4.1.2/../../../../nios2-elf/lib\libc.a(lib_a-putchar.o)
                                0x4fc (size before relaxing)
 .debug_str     0x0000084d       0xb8 c:/altera/10.1/nios2eds/bin/gnu/h-i686-mingw32/bin/../lib/gcc/nios2-elf/4.1.2/../../../../nios2-elf/lib\libc.a(lib_a-rand.o)
                                0x4f8 (size before relaxing)
 .debug_str     0x00000905       0xd0 c:/altera/10.1/nios2eds/bin/gnu/h-i686-mingw32/bin/../lib/gcc/nios2-elf/4.1.2/../../../../nios2-elf/lib\libc.a(lib_a-time.o)
                                0x513 (size before relaxing)
 .debug_str     0x000009d5      0x1c1 c:/altera/10.1/nios2eds/bin/gnu/h-i686-mingw32/bin/../lib/gcc/nios2-elf/4.1.2/../../../../nios2-elf/lib\libc.a(lib_a-vfprintf.o)
                                0x6e5 (size before relaxing)
 .debug_str     0x00000b96       0x46 c:/altera/10.1/nios2eds/bin/gnu/h-i686-mingw32/bin/../lib/gcc/nios2-elf/4.1.2/../../../../nios2-elf/lib\libc.a(lib_a-wsetup.o)
                                0x4f9 (size before relaxing)
 .debug_str     0x00000bdc      0x102 c:/altera/10.1/nios2eds/bin/gnu/h-i686-mingw32/bin/../lib/gcc/nios2-elf/4.1.2/../../../../nios2-elf/lib\libc.a(lib_a-dtoa.o)
                                0x5ee (size before relaxing)
 .debug_str     0x00000cde       0x65 c:/altera/10.1/nios2eds/bin/gnu/h-i686-mingw32/bin/../lib/gcc/nios2-elf/4.1.2/../../../../nios2-elf/lib\libc.a(lib_a-fflush.o)
                                0x51f (size before relaxing)
 .debug_str     0x00000d43      0x102 c:/altera/10.1/nios2eds/bin/gnu/h-i686-mingw32/bin/../lib/gcc/nios2-elf/4.1.2/../../../../nios2-elf/lib\libc.a(lib_a-findfp.o)
                                0x5e1 (size before relaxing)
 .debug_str     0x00000e45      0x15b c:/altera/10.1/nios2eds/bin/gnu/h-i686-mingw32/bin/../lib/gcc/nios2-elf/4.1.2/../../../../nios2-elf/lib\libc.a(lib_a-freer.o)
                                0x630 (size before relaxing)
 .debug_str     0x00000fa0       0x66 c:/altera/10.1/nios2eds/bin/gnu/h-i686-mingw32/bin/../lib/gcc/nios2-elf/4.1.2/../../../../nios2-elf/lib\libc.a(lib_a-fvwrite.o)
                                0x550 (size before relaxing)
 .debug_str     0x00001006       0x5e c:/altera/10.1/nios2eds/bin/gnu/h-i686-mingw32/bin/../lib/gcc/nios2-elf/4.1.2/../../../../nios2-elf/lib\libc.a(lib_a-fwalk.o)
                                0x522 (size before relaxing)
 .debug_str     0x00001064       0xdc c:/altera/10.1/nios2eds/bin/gnu/h-i686-mingw32/bin/../lib/gcc/nios2-elf/4.1.2/../../../../nios2-elf/lib\libc.a(lib_a-gettimeofdayr.o)
                                0x536 (size before relaxing)
 .debug_str     0x00001140       0x46 c:/altera/10.1/nios2eds/bin/gnu/h-i686-mingw32/bin/../lib/gcc/nios2-elf/4.1.2/../../../../nios2-elf/lib\libc.a(lib_a-impure.o)
                                0x507 (size before relaxing)
 .debug_str     0x00001186       0x3d c:/altera/10.1/nios2eds/bin/gnu/h-i686-mingw32/bin/../lib/gcc/nios2-elf/4.1.2/../../../../nios2-elf/lib\libc.a(lib_a-int_errno.o)
                                0x150 (size before relaxing)
 .debug_str     0x000011c3      0x212 c:/altera/10.1/nios2eds/bin/gnu/h-i686-mingw32/bin/../lib/gcc/nios2-elf/4.1.2/../../../../nios2-elf/lib\libc.a(lib_a-locale.o)
                                0x696 (size before relaxing)
 .debug_str     0x000013d5      0x11c c:/altera/10.1/nios2eds/bin/gnu/h-i686-mingw32/bin/../lib/gcc/nios2-elf/4.1.2/../../../../nios2-elf/lib\libc.a(lib_a-makebuf.o)
                                0x5f3 (size before relaxing)
 .debug_str     0x000014f1       0xef c:/altera/10.1/nios2eds/bin/gnu/h-i686-mingw32/bin/../lib/gcc/nios2-elf/4.1.2/../../../../nios2-elf/lib\libc.a(lib_a-mallocr.o)
                                0x6de (size before relaxing)
 .debug_str     0x000015e0       0xd5 c:/altera/10.1/nios2eds/bin/gnu/h-i686-mingw32/bin/../lib/gcc/nios2-elf/4.1.2/../../../../nios2-elf/lib\libc.a(lib_a-memchr.o)
                                0x178 (size before relaxing)
 .debug_str     0x000016b5       0x69 c:/altera/10.1/nios2eds/bin/gnu/h-i686-mingw32/bin/../lib/gcc/nios2-elf/4.1.2/../../../../nios2-elf/lib\libc.a(lib_a-memcpy.o)
                                0x115 (size before relaxing)
 .debug_str     0x0000171e       0x4d c:/altera/10.1/nios2eds/bin/gnu/h-i686-mingw32/bin/../lib/gcc/nios2-elf/4.1.2/../../../../nios2-elf/lib\libc.a(lib_a-memmove.o)
                                0x18a (size before relaxing)
 .debug_str     0x0000176b       0x4f c:/altera/10.1/nios2eds/bin/gnu/h-i686-mingw32/bin/../lib/gcc/nios2-elf/4.1.2/../../../../nios2-elf/lib\libc.a(lib_a-memset.o)
                                0x16b (size before relaxing)
 .debug_str     0x000017ba       0xf8 c:/altera/10.1/nios2eds/bin/gnu/h-i686-mingw32/bin/../lib/gcc/nios2-elf/4.1.2/../../../../nios2-elf/lib\libc.a(lib_a-mprec.o)
                                0x5fb (size before relaxing)
 .debug_str     0x000018b2       0x45 c:/altera/10.1/nios2eds/bin/gnu/h-i686-mingw32/bin/../lib/gcc/nios2-elf/4.1.2/../../../../nios2-elf/lib\libc.a(lib_a-putc.o)
                                0x4ff (size before relaxing)
 .debug_str     0x000018f7       0x59 c:/altera/10.1/nios2eds/bin/gnu/h-i686-mingw32/bin/../lib/gcc/nios2-elf/4.1.2/../../../../nios2-elf/lib\libc.a(lib_a-reallocr.o)
                                0x5b0 (size before relaxing)
 .debug_str     0x00001950       0xc9 c:/altera/10.1/nios2eds/bin/gnu/h-i686-mingw32/bin/../lib/gcc/nios2-elf/4.1.2/../../../../nios2-elf/lib\libc.a(lib_a-s_isinfd.o)
                                0x177 (size before relaxing)
 .debug_str     0x00001a19       0x46 c:/altera/10.1/nios2eds/bin/gnu/h-i686-mingw32/bin/../lib/gcc/nios2-elf/4.1.2/../../../../nios2-elf/lib\libc.a(lib_a-s_isnand.o)
                                0x177 (size before relaxing)
 .debug_str     0x00001a5f       0x50 c:/altera/10.1/nios2eds/bin/gnu/h-i686-mingw32/bin/../lib/gcc/nios2-elf/4.1.2/../../../../nios2-elf/lib\libc.a(lib_a-sbrkr.o)
                                0x4f8 (size before relaxing)
 .debug_str     0x00001aaf       0x62 c:/altera/10.1/nios2eds/bin/gnu/h-i686-mingw32/bin/../lib/gcc/nios2-elf/4.1.2/../../../../nios2-elf/lib\libc.a(lib_a-stdio.o)
                                0x51e (size before relaxing)
 .debug_str     0x00001b11       0x42 c:/altera/10.1/nios2eds/bin/gnu/h-i686-mingw32/bin/../lib/gcc/nios2-elf/4.1.2/../../../../nios2-elf/lib\libc.a(lib_a-strcmp.o)
                                0x150 (size before relaxing)
 .debug_str     0x00001b53       0x42 c:/altera/10.1/nios2eds/bin/gnu/h-i686-mingw32/bin/../lib/gcc/nios2-elf/4.1.2/../../../../nios2-elf/lib\libc.a(lib_a-strlen.o)
                                0x16a (size before relaxing)
 .debug_str     0x00001b95       0x4a c:/altera/10.1/nios2eds/bin/gnu/h-i686-mingw32/bin/../lib/gcc/nios2-elf/4.1.2/../../../../nios2-elf/lib\libc.a(lib_a-wbuf.o)
                                0x4fd (size before relaxing)
 .debug_str     0x00001bdf       0x4c c:/altera/10.1/nios2eds/bin/gnu/h-i686-mingw32/bin/../lib/gcc/nios2-elf/4.1.2/../../../../nios2-elf/lib\libc.a(lib_a-writer.o)
                                0x4fb (size before relaxing)
 .debug_str     0x00001c2b       0x19 c:/altera/10.1/nios2eds/bin/gnu/h-i686-mingw32/bin/../lib/gcc/nios2-elf/4.1.2/../../../../nios2-elf/lib\libc.a(lib_a-callocr.o)
                                0x52f (size before relaxing)
 .debug_str     0x00001c44       0x43 c:/altera/10.1/nios2eds/bin/gnu/h-i686-mingw32/bin/../lib/gcc/nios2-elf/4.1.2/../../../../nios2-elf/lib\libc.a(lib_a-closer.o)
                                0x4eb (size before relaxing)
 .debug_str     0x00001c87       0x4b c:/altera/10.1/nios2eds/bin/gnu/h-i686-mingw32/bin/../lib/gcc/nios2-elf/4.1.2/../../../../nios2-elf/lib\libc.a(lib_a-fclose.o)
                                0x503 (size before relaxing)
 .debug_str     0x00001cd2       0x49 c:/altera/10.1/nios2eds/bin/gnu/h-i686-mingw32/bin/../lib/gcc/nios2-elf/4.1.2/../../../../nios2-elf/lib\libc.a(lib_a-fstatr.o)
                                0x5de (size before relaxing)
 .debug_str     0x00001d1b       0x45 c:/altera/10.1/nios2eds/bin/gnu/h-i686-mingw32/bin/../lib/gcc/nios2-elf/4.1.2/../../../../nios2-elf/lib\libc.a(lib_a-isattyr.o)
                                0x4ed (size before relaxing)
 .debug_str     0x00001d60       0x43 c:/altera/10.1/nios2eds/bin/gnu/h-i686-mingw32/bin/../lib/gcc/nios2-elf/4.1.2/../../../../nios2-elf/lib\libc.a(lib_a-lseekr.o)
                                0x4f9 (size before relaxing)
 .debug_str     0x00001da3       0x41 c:/altera/10.1/nios2eds/bin/gnu/h-i686-mingw32/bin/../lib/gcc/nios2-elf/4.1.2/../../../../nios2-elf/lib\libc.a(lib_a-readr.o)
                                0x4f9 (size before relaxing)
 .debug_str     0x00001de4       0x47 c:/altera/10.1/nios2eds/bin/gnu/h-i686-mingw32/bin/../lib/gcc/nios2-elf/4.1.2\libgcc.a(_muldi3.o)
                                0x199 (size before relaxing)
 .debug_str     0x00001e2b       0x35 c:/altera/10.1/nios2eds/bin/gnu/h-i686-mingw32/bin/../lib/gcc/nios2-elf/4.1.2\libgcc.a(_udivdi3.o)
                                0x1e4 (size before relaxing)
 .debug_str     0x00001e60        0xa c:/altera/10.1/nios2eds/bin/gnu/h-i686-mingw32/bin/../lib/gcc/nios2-elf/4.1.2\libgcc.a(_umoddi3.o)
                                0x1e4 (size before relaxing)
 .debug_str     0x00001e6a       0x67 c:/altera/10.1/nios2eds/bin/gnu/h-i686-mingw32/bin/../lib/gcc/nios2-elf/4.1.2\libgcc.a(_addsub_df.o)
                                0x25c (size before relaxing)
 .debug_str     0x00001ed1       0x40 c:/altera/10.1/nios2eds/bin/gnu/h-i686-mingw32/bin/../lib/gcc/nios2-elf/4.1.2\libgcc.a(_mul_df.o)
                                0x22e (size before relaxing)
 .debug_str     0x00001f11        0x8 c:/altera/10.1/nios2eds/bin/gnu/h-i686-mingw32/bin/../lib/gcc/nios2-elf/4.1.2\libgcc.a(_eq_df.o)
                                0x1eb (size before relaxing)
 .debug_str     0x00001f19        0x8 c:/altera/10.1/nios2eds/bin/gnu/h-i686-mingw32/bin/../lib/gcc/nios2-elf/4.1.2\libgcc.a(_ne_df.o)
                                0x1eb (size before relaxing)
 .debug_str     0x00001f21        0x8 c:/altera/10.1/nios2eds/bin/gnu/h-i686-mingw32/bin/../lib/gcc/nios2-elf/4.1.2\libgcc.a(_ge_df.o)
                                0x1eb (size before relaxing)
 .debug_str     0x00001f29        0xa c:/altera/10.1/nios2eds/bin/gnu/h-i686-mingw32/bin/../lib/gcc/nios2-elf/4.1.2\libgcc.a(_df_to_si.o)
                                0x1f4 (size before relaxing)
 .debug_str     0x00001f33       0x14 c:/altera/10.1/nios2eds/bin/gnu/h-i686-mingw32/bin/../lib/gcc/nios2-elf/4.1.2\libgcc.a(_usi_to_df.o)
                                0x1c7 (size before relaxing)
 .debug_str     0x00001f47       0x12 ../helloWorld_bsp\libhal_bsp.a(alt_close.o)
 .debug_str     0x00001f59       0x12 ../helloWorld_bsp\libhal_bsp.a(alt_dev.o)
 .debug_str     0x00001f6b       0x12 ../helloWorld_bsp\libhal_bsp.a(alt_errno.o)
 .debug_str     0x00001f7d       0x12 ../helloWorld_bsp\libhal_bsp.a(alt_fstat.o)
 .debug_str     0x00001f8f       0x12 ../helloWorld_bsp\libhal_bsp.a(alt_gettod.o)
 .debug_str     0x00001fa1       0x12 ../helloWorld_bsp\libhal_bsp.a(alt_isatty.o)
 .debug_str     0x00001fb3       0x12 ../helloWorld_bsp\libhal_bsp.a(alt_lseek.o)
 .debug_str     0x00001fc5       0x12 ../helloWorld_bsp\libhal_bsp.a(alt_main.o)
 .debug_str     0x00001fd7       0x20 ../helloWorld_bsp\libhal_bsp.a(alt_malloc_lock.o)
 .debug_str     0x00001ff7       0x20 ../helloWorld_bsp\libhal_bsp.a(alt_putchar.o)
 .debug_str     0x00002017       0x12 ../helloWorld_bsp\libhal_bsp.a(alt_read.o)
 .debug_str     0x00002029       0x1a ../helloWorld_bsp\libhal_bsp.a(alt_sbrk.o)
 .debug_str     0x00002043       0x1a ../helloWorld_bsp\libhal_bsp.a(alt_tick.o)
 .debug_str     0x0000205d       0x12 ../helloWorld_bsp\libhal_bsp.a(alt_usleep.o)
 .debug_str     0x0000206f       0x12 ../helloWorld_bsp\libhal_bsp.a(alt_write.o)
 .debug_str     0x00002081       0xd3 ../helloWorld_bsp\libhal_bsp.a(alt_sys_init.o)
 .debug_str     0x00002154       0x82 ../helloWorld_bsp\libhal_bsp.a(altera_avalon_cfi_flash.o)
 .debug_str     0x000021d6       0x6d ../helloWorld_bsp\libhal_bsp.a(altera_avalon_cfi_flash_table.o)
 .debug_str     0x00002243       0x12 ../helloWorld_bsp\libhal_bsp.a(altera_avalon_jtag_uart_fd.o)
 .debug_str     0x00002255       0x1a ../helloWorld_bsp\libhal_bsp.a(altera_avalon_jtag_uart_init.o)
 .debug_str     0x0000226f       0x12 ../helloWorld_bsp\libhal_bsp.a(altera_avalon_jtag_uart_ioctl.o)
 .debug_str     0x00002281       0x1a ../helloWorld_bsp\libhal_bsp.a(altera_avalon_jtag_uart_read.o)
 .debug_str     0x0000229b       0x1a ../helloWorld_bsp\libhal_bsp.a(altera_avalon_jtag_uart_write.o)
 .debug_str     0x000022b5       0x12 ../helloWorld_bsp\libhal_bsp.a(altera_avalon_timer_sc.o)
 .debug_str     0x000022c7       0x12 ../helloWorld_bsp\libhal_bsp.a(altera_avalon_uart_fd.o)
 .debug_str     0x000022d9       0x19 ../helloWorld_bsp\libhal_bsp.a(altera_avalon_uart_init.o)
 .debug_str     0x000022f2       0x1a ../helloWorld_bsp\libhal_bsp.a(altera_avalon_uart_read.o)
 .debug_str     0x0000230c       0x1a ../helloWorld_bsp\libhal_bsp.a(altera_avalon_uart_write.o)
 .debug_str     0x00002326       0x3a ../helloWorld_bsp\libhal_bsp.a(altera_up_avalon_ps2.o)
 .debug_str     0x00002360       0x35 ../helloWorld_bsp\libhal_bsp.a(altera_up_avalon_video_character_buffer_with_dma.o)
 .debug_str     0x00002395       0x2d ../helloWorld_bsp\libhal_bsp.a(altera_up_ps2_keyboard.o)
 .debug_str     0x000023c2       0x23 ../helloWorld_bsp\libhal_bsp.a(alt_alarm_start.o)
 .debug_str     0x000023e5       0x12 ../helloWorld_bsp\libhal_bsp.a(alt_busy_sleep.o)
 .debug_str     0x000023f7       0x12 ../helloWorld_bsp\libhal_bsp.a(alt_dcache_flush.o)
 .debug_str     0x00002409       0x12 ../helloWorld_bsp\libhal_bsp.a(alt_dev_llist_insert.o)
 .debug_str     0x0000241b       0x12 ../helloWorld_bsp\libhal_bsp.a(alt_find_dev.o)
 .debug_str     0x0000242d       0x2d ../helloWorld_bsp\libhal_bsp.a(alt_flash_dev.o)
 .debug_str     0x0000245a       0x12 ../helloWorld_bsp\libhal_bsp.a(alt_io_redirect.o)
 .debug_str     0x0000246c       0x21 ../helloWorld_bsp\libhal_bsp.a(alt_irq_register.o)
 .debug_str     0x0000248d       0x12 ../helloWorld_bsp\libhal_bsp.a(alt_open.o)
 .debug_str     0x0000249f       0x12 ../helloWorld_bsp\libhal_bsp.a(altera_nios2_irq.o)
 .debug_str     0x000024b1       0x76 ../helloWorld_bsp\libhal_bsp.a(altera_avalon_cfi_flash_amd.o)
 .debug_str     0x00002527       0x7d ../helloWorld_bsp\libhal_bsp.a(altera_avalon_cfi_flash_intel.o)
 .debug_str     0x000025a4       0x12 ../helloWorld_bsp\libhal_bsp.a(alt_find_file.o)
 .debug_str     0x000025b6       0x12 ../helloWorld_bsp\libhal_bsp.a(alt_get_fd.o)
 .debug_str     0x000025c8       0x12 ../helloWorld_bsp\libhal_bsp.a(alt_irq_handler.o)
 .debug_str     0x000025da       0x3b c:/altera/10.1/nios2eds/bin/gnu/h-i686-mingw32/bin/../lib/gcc/nios2-elf/4.1.2/../../../../nios2-elf/lib\libc.a(lib_a-atexit.o)
                                0x1ac (size before relaxing)
 .debug_str     0x00002615       0x3e c:/altera/10.1/nios2eds/bin/gnu/h-i686-mingw32/bin/../lib/gcc/nios2-elf/4.1.2/../../../../nios2-elf/lib\libc.a(lib_a-exit.o)
                                0x4f9 (size before relaxing)
 .debug_str     0x00002653       0x42 c:/altera/10.1/nios2eds/bin/gnu/h-i686-mingw32/bin/../lib/gcc/nios2-elf/4.1.2/../../../../nios2-elf/lib\libc.a(lib_a-memcmp.o)
                                0x157 (size before relaxing)
 .debug_str     0x00002695       0x42 c:/altera/10.1/nios2eds/bin/gnu/h-i686-mingw32/bin/../lib/gcc/nios2-elf/4.1.2/../../../../nios2-elf/lib\libc.a(lib_a-strcpy.o)
                                0x172 (size before relaxing)
 .debug_str     0x000026d7       0x51 c:/altera/10.1/nios2eds/bin/gnu/h-i686-mingw32/bin/../lib/gcc/nios2-elf/4.1.2/../../../../nios2-elf/lib\libc.a(lib_a-__atexit.o)
                                0x511 (size before relaxing)
 .debug_str     0x00002728       0x7b c:/altera/10.1/nios2eds/bin/gnu/h-i686-mingw32/bin/../lib/gcc/nios2-elf/4.1.2/../../../../nios2-elf/lib\libc.a(lib_a-__call_atexit.o)
                                0x53b (size before relaxing)
 .debug_str     0x000027a3       0x1c ../helloWorld_bsp\libhal_bsp.a(alt_exit.o)

.debug_loc      0x00000000     0xd404
 *(.debug_loc)
 .debug_loc     0x00000000      0x25b obj/hello_world.o
 .debug_loc     0x0000025b       0x45 c:/altera/10.1/nios2eds/bin/gnu/h-i686-mingw32/bin/../lib/gcc/nios2-elf/4.1.2\libgcc.a(_gt_sf.o)
 .debug_loc     0x000002a0       0x45 c:/altera/10.1/nios2eds/bin/gnu/h-i686-mingw32/bin/../lib/gcc/nios2-elf/4.1.2\libgcc.a(_lt_sf.o)
 .debug_loc     0x000002e5       0x32 c:/altera/10.1/nios2eds/bin/gnu/h-i686-mingw32/bin/../lib/gcc/nios2-elf/4.1.2\libgcc.a(_sf_to_df.o)
 .debug_loc     0x00000317      0x1df c:/altera/10.1/nios2eds/bin/gnu/h-i686-mingw32/bin/../lib/gcc/nios2-elf/4.1.2\libgcc.a(_div_df.o)
 .debug_loc     0x000004f6       0x70 c:/altera/10.1/nios2eds/bin/gnu/h-i686-mingw32/bin/../lib/gcc/nios2-elf/4.1.2\libgcc.a(_gt_df.o)
 .debug_loc     0x00000566       0x70 c:/altera/10.1/nios2eds/bin/gnu/h-i686-mingw32/bin/../lib/gcc/nios2-elf/4.1.2\libgcc.a(_lt_df.o)
 .debug_loc     0x000005d6       0x9a c:/altera/10.1/nios2eds/bin/gnu/h-i686-mingw32/bin/../lib/gcc/nios2-elf/4.1.2\libgcc.a(_si_to_df.o)
 .debug_loc     0x00000670       0x58 c:/altera/10.1/nios2eds/bin/gnu/h-i686-mingw32/bin/../lib/gcc/nios2-elf/4.1.2\libgcc.a(_make_df.o)
 .debug_loc     0x000006c8       0x6a c:/altera/10.1/nios2eds/bin/gnu/h-i686-mingw32/bin/../lib/gcc/nios2-elf/4.1.2\libgcc.a(_df_to_sf.o)
 .debug_loc     0x00000732      0x1d2 c:/altera/10.1/nios2eds/bin/gnu/h-i686-mingw32/bin/../lib/gcc/nios2-elf/4.1.2\libgcc.a(lib2-divmod.o)
 .debug_loc     0x00000904       0x1e c:/altera/10.1/nios2eds/bin/gnu/h-i686-mingw32/bin/../lib/gcc/nios2-elf/4.1.2\libgcc.a(_clzsi2.o)
 .debug_loc     0x00000922       0x31 c:/altera/10.1/nios2eds/bin/gnu/h-i686-mingw32/bin/../lib/gcc/nios2-elf/4.1.2\libgcc.a(_unpack_sf.o)
 .debug_loc     0x00000953       0x3c c:/altera/10.1/nios2eds/bin/gnu/h-i686-mingw32/bin/../lib/gcc/nios2-elf/4.1.2\libgcc.a(_fpcmp_parts_sf.o)
 .debug_loc     0x0000098f       0x6b c:/altera/10.1/nios2eds/bin/gnu/h-i686-mingw32/bin/../lib/gcc/nios2-elf/4.1.2\libgcc.a(_make_sf.o)
 .debug_loc     0x000009fa      0x184 c:/altera/10.1/nios2eds/bin/gnu/h-i686-mingw32/bin/../lib/gcc/nios2-elf/4.1.2\libgcc.a(_pack_df.o)
 .debug_loc     0x00000b7e       0xe5 c:/altera/10.1/nios2eds/bin/gnu/h-i686-mingw32/bin/../lib/gcc/nios2-elf/4.1.2\libgcc.a(_unpack_df.o)
 .debug_loc     0x00000c63       0xf9 c:/altera/10.1/nios2eds/bin/gnu/h-i686-mingw32/bin/../lib/gcc/nios2-elf/4.1.2\libgcc.a(_pack_sf.o)
 .debug_loc     0x00000d5c       0xcb c:/altera/10.1/nios2eds/bin/gnu/h-i686-mingw32/bin/../lib/gcc/nios2-elf/4.1.2/../../../../nios2-elf/lib\libc.a(lib_a-printf.o)
 .debug_loc     0x00000e27       0x44 c:/altera/10.1/nios2eds/bin/gnu/h-i686-mingw32/bin/../lib/gcc/nios2-elf/4.1.2/../../../../nios2-elf/lib\libc.a(lib_a-putchar.o)
 .debug_loc     0x00000e6b       0x42 c:/altera/10.1/nios2eds/bin/gnu/h-i686-mingw32/bin/../lib/gcc/nios2-elf/4.1.2/../../../../nios2-elf/lib\libc.a(lib_a-rand.o)
 .debug_loc     0x00000ead       0x48 c:/altera/10.1/nios2eds/bin/gnu/h-i686-mingw32/bin/../lib/gcc/nios2-elf/4.1.2/../../../../nios2-elf/lib\libc.a(lib_a-time.o)
 .debug_loc     0x00000ef5     0x1e0d c:/altera/10.1/nios2eds/bin/gnu/h-i686-mingw32/bin/../lib/gcc/nios2-elf/4.1.2/../../../../nios2-elf/lib\libc.a(lib_a-vfprintf.o)
 .debug_loc     0x00002d02       0x7c c:/altera/10.1/nios2eds/bin/gnu/h-i686-mingw32/bin/../lib/gcc/nios2-elf/4.1.2/../../../../nios2-elf/lib\libc.a(lib_a-wsetup.o)
 .debug_loc     0x00002d7e     0x1dfa c:/altera/10.1/nios2eds/bin/gnu/h-i686-mingw32/bin/../lib/gcc/nios2-elf/4.1.2/../../../../nios2-elf/lib\libc.a(lib_a-dtoa.o)
 .debug_loc     0x00004b78      0x1f6 c:/altera/10.1/nios2eds/bin/gnu/h-i686-mingw32/bin/../lib/gcc/nios2-elf/4.1.2/../../../../nios2-elf/lib\libc.a(lib_a-fflush.o)
 .debug_loc     0x00004d6e      0x19f c:/altera/10.1/nios2eds/bin/gnu/h-i686-mingw32/bin/../lib/gcc/nios2-elf/4.1.2/../../../../nios2-elf/lib\libc.a(lib_a-findfp.o)
 .debug_loc     0x00004f0d      0x4a7 c:/altera/10.1/nios2eds/bin/gnu/h-i686-mingw32/bin/../lib/gcc/nios2-elf/4.1.2/../../../../nios2-elf/lib\libc.a(lib_a-freer.o)
 .debug_loc     0x000053b4      0x4e4 c:/altera/10.1/nios2eds/bin/gnu/h-i686-mingw32/bin/../lib/gcc/nios2-elf/4.1.2/../../../../nios2-elf/lib\libc.a(lib_a-fvwrite.o)
 .debug_loc     0x00005898      0x1d2 c:/altera/10.1/nios2eds/bin/gnu/h-i686-mingw32/bin/../lib/gcc/nios2-elf/4.1.2/../../../../nios2-elf/lib\libc.a(lib_a-fwalk.o)
 .debug_loc     0x00005a6a       0x79 c:/altera/10.1/nios2eds/bin/gnu/h-i686-mingw32/bin/../lib/gcc/nios2-elf/4.1.2/../../../../nios2-elf/lib\libc.a(lib_a-gettimeofdayr.o)
 .debug_loc     0x00005ae3       0xe1 c:/altera/10.1/nios2eds/bin/gnu/h-i686-mingw32/bin/../lib/gcc/nios2-elf/4.1.2/../../../../nios2-elf/lib\libc.a(lib_a-locale.o)
 .debug_loc     0x00005bc4      0x11c c:/altera/10.1/nios2eds/bin/gnu/h-i686-mingw32/bin/../lib/gcc/nios2-elf/4.1.2/../../../../nios2-elf/lib\libc.a(lib_a-makebuf.o)
 .debug_loc     0x00005ce0      0xaeb c:/altera/10.1/nios2eds/bin/gnu/h-i686-mingw32/bin/../lib/gcc/nios2-elf/4.1.2/../../../../nios2-elf/lib\libc.a(lib_a-mallocr.o)
 .debug_loc     0x000067cb      0x106 c:/altera/10.1/nios2eds/bin/gnu/h-i686-mingw32/bin/../lib/gcc/nios2-elf/4.1.2/../../../../nios2-elf/lib\libc.a(lib_a-memchr.o)
 .debug_loc     0x000068d1       0xca c:/altera/10.1/nios2eds/bin/gnu/h-i686-mingw32/bin/../lib/gcc/nios2-elf/4.1.2/../../../../nios2-elf/lib\libc.a(lib_a-memcpy.o)
 .debug_loc     0x0000699b      0x117 c:/altera/10.1/nios2eds/bin/gnu/h-i686-mingw32/bin/../lib/gcc/nios2-elf/4.1.2/../../../../nios2-elf/lib\libc.a(lib_a-memmove.o)
 .debug_loc     0x00006ab2       0xa1 c:/altera/10.1/nios2eds/bin/gnu/h-i686-mingw32/bin/../lib/gcc/nios2-elf/4.1.2/../../../../nios2-elf/lib\libc.a(lib_a-memset.o)
 .debug_loc     0x00006b53     0x14d6 c:/altera/10.1/nios2eds/bin/gnu/h-i686-mingw32/bin/../lib/gcc/nios2-elf/4.1.2/../../../../nios2-elf/lib\libc.a(lib_a-mprec.o)
 .debug_loc     0x00008029      0x20d c:/altera/10.1/nios2eds/bin/gnu/h-i686-mingw32/bin/../lib/gcc/nios2-elf/4.1.2/../../../../nios2-elf/lib\libc.a(lib_a-putc.o)
 .debug_loc     0x00008236      0x8c0 c:/altera/10.1/nios2eds/bin/gnu/h-i686-mingw32/bin/../lib/gcc/nios2-elf/4.1.2/../../../../nios2-elf/lib\libc.a(lib_a-reallocr.o)
 .debug_loc     0x00008af6       0x36 c:/altera/10.1/nios2eds/bin/gnu/h-i686-mingw32/bin/../lib/gcc/nios2-elf/4.1.2/../../../../nios2-elf/lib\libc.a(lib_a-s_isinfd.o)
 .debug_loc     0x00008b2c       0x18 c:/altera/10.1/nios2eds/bin/gnu/h-i686-mingw32/bin/../lib/gcc/nios2-elf/4.1.2/../../../../nios2-elf/lib\libc.a(lib_a-s_isnand.o)
 .debug_loc     0x00008b44       0x5b c:/altera/10.1/nios2eds/bin/gnu/h-i686-mingw32/bin/../lib/gcc/nios2-elf/4.1.2/../../../../nios2-elf/lib\libc.a(lib_a-sbrkr.o)
 .debug_loc     0x00008b9f      0x21f c:/altera/10.1/nios2eds/bin/gnu/h-i686-mingw32/bin/../lib/gcc/nios2-elf/4.1.2/../../../../nios2-elf/lib\libc.a(lib_a-stdio.o)
 .debug_loc     0x00008dbe       0x65 c:/altera/10.1/nios2eds/bin/gnu/h-i686-mingw32/bin/../lib/gcc/nios2-elf/4.1.2/../../../../nios2-elf/lib\libc.a(lib_a-strcmp.o)
 .debug_loc     0x00008e23       0x3c c:/altera/10.1/nios2eds/bin/gnu/h-i686-mingw32/bin/../lib/gcc/nios2-elf/4.1.2/../../../../nios2-elf/lib\libc.a(lib_a-strlen.o)
 .debug_loc     0x00008e5f      0x157 c:/altera/10.1/nios2eds/bin/gnu/h-i686-mingw32/bin/../lib/gcc/nios2-elf/4.1.2/../../../../nios2-elf/lib\libc.a(lib_a-wbuf.o)
 .debug_loc     0x00008fb6       0x97 c:/altera/10.1/nios2eds/bin/gnu/h-i686-mingw32/bin/../lib/gcc/nios2-elf/4.1.2/../../../../nios2-elf/lib\libc.a(lib_a-writer.o)
 .debug_loc     0x0000904d       0xe9 c:/altera/10.1/nios2eds/bin/gnu/h-i686-mingw32/bin/../lib/gcc/nios2-elf/4.1.2/../../../../nios2-elf/lib\libc.a(lib_a-callocr.o)
 .debug_loc     0x00009136       0x5b c:/altera/10.1/nios2eds/bin/gnu/h-i686-mingw32/bin/../lib/gcc/nios2-elf/4.1.2/../../../../nios2-elf/lib\libc.a(lib_a-closer.o)
 .debug_loc     0x00009191       0xe4 c:/altera/10.1/nios2eds/bin/gnu/h-i686-mingw32/bin/../lib/gcc/nios2-elf/4.1.2/../../../../nios2-elf/lib\libc.a(lib_a-fclose.o)
 .debug_loc     0x00009275       0x79 c:/altera/10.1/nios2eds/bin/gnu/h-i686-mingw32/bin/../lib/gcc/nios2-elf/4.1.2/../../../../nios2-elf/lib\libc.a(lib_a-fstatr.o)
 .debug_loc     0x000092ee       0x5b c:/altera/10.1/nios2eds/bin/gnu/h-i686-mingw32/bin/../lib/gcc/nios2-elf/4.1.2/../../../../nios2-elf/lib\libc.a(lib_a-isattyr.o)
 .debug_loc     0x00009349       0x97 c:/altera/10.1/nios2eds/bin/gnu/h-i686-mingw32/bin/../lib/gcc/nios2-elf/4.1.2/../../../../nios2-elf/lib\libc.a(lib_a-lseekr.o)
 .debug_loc     0x000093e0       0x97 c:/altera/10.1/nios2eds/bin/gnu/h-i686-mingw32/bin/../lib/gcc/nios2-elf/4.1.2/../../../../nios2-elf/lib\libc.a(lib_a-readr.o)
 .debug_loc     0x00009477       0xcf c:/altera/10.1/nios2eds/bin/gnu/h-i686-mingw32/bin/../lib/gcc/nios2-elf/4.1.2\libgcc.a(_muldi3.o)
 .debug_loc     0x00009546      0xc12 c:/altera/10.1/nios2eds/bin/gnu/h-i686-mingw32/bin/../lib/gcc/nios2-elf/4.1.2\libgcc.a(_udivdi3.o)
 .debug_loc     0x0000a158      0xc31 c:/altera/10.1/nios2eds/bin/gnu/h-i686-mingw32/bin/../lib/gcc/nios2-elf/4.1.2\libgcc.a(_umoddi3.o)
 .debug_loc     0x0000ad89      0x47a c:/altera/10.1/nios2eds/bin/gnu/h-i686-mingw32/bin/../lib/gcc/nios2-elf/4.1.2\libgcc.a(_addsub_df.o)
 .debug_loc     0x0000b203      0x3b4 c:/altera/10.1/nios2eds/bin/gnu/h-i686-mingw32/bin/../lib/gcc/nios2-elf/4.1.2\libgcc.a(_mul_df.o)
 .debug_loc     0x0000b5b7       0x70 c:/altera/10.1/nios2eds/bin/gnu/h-i686-mingw32/bin/../lib/gcc/nios2-elf/4.1.2\libgcc.a(_eq_df.o)
 .debug_loc     0x0000b627       0x70 c:/altera/10.1/nios2eds/bin/gnu/h-i686-mingw32/bin/../lib/gcc/nios2-elf/4.1.2\libgcc.a(_ne_df.o)
 .debug_loc     0x0000b697       0x70 c:/altera/10.1/nios2eds/bin/gnu/h-i686-mingw32/bin/../lib/gcc/nios2-elf/4.1.2\libgcc.a(_ge_df.o)
 .debug_loc     0x0000b707       0x8b c:/altera/10.1/nios2eds/bin/gnu/h-i686-mingw32/bin/../lib/gcc/nios2-elf/4.1.2\libgcc.a(_df_to_si.o)
 .debug_loc     0x0000b792       0x5b c:/altera/10.1/nios2eds/bin/gnu/h-i686-mingw32/bin/../lib/gcc/nios2-elf/4.1.2\libgcc.a(_usi_to_df.o)
 .debug_loc     0x0000b7ed       0x56 ../helloWorld_bsp\libhal_bsp.a(alt_close.o)
 .debug_loc     0x0000b843       0x2b ../helloWorld_bsp\libhal_bsp.a(alt_dev.o)
 .debug_loc     0x0000b86e       0x56 ../helloWorld_bsp\libhal_bsp.a(alt_fstat.o)
 .debug_loc     0x0000b8c4       0x2b ../helloWorld_bsp\libhal_bsp.a(alt_gettod.o)
 .debug_loc     0x0000b8ef       0x57 ../helloWorld_bsp\libhal_bsp.a(alt_isatty.o)
 .debug_loc     0x0000b946       0x56 ../helloWorld_bsp\libhal_bsp.a(alt_lseek.o)
 .debug_loc     0x0000b99c       0x2b ../helloWorld_bsp\libhal_bsp.a(alt_main.o)
 .debug_loc     0x0000b9c7       0x56 ../helloWorld_bsp\libhal_bsp.a(alt_malloc_lock.o)
 .debug_loc     0x0000ba1d       0x2b ../helloWorld_bsp\libhal_bsp.a(alt_printf.o)
 .debug_loc     0x0000ba48       0x2b ../helloWorld_bsp\libhal_bsp.a(alt_putchar.o)
 .debug_loc     0x0000ba73       0x56 ../helloWorld_bsp\libhal_bsp.a(alt_read.o)
 .debug_loc     0x0000bac9       0x2b ../helloWorld_bsp\libhal_bsp.a(alt_release_fd.o)
 .debug_loc     0x0000baf4       0x2b ../helloWorld_bsp\libhal_bsp.a(alt_sbrk.o)
 .debug_loc     0x0000bb1f       0x56 ../helloWorld_bsp\libhal_bsp.a(alt_tick.o)
 .debug_loc     0x0000bb75       0x2b ../helloWorld_bsp\libhal_bsp.a(alt_usleep.o)
 .debug_loc     0x0000bba0       0x56 ../helloWorld_bsp\libhal_bsp.a(alt_write.o)
 .debug_loc     0x0000bbf6       0x81 ../helloWorld_bsp\libhal_bsp.a(alt_sys_init.o)
 .debug_loc     0x0000bc77      0x12e ../helloWorld_bsp\libhal_bsp.a(altera_avalon_cfi_flash.o)
 .debug_loc     0x0000bda5      0x306 ../helloWorld_bsp\libhal_bsp.a(altera_avalon_cfi_flash_table.o)
 .debug_loc     0x0000c0ab       0xac ../helloWorld_bsp\libhal_bsp.a(altera_avalon_jtag_uart_fd.o)
 .debug_loc     0x0000c157       0xac ../helloWorld_bsp\libhal_bsp.a(altera_avalon_jtag_uart_init.o)
 .debug_loc     0x0000c203       0x2b ../helloWorld_bsp\libhal_bsp.a(altera_avalon_jtag_uart_ioctl.o)
 .debug_loc     0x0000c22e       0x2b ../helloWorld_bsp\libhal_bsp.a(altera_avalon_jtag_uart_read.o)
 .debug_loc     0x0000c259       0x2b ../helloWorld_bsp\libhal_bsp.a(altera_avalon_jtag_uart_write.o)
 .debug_loc     0x0000c284       0x2b ../helloWorld_bsp\libhal_bsp.a(altera_avalon_spi.o)
 .debug_loc     0x0000c2af       0x56 ../helloWorld_bsp\libhal_bsp.a(altera_avalon_timer_sc.o)
 .debug_loc     0x0000c305       0x81 ../helloWorld_bsp\libhal_bsp.a(altera_avalon_uart_fd.o)
 .debug_loc     0x0000c386       0xd7 ../helloWorld_bsp\libhal_bsp.a(altera_avalon_uart_init.o)
 .debug_loc     0x0000c45d       0x57 ../helloWorld_bsp\libhal_bsp.a(altera_avalon_uart_read.o)
 .debug_loc     0x0000c4b4       0x56 ../helloWorld_bsp\libhal_bsp.a(altera_avalon_uart_write.o)
 .debug_loc     0x0000c50a      0x306 ../helloWorld_bsp\libhal_bsp.a(altera_up_avalon_ps2.o)
 .debug_loc     0x0000c810       0xd7 ../helloWorld_bsp\libhal_bsp.a(altera_up_avalon_video_character_buffer_with_dma.o)
 .debug_loc     0x0000c8e7      0x12d ../helloWorld_bsp\libhal_bsp.a(altera_up_ps2_keyboard.o)
 .debug_loc     0x0000ca14       0x2b ../helloWorld_bsp\libhal_bsp.a(alt_alarm_start.o)
 .debug_loc     0x0000ca3f       0x2b ../helloWorld_bsp\libhal_bsp.a(alt_busy_sleep.o)
 .debug_loc     0x0000ca6a       0x2b ../helloWorld_bsp\libhal_bsp.a(alt_dcache_flush.o)
 .debug_loc     0x0000ca95       0x56 ../helloWorld_bsp\libhal_bsp.a(alt_dev_llist_insert.o)
 .debug_loc     0x0000caeb       0x2b ../helloWorld_bsp\libhal_bsp.a(alt_do_ctors.o)
 .debug_loc     0x0000cb16       0x2b ../helloWorld_bsp\libhal_bsp.a(alt_do_dtors.o)
 .debug_loc     0x0000cb41       0x2b ../helloWorld_bsp\libhal_bsp.a(alt_find_dev.o)
 .debug_loc     0x0000cb6c       0x56 ../helloWorld_bsp\libhal_bsp.a(alt_flash_dev.o)
 .debug_loc     0x0000cbc2       0x56 ../helloWorld_bsp\libhal_bsp.a(alt_io_redirect.o)
 .debug_loc     0x0000cc18       0x2c ../helloWorld_bsp\libhal_bsp.a(alt_irq_register.o)
 .debug_loc     0x0000cc44       0x81 ../helloWorld_bsp\libhal_bsp.a(alt_open.o)
 .debug_loc     0x0000ccc5       0x2b ../helloWorld_bsp\libhal_bsp.a(altera_nios2_irq.o)
 .debug_loc     0x0000ccf0       0xac ../helloWorld_bsp\libhal_bsp.a(altera_avalon_cfi_flash_amd.o)
 .debug_loc     0x0000cd9c       0xac ../helloWorld_bsp\libhal_bsp.a(altera_avalon_cfi_flash_intel.o)
 .debug_loc     0x0000ce48       0x2b ../helloWorld_bsp\libhal_bsp.a(alt_find_file.o)
 .debug_loc     0x0000ce73       0x2b ../helloWorld_bsp\libhal_bsp.a(alt_get_fd.o)
 .debug_loc     0x0000ce9e       0x2b ../helloWorld_bsp\libhal_bsp.a(alt_irq_handler.o)
 .debug_loc     0x0000cec9       0x1e c:/altera/10.1/nios2eds/bin/gnu/h-i686-mingw32/bin/../lib/gcc/nios2-elf/4.1.2/../../../../nios2-elf/lib\libc.a(lib_a-atexit.o)
 .debug_loc     0x0000cee7       0x3d c:/altera/10.1/nios2eds/bin/gnu/h-i686-mingw32/bin/../lib/gcc/nios2-elf/4.1.2/../../../../nios2-elf/lib\libc.a(lib_a-exit.o)
 .debug_loc     0x0000cf24      0x114 c:/altera/10.1/nios2eds/bin/gnu/h-i686-mingw32/bin/../lib/gcc/nios2-elf/4.1.2/../../../../nios2-elf/lib\libc.a(lib_a-memcmp.o)
 .debug_loc     0x0000d038       0x8b c:/altera/10.1/nios2eds/bin/gnu/h-i686-mingw32/bin/../lib/gcc/nios2-elf/4.1.2/../../../../nios2-elf/lib\libc.a(lib_a-strcpy.o)
 .debug_loc     0x0000d0c3      0x120 c:/altera/10.1/nios2eds/bin/gnu/h-i686-mingw32/bin/../lib/gcc/nios2-elf/4.1.2/../../../../nios2-elf/lib\libc.a(lib_a-__atexit.o)
 .debug_loc     0x0000d1e3      0x1cb c:/altera/10.1/nios2eds/bin/gnu/h-i686-mingw32/bin/../lib/gcc/nios2-elf/4.1.2/../../../../nios2-elf/lib\libc.a(lib_a-__call_atexit.o)
 .debug_loc     0x0000d3ae       0x56 ../helloWorld_bsp\libhal_bsp.a(alt_exit.o)

.debug_macinfo
 *(.debug_macinfo)

.debug_weaknames
 *(.debug_weaknames)

.debug_funcnames
 *(.debug_funcnames)

.debug_typenames
 *(.debug_typenames)

.debug_varnames
 *(.debug_varnames)

.debug_alt_sim_info
                0x00000000       0x50
 *(.debug_alt_sim_info)
 .debug_alt_sim_info
                0x00000000       0x20 ../helloWorld_bsp/obj/HAL/src/crt0.o
 .debug_alt_sim_info
                0x00000020       0x30 ../helloWorld_bsp\libhal_bsp.a(alt_busy_sleep.o)
                0x01000000                __alt_data_end = 0x1000000
                0x01000000                PROVIDE (__alt_stack_pointer, __alt_data_end)
                0x0081695c                PROVIDE (__alt_stack_limit, __alt_stack_base)
                0x0081695c                PROVIDE (__alt_heap_start, end)
                0x01000000                PROVIDE (__alt_heap_limit, 0x1000000)
OUTPUT(helloWorld.elf elf32-littlenios2)

.debug_ranges   0x00000000      0x970
 .debug_ranges  0x00000000       0x50 c:/altera/10.1/nios2eds/bin/gnu/h-i686-mingw32/bin/../lib/gcc/nios2-elf/4.1.2\libgcc.a(_div_df.o)
 .debug_ranges  0x00000050       0x28 c:/altera/10.1/nios2eds/bin/gnu/h-i686-mingw32/bin/../lib/gcc/nios2-elf/4.1.2\libgcc.a(_clzsi2.o)
 .debug_ranges  0x00000078       0x28 c:/altera/10.1/nios2eds/bin/gnu/h-i686-mingw32/bin/../lib/gcc/nios2-elf/4.1.2\libgcc.a(_pack_df.o)
 .debug_ranges  0x000000a0      0x168 c:/altera/10.1/nios2eds/bin/gnu/h-i686-mingw32/bin/../lib/gcc/nios2-elf/4.1.2/../../../../nios2-elf/lib\libc.a(lib_a-vfprintf.o)
 .debug_ranges  0x00000208       0x20 c:/altera/10.1/nios2eds/bin/gnu/h-i686-mingw32/bin/../lib/gcc/nios2-elf/4.1.2/../../../../nios2-elf/lib\libc.a(lib_a-fflush.o)
 .debug_ranges  0x00000228       0x28 c:/altera/10.1/nios2eds/bin/gnu/h-i686-mingw32/bin/../lib/gcc/nios2-elf/4.1.2/../../../../nios2-elf/lib\libc.a(lib_a-fvwrite.o)
 .debug_ranges  0x00000250       0xa0 c:/altera/10.1/nios2eds/bin/gnu/h-i686-mingw32/bin/../lib/gcc/nios2-elf/4.1.2/../../../../nios2-elf/lib\libc.a(lib_a-fwalk.o)
 .debug_ranges  0x000002f0       0x70 c:/altera/10.1/nios2eds/bin/gnu/h-i686-mingw32/bin/../lib/gcc/nios2-elf/4.1.2/../../../../nios2-elf/lib\libc.a(lib_a-mallocr.o)
 .debug_ranges  0x00000360      0x110 c:/altera/10.1/nios2eds/bin/gnu/h-i686-mingw32/bin/../lib/gcc/nios2-elf/4.1.2/../../../../nios2-elf/lib\libc.a(lib_a-reallocr.o)
 .debug_ranges  0x00000470       0x38 c:/altera/10.1/nios2eds/bin/gnu/h-i686-mingw32/bin/../lib/gcc/nios2-elf/4.1.2/../../../../nios2-elf/lib\libc.a(lib_a-callocr.o)
 .debug_ranges  0x000004a8       0x68 c:/altera/10.1/nios2eds/bin/gnu/h-i686-mingw32/bin/../lib/gcc/nios2-elf/4.1.2\libgcc.a(_muldi3.o)
 .debug_ranges  0x00000510      0x188 c:/altera/10.1/nios2eds/bin/gnu/h-i686-mingw32/bin/../lib/gcc/nios2-elf/4.1.2\libgcc.a(_udivdi3.o)
 .debug_ranges  0x00000698      0x198 c:/altera/10.1/nios2eds/bin/gnu/h-i686-mingw32/bin/../lib/gcc/nios2-elf/4.1.2\libgcc.a(_umoddi3.o)
 .debug_ranges  0x00000830       0x30 c:/altera/10.1/nios2eds/bin/gnu/h-i686-mingw32/bin/../lib/gcc/nios2-elf/4.1.2\libgcc.a(_addsub_df.o)
 .debug_ranges  0x00000860       0x88 c:/altera/10.1/nios2eds/bin/gnu/h-i686-mingw32/bin/../lib/gcc/nios2-elf/4.1.2\libgcc.a(_mul_df.o)
 .debug_ranges  0x000008e8       0x18 c:/altera/10.1/nios2eds/bin/gnu/h-i686-mingw32/bin/../lib/gcc/nios2-elf/4.1.2\libgcc.a(_usi_to_df.o)
 .debug_ranges  0x00000900       0x28 ../helloWorld_bsp\libhal_bsp.a(alt_irq_entry.o)
 .debug_ranges  0x00000928       0x30 ../helloWorld_bsp\libhal_bsp.a(alt_exception_entry.o)
 .debug_ranges  0x00000958       0x18 c:/altera/10.1/nios2eds/bin/gnu/h-i686-mingw32/bin/../lib/gcc/nios2-elf/4.1.2/../../../../nios2-elf/lib\libc.a(lib_a-__call_atexit.o)
