Archive member included because of file (symbol)

c:/altera/10.1/nios2eds/bin/gnu/h-i686-mingw32/bin/../lib/gcc/nios2-elf/4.1.2\libgcc.a(_gt_sf.o)
                              obj/hello_world.o (__gtsf2)
c:/altera/10.1/nios2eds/bin/gnu/h-i686-mingw32/bin/../lib/gcc/nios2-elf/4.1.2\libgcc.a(_lt_sf.o)
                              obj/hello_world.o (__ltsf2)
c:/altera/10.1/nios2eds/bin/gnu/h-i686-mingw32/bin/../lib/gcc/nios2-elf/4.1.2\libgcc.a(_sf_to_df.o)
                              obj/hello_world.o (__extendsfdf2)
c:/altera/10.1/nios2eds/bin/gnu/h-i686-mingw32/bin/../lib/gcc/nios2-elf/4.1.2\libgcc.a(_div_df.o)
                              obj/hello_world.o (__divdf3)
c:/altera/10.1/nios2eds/bin/gnu/h-i686-mingw32/bin/../lib/gcc/nios2-elf/4.1.2\libgcc.a(_gt_df.o)
                              obj/hello_world.o (__gtdf2)
c:/altera/10.1/nios2eds/bin/gnu/h-i686-mingw32/bin/../lib/gcc/nios2-elf/4.1.2\libgcc.a(_lt_df.o)
                              obj/hello_world.o (__ltdf2)
c:/altera/10.1/nios2eds/bin/gnu/h-i686-mingw32/bin/../lib/gcc/nios2-elf/4.1.2\libgcc.a(_si_to_df.o)
                              obj/hello_world.o (__floatsidf)
c:/altera/10.1/nios2eds/bin/gnu/h-i686-mingw32/bin/../lib/gcc/nios2-elf/4.1.2\libgcc.a(_make_df.o)
                              c:/altera/10.1/nios2eds/bin/gnu/h-i686-mingw32/bin/../lib/gcc/nios2-elf/4.1.2\libgcc.a(_sf_to_df.o) (__make_dp)
c:/altera/10.1/nios2eds/bin/gnu/h-i686-mingw32/bin/../lib/gcc/nios2-elf/4.1.2\libgcc.a(_df_to_sf.o)
                              obj/hello_world.o (__truncdfsf2)
c:/altera/10.1/nios2eds/bin/gnu/h-i686-mingw32/bin/../lib/gcc/nios2-elf/4.1.2\libgcc.a(_thenan_df.o)
                              c:/altera/10.1/nios2eds/bin/gnu/h-i686-mingw32/bin/../lib/gcc/nios2-elf/4.1.2\libgcc.a(_div_df.o) (__thenan_df)
c:/altera/10.1/nios2eds/bin/gnu/h-i686-mingw32/bin/../lib/gcc/nios2-elf/4.1.2\libgcc.a(lib2-divmod.o)
                              obj/hello_world.o (__modsi3)
c:/altera/10.1/nios2eds/bin/gnu/h-i686-mingw32/bin/../lib/gcc/nios2-elf/4.1.2\libgcc.a(_clzsi2.o)
                              c:/altera/10.1/nios2eds/bin/gnu/h-i686-mingw32/bin/../lib/gcc/nios2-elf/4.1.2\libgcc.a(_si_to_df.o) (__clzsi2)
c:/altera/10.1/nios2eds/bin/gnu/h-i686-mingw32/bin/../lib/gcc/nios2-elf/4.1.2\libgcc.a(_unpack_sf.o)
                              c:/altera/10.1/nios2eds/bin/gnu/h-i686-mingw32/bin/../lib/gcc/nios2-elf/4.1.2\libgcc.a(_gt_sf.o) (__unpack_f)
c:/altera/10.1/nios2eds/bin/gnu/h-i686-mingw32/bin/../lib/gcc/nios2-elf/4.1.2\libgcc.a(_fpcmp_parts_sf.o)
                              c:/altera/10.1/nios2eds/bin/gnu/h-i686-mingw32/bin/../lib/gcc/nios2-elf/4.1.2\libgcc.a(_gt_sf.o) (__fpcmp_parts_f)
c:/altera/10.1/nios2eds/bin/gnu/h-i686-mingw32/bin/../lib/gcc/nios2-elf/4.1.2\libgcc.a(_make_sf.o)
                              c:/altera/10.1/nios2eds/bin/gnu/h-i686-mingw32/bin/../lib/gcc/nios2-elf/4.1.2\libgcc.a(_df_to_sf.o) (__make_fp)
c:/altera/10.1/nios2eds/bin/gnu/h-i686-mingw32/bin/../lib/gcc/nios2-elf/4.1.2\libgcc.a(_pack_df.o)
                              c:/altera/10.1/nios2eds/bin/gnu/h-i686-mingw32/bin/../lib/gcc/nios2-elf/4.1.2\libgcc.a(_div_df.o) (__pack_d)
c:/altera/10.1/nios2eds/bin/gnu/h-i686-mingw32/bin/../lib/gcc/nios2-elf/4.1.2\libgcc.a(_unpack_df.o)
                              c:/altera/10.1/nios2eds/bin/gnu/h-i686-mingw32/bin/../lib/gcc/nios2-elf/4.1.2\libgcc.a(_div_df.o) (__unpack_d)
c:/altera/10.1/nios2eds/bin/gnu/h-i686-mingw32/bin/../lib/gcc/nios2-elf/4.1.2\libgcc.a(_fpcmp_parts_df.o)
                              c:/altera/10.1/nios2eds/bin/gnu/h-i686-mingw32/bin/../lib/gcc/nios2-elf/4.1.2\libgcc.a(_gt_df.o) (__fpcmp_parts_d)
c:/altera/10.1/nios2eds/bin/gnu/h-i686-mingw32/bin/../lib/gcc/nios2-elf/4.1.2\libgcc.a(_clz.o)
                              c:/altera/10.1/nios2eds/bin/gnu/h-i686-mingw32/bin/../lib/gcc/nios2-elf/4.1.2\libgcc.a(_clzsi2.o) (__clz_tab)
c:/altera/10.1/nios2eds/bin/gnu/h-i686-mingw32/bin/../lib/gcc/nios2-elf/4.1.2\libgcc.a(_pack_sf.o)
                              c:/altera/10.1/nios2eds/bin/gnu/h-i686-mingw32/bin/../lib/gcc/nios2-elf/4.1.2\libgcc.a(_make_sf.o) (__pack_f)
c:/altera/10.1/nios2eds/bin/gnu/h-i686-mingw32/bin/../lib/gcc/nios2-elf/4.1.2/../../../../nios2-elf/lib\libc.a(lib_a-printf.o)
                              obj/hello_world.o (printf)
c:/altera/10.1/nios2eds/bin/gnu/h-i686-mingw32/bin/../lib/gcc/nios2-elf/4.1.2/../../../../nios2-elf/lib\libc.a(lib_a-rand.o)
                              obj/hello_world.o (srand)
c:/altera/10.1/nios2eds/bin/gnu/h-i686-mingw32/bin/../lib/gcc/nios2-elf/4.1.2/../../../../nios2-elf/lib\libc.a(lib_a-time.o)
                              obj/hello_world.o (time)
c:/altera/10.1/nios2eds/bin/gnu/h-i686-mingw32/bin/../lib/gcc/nios2-elf/4.1.2/../../../../nios2-elf/lib\libc.a(lib_a-vfprintf.o)
                              c:/altera/10.1/nios2eds/bin/gnu/h-i686-mingw32/bin/../lib/gcc/nios2-elf/4.1.2/../../../../nios2-elf/lib\libc.a(lib_a-printf.o) (___vfprintf_internal_r)
c:/altera/10.1/nios2eds/bin/gnu/h-i686-mingw32/bin/../lib/gcc/nios2-elf/4.1.2/../../../../nios2-elf/lib\libc.a(lib_a-wsetup.o)
                              c:/altera/10.1/nios2eds/bin/gnu/h-i686-mingw32/bin/../lib/gcc/nios2-elf/4.1.2/../../../../nios2-elf/lib\libc.a(lib_a-vfprintf.o) (__swsetup_r)
c:/altera/10.1/nios2eds/bin/gnu/h-i686-mingw32/bin/../lib/gcc/nios2-elf/4.1.2/../../../../nios2-elf/lib\libc.a(lib_a-dtoa.o)
                              c:/altera/10.1/nios2eds/bin/gnu/h-i686-mingw32/bin/../lib/gcc/nios2-elf/4.1.2/../../../../nios2-elf/lib\libc.a(lib_a-vfprintf.o) (_dtoa_r)
c:/altera/10.1/nios2eds/bin/gnu/h-i686-mingw32/bin/../lib/gcc/nios2-elf/4.1.2/../../../../nios2-elf/lib\libc.a(lib_a-fflush.o)
                              c:/altera/10.1/nios2eds/bin/gnu/h-i686-mingw32/bin/../lib/gcc/nios2-elf/4.1.2/../../../../nios2-elf/lib\libc.a(lib_a-vfprintf.o) (_fflush_r)
c:/altera/10.1/nios2eds/bin/gnu/h-i686-mingw32/bin/../lib/gcc/nios2-elf/4.1.2/../../../../nios2-elf/lib\libc.a(lib_a-findfp.o)
                              c:/altera/10.1/nios2eds/bin/gnu/h-i686-mingw32/bin/../lib/gcc/nios2-elf/4.1.2/../../../../nios2-elf/lib\libc.a(lib_a-vfprintf.o) (__sinit)
c:/altera/10.1/nios2eds/bin/gnu/h-i686-mingw32/bin/../lib/gcc/nios2-elf/4.1.2/../../../../nios2-elf/lib\libc.a(lib_a-freer.o)
                              c:/altera/10.1/nios2eds/bin/gnu/h-i686-mingw32/bin/../lib/gcc/nios2-elf/4.1.2/../../../../nios2-elf/lib\libc.a(lib_a-wsetup.o) (_free_r)
c:/altera/10.1/nios2eds/bin/gnu/h-i686-mingw32/bin/../lib/gcc/nios2-elf/4.1.2/../../../../nios2-elf/lib\libc.a(lib_a-fvwrite.o)
                              c:/altera/10.1/nios2eds/bin/gnu/h-i686-mingw32/bin/../lib/gcc/nios2-elf/4.1.2/../../../../nios2-elf/lib\libc.a(lib_a-vfprintf.o) (__sfvwrite_r)
c:/altera/10.1/nios2eds/bin/gnu/h-i686-mingw32/bin/../lib/gcc/nios2-elf/4.1.2/../../../../nios2-elf/lib\libc.a(lib_a-fwalk.o)
                              c:/altera/10.1/nios2eds/bin/gnu/h-i686-mingw32/bin/../lib/gcc/nios2-elf/4.1.2/../../../../nios2-elf/lib\libc.a(lib_a-fflush.o) (_fwalk_reent)
c:/altera/10.1/nios2eds/bin/gnu/h-i686-mingw32/bin/../lib/gcc/nios2-elf/4.1.2/../../../../nios2-elf/lib\libc.a(lib_a-gettimeofdayr.o)
                              c:/altera/10.1/nios2eds/bin/gnu/h-i686-mingw32/bin/../lib/gcc/nios2-elf/4.1.2/../../../../nios2-elf/lib\libc.a(lib_a-time.o) (_gettimeofday_r)
c:/altera/10.1/nios2eds/bin/gnu/h-i686-mingw32/bin/../lib/gcc/nios2-elf/4.1.2/../../../../nios2-elf/lib\libc.a(lib_a-impure.o)
                              c:/altera/10.1/nios2eds/bin/gnu/h-i686-mingw32/bin/../lib/gcc/nios2-elf/4.1.2/../../../../nios2-elf/lib\libc.a(lib_a-printf.o) (_impure_ptr)
c:/altera/10.1/nios2eds/bin/gnu/h-i686-mingw32/bin/../lib/gcc/nios2-elf/4.1.2/../../../../nios2-elf/lib\libc.a(lib_a-int_errno.o)
                              c:/altera/10.1/nios2eds/bin/gnu/h-i686-mingw32/bin/../lib/gcc/nios2-elf/4.1.2/../../../../nios2-elf/lib\libc.a(lib_a-gettimeofdayr.o) (errno)
c:/altera/10.1/nios2eds/bin/gnu/h-i686-mingw32/bin/../lib/gcc/nios2-elf/4.1.2/../../../../nios2-elf/lib\libc.a(lib_a-locale.o)
                              c:/altera/10.1/nios2eds/bin/gnu/h-i686-mingw32/bin/../lib/gcc/nios2-elf/4.1.2/../../../../nios2-elf/lib\libc.a(lib_a-vfprintf.o) (_localeconv_r)
c:/altera/10.1/nios2eds/bin/gnu/h-i686-mingw32/bin/../lib/gcc/nios2-elf/4.1.2/../../../../nios2-elf/lib\libc.a(lib_a-makebuf.o)
                              c:/altera/10.1/nios2eds/bin/gnu/h-i686-mingw32/bin/../lib/gcc/nios2-elf/4.1.2/../../../../nios2-elf/lib\libc.a(lib_a-wsetup.o) (__smakebuf_r)
c:/altera/10.1/nios2eds/bin/gnu/h-i686-mingw32/bin/../lib/gcc/nios2-elf/4.1.2/../../../../nios2-elf/lib\libc.a(lib_a-mallocr.o)
                              c:/altera/10.1/nios2eds/bin/gnu/h-i686-mingw32/bin/../lib/gcc/nios2-elf/4.1.2/../../../../nios2-elf/lib\libc.a(lib_a-findfp.o) (_malloc_r)
c:/altera/10.1/nios2eds/bin/gnu/h-i686-mingw32/bin/../lib/gcc/nios2-elf/4.1.2/../../../../nios2-elf/lib\libc.a(lib_a-memchr.o)
                              c:/altera/10.1/nios2eds/bin/gnu/h-i686-mingw32/bin/../lib/gcc/nios2-elf/4.1.2/../../../../nios2-elf/lib\libc.a(lib_a-vfprintf.o) (memchr)
c:/altera/10.1/nios2eds/bin/gnu/h-i686-mingw32/bin/../lib/gcc/nios2-elf/4.1.2/../../../../nios2-elf/lib\libc.a(lib_a-memcpy.o)
                              c:/altera/10.1/nios2eds/bin/gnu/h-i686-mingw32/bin/../lib/gcc/nios2-elf/4.1.2/../../../../nios2-elf/lib\libc.a(lib_a-dtoa.o) (memcpy)
c:/altera/10.1/nios2eds/bin/gnu/h-i686-mingw32/bin/../lib/gcc/nios2-elf/4.1.2/../../../../nios2-elf/lib\libc.a(lib_a-memmove.o)
                              c:/altera/10.1/nios2eds/bin/gnu/h-i686-mingw32/bin/../lib/gcc/nios2-elf/4.1.2/../../../../nios2-elf/lib\libc.a(lib_a-fvwrite.o) (memmove)
c:/altera/10.1/nios2eds/bin/gnu/h-i686-mingw32/bin/../lib/gcc/nios2-elf/4.1.2/../../../../nios2-elf/lib\libc.a(lib_a-memset.o)
                              c:/altera/10.1/nios2eds/bin/gnu/h-i686-mingw32/bin/../lib/gcc/nios2-elf/4.1.2/../../../../nios2-elf/lib\libc.a(lib_a-findfp.o) (memset)
c:/altera/10.1/nios2eds/bin/gnu/h-i686-mingw32/bin/../lib/gcc/nios2-elf/4.1.2/../../../../nios2-elf/lib\libc.a(lib_a-mprec.o)
                              c:/altera/10.1/nios2eds/bin/gnu/h-i686-mingw32/bin/../lib/gcc/nios2-elf/4.1.2/../../../../nios2-elf/lib\libc.a(lib_a-dtoa.o) (_Bfree)
c:/altera/10.1/nios2eds/bin/gnu/h-i686-mingw32/bin/../lib/gcc/nios2-elf/4.1.2/../../../../nios2-elf/lib\libc.a(lib_a-reallocr.o)
                              c:/altera/10.1/nios2eds/bin/gnu/h-i686-mingw32/bin/../lib/gcc/nios2-elf/4.1.2/../../../../nios2-elf/lib\libc.a(lib_a-fvwrite.o) (_realloc_r)
c:/altera/10.1/nios2eds/bin/gnu/h-i686-mingw32/bin/../lib/gcc/nios2-elf/4.1.2/../../../../nios2-elf/lib\libc.a(lib_a-s_isinfd.o)
                              c:/altera/10.1/nios2eds/bin/gnu/h-i686-mingw32/bin/../lib/gcc/nios2-elf/4.1.2/../../../../nios2-elf/lib\libc.a(lib_a-vfprintf.o) (__isinfd)
c:/altera/10.1/nios2eds/bin/gnu/h-i686-mingw32/bin/../lib/gcc/nios2-elf/4.1.2/../../../../nios2-elf/lib\libc.a(lib_a-s_isnand.o)
                              c:/altera/10.1/nios2eds/bin/gnu/h-i686-mingw32/bin/../lib/gcc/nios2-elf/4.1.2/../../../../nios2-elf/lib\libc.a(lib_a-vfprintf.o) (__isnand)
c:/altera/10.1/nios2eds/bin/gnu/h-i686-mingw32/bin/../lib/gcc/nios2-elf/4.1.2/../../../../nios2-elf/lib\libc.a(lib_a-sbrkr.o)
                              c:/altera/10.1/nios2eds/bin/gnu/h-i686-mingw32/bin/../lib/gcc/nios2-elf/4.1.2/../../../../nios2-elf/lib\libc.a(lib_a-freer.o) (_sbrk_r)
c:/altera/10.1/nios2eds/bin/gnu/h-i686-mingw32/bin/../lib/gcc/nios2-elf/4.1.2/../../../../nios2-elf/lib\libc.a(lib_a-stdio.o)
                              c:/altera/10.1/nios2eds/bin/gnu/h-i686-mingw32/bin/../lib/gcc/nios2-elf/4.1.2/../../../../nios2-elf/lib\libc.a(lib_a-findfp.o) (__sclose)
c:/altera/10.1/nios2eds/bin/gnu/h-i686-mingw32/bin/../lib/gcc/nios2-elf/4.1.2/../../../../nios2-elf/lib\libc.a(lib_a-strcmp.o)
                              c:/altera/10.1/nios2eds/bin/gnu/h-i686-mingw32/bin/../lib/gcc/nios2-elf/4.1.2/../../../../nios2-elf/lib\libc.a(lib_a-locale.o) (strcmp)
c:/altera/10.1/nios2eds/bin/gnu/h-i686-mingw32/bin/../lib/gcc/nios2-elf/4.1.2/../../../../nios2-elf/lib\libc.a(lib_a-strlen.o)
                              c:/altera/10.1/nios2eds/bin/gnu/h-i686-mingw32/bin/../lib/gcc/nios2-elf/4.1.2/../../../../nios2-elf/lib\libc.a(lib_a-vfprintf.o) (strlen)
c:/altera/10.1/nios2eds/bin/gnu/h-i686-mingw32/bin/../lib/gcc/nios2-elf/4.1.2/../../../../nios2-elf/lib\libc.a(lib_a-writer.o)
                              c:/altera/10.1/nios2eds/bin/gnu/h-i686-mingw32/bin/../lib/gcc/nios2-elf/4.1.2/../../../../nios2-elf/lib\libc.a(lib_a-stdio.o) (_write_r)
c:/altera/10.1/nios2eds/bin/gnu/h-i686-mingw32/bin/../lib/gcc/nios2-elf/4.1.2/../../../../nios2-elf/lib\libc.a(lib_a-callocr.o)
                              c:/altera/10.1/nios2eds/bin/gnu/h-i686-mingw32/bin/../lib/gcc/nios2-elf/4.1.2/../../../../nios2-elf/lib\libc.a(lib_a-mprec.o) (_calloc_r)
c:/altera/10.1/nios2eds/bin/gnu/h-i686-mingw32/bin/../lib/gcc/nios2-elf/4.1.2/../../../../nios2-elf/lib\libc.a(lib_a-closer.o)
                              c:/altera/10.1/nios2eds/bin/gnu/h-i686-mingw32/bin/../lib/gcc/nios2-elf/4.1.2/../../../../nios2-elf/lib\libc.a(lib_a-stdio.o) (_close_r)
c:/altera/10.1/nios2eds/bin/gnu/h-i686-mingw32/bin/../lib/gcc/nios2-elf/4.1.2/../../../../nios2-elf/lib\libc.a(lib_a-fclose.o)
                              c:/altera/10.1/nios2eds/bin/gnu/h-i686-mingw32/bin/../lib/gcc/nios2-elf/4.1.2/../../../../nios2-elf/lib\libc.a(lib_a-findfp.o) (fclose)
c:/altera/10.1/nios2eds/bin/gnu/h-i686-mingw32/bin/../lib/gcc/nios2-elf/4.1.2/../../../../nios2-elf/lib\libc.a(lib_a-fstatr.o)
                              c:/altera/10.1/nios2eds/bin/gnu/h-i686-mingw32/bin/../lib/gcc/nios2-elf/4.1.2/../../../../nios2-elf/lib\libc.a(lib_a-makebuf.o) (_fstat_r)
c:/altera/10.1/nios2eds/bin/gnu/h-i686-mingw32/bin/../lib/gcc/nios2-elf/4.1.2/../../../../nios2-elf/lib\libc.a(lib_a-isattyr.o)
                              c:/altera/10.1/nios2eds/bin/gnu/h-i686-mingw32/bin/../lib/gcc/nios2-elf/4.1.2/../../../../nios2-elf/lib\libc.a(lib_a-makebuf.o) (_isatty_r)
c:/altera/10.1/nios2eds/bin/gnu/h-i686-mingw32/bin/../lib/gcc/nios2-elf/4.1.2/../../../../nios2-elf/lib\libc.a(lib_a-lseekr.o)
                              c:/altera/10.1/nios2eds/bin/gnu/h-i686-mingw32/bin/../lib/gcc/nios2-elf/4.1.2/../../../../nios2-elf/lib\libc.a(lib_a-stdio.o) (_lseek_r)
c:/altera/10.1/nios2eds/bin/gnu/h-i686-mingw32/bin/../lib/gcc/nios2-elf/4.1.2/../../../../nios2-elf/lib\libc.a(lib_a-readr.o)
                              c:/altera/10.1/nios2eds/bin/gnu/h-i686-mingw32/bin/../lib/gcc/nios2-elf/4.1.2/../../../../nios2-elf/lib\libc.a(lib_a-stdio.o) (_read_r)
c:/altera/10.1/nios2eds/bin/gnu/h-i686-mingw32/bin/../lib/gcc/nios2-elf/4.1.2\libgcc.a(_muldi3.o)
                              c:/altera/10.1/nios2eds/bin/gnu/h-i686-mingw32/bin/../lib/gcc/nios2-elf/4.1.2/../../../../nios2-elf/lib\libc.a(lib_a-rand.o) (__muldi3)
c:/altera/10.1/nios2eds/bin/gnu/h-i686-mingw32/bin/../lib/gcc/nios2-elf/4.1.2\libgcc.a(_udivdi3.o)
                              c:/altera/10.1/nios2eds/bin/gnu/h-i686-mingw32/bin/../lib/gcc/nios2-elf/4.1.2/../../../../nios2-elf/lib\libc.a(lib_a-vfprintf.o) (__udivdi3)
c:/altera/10.1/nios2eds/bin/gnu/h-i686-mingw32/bin/../lib/gcc/nios2-elf/4.1.2\libgcc.a(_umoddi3.o)
                              c:/altera/10.1/nios2eds/bin/gnu/h-i686-mingw32/bin/../lib/gcc/nios2-elf/4.1.2/../../../../nios2-elf/lib\libc.a(lib_a-vfprintf.o) (__umoddi3)
c:/altera/10.1/nios2eds/bin/gnu/h-i686-mingw32/bin/../lib/gcc/nios2-elf/4.1.2\libgcc.a(_addsub_df.o)
                              c:/altera/10.1/nios2eds/bin/gnu/h-i686-mingw32/bin/../lib/gcc/nios2-elf/4.1.2/../../../../nios2-elf/lib\libc.a(lib_a-dtoa.o) (__subdf3)
c:/altera/10.1/nios2eds/bin/gnu/h-i686-mingw32/bin/../lib/gcc/nios2-elf/4.1.2\libgcc.a(_mul_df.o)
                              c:/altera/10.1/nios2eds/bin/gnu/h-i686-mingw32/bin/../lib/gcc/nios2-elf/4.1.2/../../../../nios2-elf/lib\libc.a(lib_a-dtoa.o) (__muldf3)
c:/altera/10.1/nios2eds/bin/gnu/h-i686-mingw32/bin/../lib/gcc/nios2-elf/4.1.2\libgcc.a(_eq_df.o)
                              c:/altera/10.1/nios2eds/bin/gnu/h-i686-mingw32/bin/../lib/gcc/nios2-elf/4.1.2/../../../../nios2-elf/lib\libc.a(lib_a-vfprintf.o) (__eqdf2)
c:/altera/10.1/nios2eds/bin/gnu/h-i686-mingw32/bin/../lib/gcc/nios2-elf/4.1.2\libgcc.a(_ne_df.o)
                              c:/altera/10.1/nios2eds/bin/gnu/h-i686-mingw32/bin/../lib/gcc/nios2-elf/4.1.2/../../../../nios2-elf/lib\libc.a(lib_a-vfprintf.o) (__nedf2)
c:/altera/10.1/nios2eds/bin/gnu/h-i686-mingw32/bin/../lib/gcc/nios2-elf/4.1.2\libgcc.a(_ge_df.o)
                              c:/altera/10.1/nios2eds/bin/gnu/h-i686-mingw32/bin/../lib/gcc/nios2-elf/4.1.2/../../../../nios2-elf/lib\libc.a(lib_a-dtoa.o) (__gedf2)
c:/altera/10.1/nios2eds/bin/gnu/h-i686-mingw32/bin/../lib/gcc/nios2-elf/4.1.2\libgcc.a(_df_to_si.o)
                              c:/altera/10.1/nios2eds/bin/gnu/h-i686-mingw32/bin/../lib/gcc/nios2-elf/4.1.2/../../../../nios2-elf/lib\libc.a(lib_a-dtoa.o) (__fixdfsi)
c:/altera/10.1/nios2eds/bin/gnu/h-i686-mingw32/bin/../lib/gcc/nios2-elf/4.1.2\libgcc.a(_usi_to_df.o)
                              c:/altera/10.1/nios2eds/bin/gnu/h-i686-mingw32/bin/../lib/gcc/nios2-elf/4.1.2/../../../../nios2-elf/lib\libc.a(lib_a-dtoa.o) (__floatunsidf)
../hi_bsp\libhal_bsp.a(alt_close.o)
                              c:/altera/10.1/nios2eds/bin/gnu/h-i686-mingw32/bin/../lib/gcc/nios2-elf/4.1.2/../../../../nios2-elf/lib\libc.a(lib_a-closer.o) (close)
../hi_bsp\libhal_bsp.a(alt_dev.o)
                              ../hi_bsp\libhal_bsp.a(alt_close.o) (alt_fd_list)
../hi_bsp\libhal_bsp.a(alt_errno.o)
                              ../hi_bsp\libhal_bsp.a(alt_close.o) (alt_errno)
../hi_bsp\libhal_bsp.a(alt_fstat.o)
                              c:/altera/10.1/nios2eds/bin/gnu/h-i686-mingw32/bin/../lib/gcc/nios2-elf/4.1.2/../../../../nios2-elf/lib\libc.a(lib_a-fstatr.o) (fstat)
../hi_bsp\libhal_bsp.a(alt_gettod.o)
                              c:/altera/10.1/nios2eds/bin/gnu/h-i686-mingw32/bin/../lib/gcc/nios2-elf/4.1.2/../../../../nios2-elf/lib\libc.a(lib_a-gettimeofdayr.o) (gettimeofday)
../hi_bsp\libhal_bsp.a(alt_isatty.o)
                              c:/altera/10.1/nios2eds/bin/gnu/h-i686-mingw32/bin/../lib/gcc/nios2-elf/4.1.2/../../../../nios2-elf/lib\libc.a(lib_a-isattyr.o) (isatty)
../hi_bsp\libhal_bsp.a(alt_lseek.o)
                              c:/altera/10.1/nios2eds/bin/gnu/h-i686-mingw32/bin/../lib/gcc/nios2-elf/4.1.2/../../../../nios2-elf/lib\libc.a(lib_a-lseekr.o) (lseek)
../hi_bsp\libhal_bsp.a(alt_main.o)
                              ../hi_bsp/obj/HAL/src/crt0.o (alt_main)
../hi_bsp\libhal_bsp.a(alt_malloc_lock.o)
                              c:/altera/10.1/nios2eds/bin/gnu/h-i686-mingw32/bin/../lib/gcc/nios2-elf/4.1.2/../../../../nios2-elf/lib\libc.a(lib_a-freer.o) (__malloc_lock)
../hi_bsp\libhal_bsp.a(alt_printf.o)
                              obj/hello_world.o (alt_printf)
../hi_bsp\libhal_bsp.a(alt_putchar.o)
                              ../hi_bsp\libhal_bsp.a(alt_printf.o) (alt_putchar)
../hi_bsp\libhal_bsp.a(alt_read.o)
                              c:/altera/10.1/nios2eds/bin/gnu/h-i686-mingw32/bin/../lib/gcc/nios2-elf/4.1.2/../../../../nios2-elf/lib\libc.a(lib_a-readr.o) (read)
../hi_bsp\libhal_bsp.a(alt_release_fd.o)
                              ../hi_bsp\libhal_bsp.a(alt_close.o) (alt_release_fd)
../hi_bsp\libhal_bsp.a(alt_sbrk.o)
                              c:/altera/10.1/nios2eds/bin/gnu/h-i686-mingw32/bin/../lib/gcc/nios2-elf/4.1.2/../../../../nios2-elf/lib\libc.a(lib_a-sbrkr.o) (sbrk)
../hi_bsp\libhal_bsp.a(alt_tick.o)
                              ../hi_bsp\libhal_bsp.a(alt_gettod.o) (_alt_tick_rate)
../hi_bsp\libhal_bsp.a(alt_usleep.o)
                              obj/hello_world.o (usleep)
../hi_bsp\libhal_bsp.a(alt_write.o)
                              c:/altera/10.1/nios2eds/bin/gnu/h-i686-mingw32/bin/../lib/gcc/nios2-elf/4.1.2/../../../../nios2-elf/lib\libc.a(lib_a-writer.o) (write)
../hi_bsp\libhal_bsp.a(alt_sys_init.o)
                              ../hi_bsp\libhal_bsp.a(alt_main.o) (alt_irq_init)
../hi_bsp\libhal_bsp.a(altera_avalon_cfi_flash.o)
                              ../hi_bsp\libhal_bsp.a(alt_sys_init.o) (alt_flash_cfi_init)
../hi_bsp\libhal_bsp.a(altera_avalon_cfi_flash_table.o)
                              ../hi_bsp\libhal_bsp.a(altera_avalon_cfi_flash.o) (alt_set_flash_width_func)
../hi_bsp\libhal_bsp.a(altera_avalon_jtag_uart_fd.o)
                              ../hi_bsp\libhal_bsp.a(alt_sys_init.o) (altera_avalon_jtag_uart_read_fd)
../hi_bsp\libhal_bsp.a(altera_avalon_jtag_uart_init.o)
                              ../hi_bsp\libhal_bsp.a(alt_sys_init.o) (altera_avalon_jtag_uart_init)
../hi_bsp\libhal_bsp.a(altera_avalon_jtag_uart_ioctl.o)
                              ../hi_bsp\libhal_bsp.a(altera_avalon_jtag_uart_fd.o) (altera_avalon_jtag_uart_ioctl)
../hi_bsp\libhal_bsp.a(altera_avalon_jtag_uart_read.o)
                              ../hi_bsp\libhal_bsp.a(altera_avalon_jtag_uart_fd.o) (altera_avalon_jtag_uart_read)
../hi_bsp\libhal_bsp.a(altera_avalon_jtag_uart_write.o)
                              ../hi_bsp\libhal_bsp.a(altera_avalon_jtag_uart_fd.o) (altera_avalon_jtag_uart_write)
../hi_bsp\libhal_bsp.a(altera_avalon_spi.o)
                              obj/hello_world.o (alt_avalon_spi_command)
../hi_bsp\libhal_bsp.a(altera_avalon_timer_sc.o)
                              ../hi_bsp\libhal_bsp.a(alt_sys_init.o) (alt_avalon_timer_sc_init)
../hi_bsp\libhal_bsp.a(altera_avalon_uart_fd.o)
                              ../hi_bsp\libhal_bsp.a(alt_sys_init.o) (altera_avalon_uart_read_fd)
../hi_bsp\libhal_bsp.a(altera_avalon_uart_init.o)
                              ../hi_bsp\libhal_bsp.a(alt_sys_init.o) (altera_avalon_uart_init)
../hi_bsp\libhal_bsp.a(altera_avalon_uart_read.o)
                              ../hi_bsp\libhal_bsp.a(altera_avalon_uart_fd.o) (altera_avalon_uart_read)
../hi_bsp\libhal_bsp.a(altera_avalon_uart_write.o)
                              ../hi_bsp\libhal_bsp.a(altera_avalon_uart_fd.o) (altera_avalon_uart_write)
../hi_bsp\libhal_bsp.a(altera_up_avalon_ps2.o)
                              ../hi_bsp\libhal_bsp.a(alt_sys_init.o) (alt_up_ps2_init)
../hi_bsp\libhal_bsp.a(altera_up_avalon_video_character_buffer_with_dma.o)
                              obj/hello_world.o (alt_up_char_buffer_init)
../hi_bsp\libhal_bsp.a(altera_up_ps2_keyboard.o)
                              obj/hello_world.o (decode_scancode)
../hi_bsp\libhal_bsp.a(alt_alarm_start.o)
                              ../hi_bsp\libhal_bsp.a(altera_avalon_jtag_uart_init.o) (alt_alarm_start)
../hi_bsp\libhal_bsp.a(alt_busy_sleep.o)
                              ../hi_bsp\libhal_bsp.a(alt_usleep.o) (alt_busy_sleep)
../hi_bsp\libhal_bsp.a(alt_dcache_flush.o)
                              ../hi_bsp\libhal_bsp.a(altera_avalon_cfi_flash.o) (alt_dcache_flush)
../hi_bsp\libhal_bsp.a(alt_dev_llist_insert.o)
                              ../hi_bsp\libhal_bsp.a(alt_sys_init.o) (alt_dev_llist_insert)
../hi_bsp\libhal_bsp.a(alt_do_ctors.o)
                              ../hi_bsp\libhal_bsp.a(alt_main.o) (_do_ctors)
../hi_bsp\libhal_bsp.a(alt_do_dtors.o)
                              ../hi_bsp\libhal_bsp.a(alt_main.o) (_do_dtors)
../hi_bsp\libhal_bsp.a(alt_find_dev.o)
                              ../hi_bsp\libhal_bsp.a(altera_up_avalon_ps2.o) (alt_find_dev)
../hi_bsp\libhal_bsp.a(alt_flash_dev.o)
                              ../hi_bsp\libhal_bsp.a(altera_avalon_cfi_flash.o) (alt_flash_dev_list)
../hi_bsp\libhal_bsp.a(alt_io_redirect.o)
                              ../hi_bsp\libhal_bsp.a(alt_main.o) (alt_io_redirect)
../hi_bsp\libhal_bsp.a(alt_irq_register.o)
                              ../hi_bsp\libhal_bsp.a(altera_avalon_jtag_uart_init.o) (alt_irq_register)
../hi_bsp\libhal_bsp.a(alt_irq_vars.o)
                              ../hi_bsp\libhal_bsp.a(alt_irq_register.o) (alt_irq_active)
../hi_bsp\libhal_bsp.a(alt_open.o)
                              ../hi_bsp\libhal_bsp.a(alt_io_redirect.o) (open)
../hi_bsp\libhal_bsp.a(altera_nios2_irq.o)
                              ../hi_bsp\libhal_bsp.a(alt_sys_init.o) (altera_nios2_irq_init)
../hi_bsp\libhal_bsp.a(altera_avalon_cfi_flash_amd.o)
                              ../hi_bsp\libhal_bsp.a(altera_avalon_cfi_flash_table.o) (alt_program_amd)
../hi_bsp\libhal_bsp.a(altera_avalon_cfi_flash_intel.o)
                              ../hi_bsp\libhal_bsp.a(altera_avalon_cfi_flash_table.o) (alt_program_intel)
../hi_bsp\libhal_bsp.a(alt_find_file.o)
                              ../hi_bsp\libhal_bsp.a(alt_open.o) (alt_find_file)
../hi_bsp\libhal_bsp.a(alt_get_fd.o)
                              ../hi_bsp\libhal_bsp.a(alt_open.o) (alt_get_fd)
../hi_bsp\libhal_bsp.a(alt_irq_entry.o)
                              ../hi_bsp\libhal_bsp.a(alt_irq_register.o) (alt_irq_entry)
../hi_bsp\libhal_bsp.a(alt_irq_handler.o)
                              ../hi_bsp\libhal_bsp.a(alt_irq_register.o) (alt_irq_handler)
../hi_bsp\libhal_bsp.a(alt_exception_entry.o)
                              ../hi_bsp\libhal_bsp.a(alt_irq_entry.o) (alt_exception)
c:/altera/10.1/nios2eds/bin/gnu/h-i686-mingw32/bin/../lib/gcc/nios2-elf/4.1.2/../../../../nios2-elf/lib\libc.a(lib_a-atexit.o)
                              ../hi_bsp\libhal_bsp.a(alt_main.o) (atexit)
c:/altera/10.1/nios2eds/bin/gnu/h-i686-mingw32/bin/../lib/gcc/nios2-elf/4.1.2/../../../../nios2-elf/lib\libc.a(lib_a-exit.o)
                              ../hi_bsp\libhal_bsp.a(alt_main.o) (exit)
c:/altera/10.1/nios2eds/bin/gnu/h-i686-mingw32/bin/../lib/gcc/nios2-elf/4.1.2/../../../../nios2-elf/lib\libc.a(lib_a-memcmp.o)
                              ../hi_bsp\libhal_bsp.a(altera_avalon_cfi_flash.o) (memcmp)
c:/altera/10.1/nios2eds/bin/gnu/h-i686-mingw32/bin/../lib/gcc/nios2-elf/4.1.2/../../../../nios2-elf/lib\libc.a(lib_a-putc.o)
                              ../hi_bsp\libhal_bsp.a(alt_putchar.o) (putc)
c:/altera/10.1/nios2eds/bin/gnu/h-i686-mingw32/bin/../lib/gcc/nios2-elf/4.1.2/../../../../nios2-elf/lib\libc.a(lib_a-strcpy.o)
                              ../hi_bsp\libhal_bsp.a(altera_up_ps2_keyboard.o) (strcpy)
c:/altera/10.1/nios2eds/bin/gnu/h-i686-mingw32/bin/../lib/gcc/nios2-elf/4.1.2/../../../../nios2-elf/lib\libc.a(lib_a-wbuf.o)
                              c:/altera/10.1/nios2eds/bin/gnu/h-i686-mingw32/bin/../lib/gcc/nios2-elf/4.1.2/../../../../nios2-elf/lib\libc.a(lib_a-putc.o) (__swbuf_r)
c:/altera/10.1/nios2eds/bin/gnu/h-i686-mingw32/bin/../lib/gcc/nios2-elf/4.1.2/../../../../nios2-elf/lib\libc.a(lib_a-__atexit.o)
                              c:/altera/10.1/nios2eds/bin/gnu/h-i686-mingw32/bin/../lib/gcc/nios2-elf/4.1.2/../../../../nios2-elf/lib\libc.a(lib_a-atexit.o) (__register_exitproc)
c:/altera/10.1/nios2eds/bin/gnu/h-i686-mingw32/bin/../lib/gcc/nios2-elf/4.1.2/../../../../nios2-elf/lib\libc.a(lib_a-__call_atexit.o)
                              c:/altera/10.1/nios2eds/bin/gnu/h-i686-mingw32/bin/../lib/gcc/nios2-elf/4.1.2/../../../../nios2-elf/lib\libc.a(lib_a-exit.o) (__call_exitprocs)
../hi_bsp\libhal_bsp.a(alt_exit.o)
                              c:/altera/10.1/nios2eds/bin/gnu/h-i686-mingw32/bin/../lib/gcc/nios2-elf/4.1.2/../../../../nios2-elf/lib\libc.a(lib_a-exit.o) (_exit)

Allocating common symbols
Common symbol       size              file

alt_irq             0x100             ../hi_bsp\libhal_bsp.a(alt_irq_handler.o)
snake               0x12c0            obj/hello_world.o
map                 0x478             obj/hello_world.o
errno               0x4               c:/altera/10.1/nios2eds/bin/gnu/h-i686-mingw32/bin/../lib/gcc/nios2-elf/4.1.2/../../../../nios2-elf/lib\libc.a(lib_a-int_errno.o)
head                0x4               obj/hello_world.o
_atexit0            0x190             c:/altera/10.1/nios2eds/bin/gnu/h-i686-mingw32/bin/../lib/gcc/nios2-elf/4.1.2/../../../../nios2-elf/lib\libc.a(lib_a-atexit.o)

Memory Configuration

Name             Origin             Length             Attributes
sdram_BEFORE_EXCEPTION 0x00800000         0x00000020
sdram            0x00800020         0x007fffe0
reset            0x01400000         0x00000020
cfi_flash        0x01400020         0x003fffe0
onchip_memory    0x01800000         0x00002000
*default*        0x00000000         0xffffffff

Linker script and memory map

LOAD ../hi_bsp/obj/HAL/src/crt0.o
LOAD obj/hello_world.o
LOAD c:/altera/10.1/nios2eds/bin/gnu/h-i686-mingw32/bin/../lib/gcc/nios2-elf/4.1.2/../../../../nios2-elf/lib\libstdc++.a
LOAD c:/altera/10.1/nios2eds/bin/gnu/h-i686-mingw32/bin/../lib/gcc/nios2-elf/4.1.2/../../../../nios2-elf/lib\libm.a
LOAD c:/altera/10.1/nios2eds/bin/gnu/h-i686-mingw32/bin/../lib/gcc/nios2-elf/4.1.2\libgcc.a
START GROUP
LOAD c:/altera/10.1/nios2eds/bin/gnu/h-i686-mingw32/bin/../lib/gcc/nios2-elf/4.1.2/../../../../nios2-elf/lib\libc.a
LOAD c:/altera/10.1/nios2eds/bin/gnu/h-i686-mingw32/bin/../lib/gcc/nios2-elf/4.1.2\libgcc.a
LOAD ../hi_bsp\libhal_bsp.a
END GROUP
LOAD c:/altera/10.1/nios2eds/bin/gnu/h-i686-mingw32/bin/../lib/gcc/nios2-elf/4.1.2\libgcc.a
                0x00800000                __alt_mem_sdram = 0x800000
                0x01400000                __alt_mem_cfi_flash = 0x1400000
                0x01800000                __alt_mem_onchip_memory = 0x1800000

.entry          0x01400000        0x0
 *(.entry)
 .entry         0x01400000        0x0 ../hi_bsp/obj/HAL/src/crt0.o
                0x01400000                __reset

.exceptions     0x00800020      0x198
                0x00800020                PROVIDE (__ram_exceptions_start, ABSOLUTE (.))
                0x00800020                . = ALIGN (0x20)
 *(.irq)
 *(.exceptions.entry.label)
 .exceptions.entry.label
                0x00800020        0x0 ../hi_bsp\libhal_bsp.a(alt_irq_entry.o)
                0x00800020                alt_irq_entry
 .exceptions.entry.label
                0x00800020        0x0 ../hi_bsp\libhal_bsp.a(alt_exception_entry.o)
                0x00800020                alt_exception
 *(.exceptions.entry.user)
 *(.exceptions.entry)
 .exceptions.entry
                0x00800020       0x54 ../hi_bsp\libhal_bsp.a(alt_exception_entry.o)
 *(.exceptions.irqtest.user)
 *(.exceptions.irqtest)
 .exceptions.irqtest
                0x00800074       0x10 ../hi_bsp\libhal_bsp.a(alt_irq_entry.o)
 *(.exceptions.irqhandler.user)
 *(.exceptions.irqhandler)
 .exceptions.irqhandler
                0x00800084        0x4 ../hi_bsp\libhal_bsp.a(alt_irq_entry.o)
 *(.exceptions.irqreturn.user)
 *(.exceptions.irqreturn)
 .exceptions.irqreturn
                0x00800088        0x4 ../hi_bsp\libhal_bsp.a(alt_irq_entry.o)
 *(.exceptions.notirq.label)
 .exceptions.notirq.label
                0x0080008c        0x0 ../hi_bsp\libhal_bsp.a(alt_irq_entry.o)
 *(.exceptions.notirq.user)
 *(.exceptions.notirq)
 .exceptions.notirq
                0x0080008c        0x8 ../hi_bsp\libhal_bsp.a(alt_exception_entry.o)
 *(.exceptions.soft.user)
 *(.exceptions.soft)
 *(.exceptions.unknown.user)
 *(.exceptions.unknown)
 .exceptions.unknown
                0x00800094        0x4 ../hi_bsp\libhal_bsp.a(alt_exception_entry.o)
 *(.exceptions.exit.label)
 .exceptions.exit.label
                0x00800098        0x0 ../hi_bsp\libhal_bsp.a(alt_irq_entry.o)
 .exceptions.exit.label
                0x00800098        0x0 ../hi_bsp\libhal_bsp.a(alt_exception_entry.o)
 *(.exceptions.exit.user)
 *(.exceptions.exit)
 .exceptions.exit
                0x00800098       0x54 ../hi_bsp\libhal_bsp.a(alt_exception_entry.o)
 *(.exceptions)
 .exceptions    0x008000ec       0xcc ../hi_bsp\libhal_bsp.a(alt_irq_handler.o)
                0x008000ec                alt_irq_handler
                0x008001b8                PROVIDE (__ram_exceptions_end, ABSOLUTE (.))
                0x00800020                PROVIDE (__flash_exceptions_start, LOADADDR (.exceptions))

.text           0x008001b8    0x12710
                0x008001b8                PROVIDE (stext, ABSOLUTE (.))
 *(.interp)
 *(.hash)
 *(.dynsym)
 *(.dynstr)
 *(.gnu.version)
 *(.gnu.version_d)
 *(.gnu.version_r)
 *(.rel.init)
 *(.rela.init)
 *(.rel.text .rel.text.* .rel.gnu.linkonce.t.*)
 *(.rela.text .rela.text.* .rela.gnu.linkonce.t.*)
 *(.rel.fini)
 *(.rela.fini)
 *(.rel.rodata .rel.rodata.* .rel.gnu.linkonce.r.*)
 *(.rela.rodata .rela.rodata.* .rela.gnu.linkonce.r.*)
 *(.rel.data .rel.data.* .rel.gnu.linkonce.d.*)
 *(.rela.data .rela.data.* .rela.gnu.linkonce.d.*)
 *(.rel.tdata .rel.tdata.* .rel.gnu.linkonce.td.*)
 *(.rela.tdata .rela.tdata.* .rela.gnu.linkonce.td.*)
 *(.rel.tbss .rel.tbss.* .rel.gnu.linkonce.tb.*)
 *(.rela.tbss .rela.tbss.* .rela.gnu.linkonce.tb.*)
 *(.rel.ctors)
 *(.rela.ctors)
 *(.rel.dtors)
 *(.rela.dtors)
 *(.rel.got)
 *(.rela.got)
 *(.rel.sdata .rel.sdata.* .rel.gnu.linkonce.s.*)
 *(.rela.sdata .rela.sdata.* .rela.gnu.linkonce.s.*)
 *(.rel.sbss .rel.sbss.* .rel.gnu.linkonce.sb.*)
 *(.rela.sbss .rela.sbss.* .rela.gnu.linkonce.sb.*)
 *(.rel.sdata2 .rel.sdata2.* .rel.gnu.linkonce.s2.*)
 *(.rela.sdata2 .rela.sdata2.* .rela.gnu.linkonce.s2.*)
 *(.rel.sbss2 .rel.sbss2.* .rel.gnu.linkonce.sb2.*)
 *(.rela.sbss2 .rela.sbss2.* .rela.gnu.linkonce.sb2.*)
 *(.rel.bss .rel.bss.* .rel.gnu.linkonce.b.*)
 *(.rela.bss .rela.bss.* .rela.gnu.linkonce.b.*)
 *(.rel.plt)
 *(.rela.plt)
 *(.rel.dyn)
 *(.init)
 *(.plt)
 *(.text .stub .text.* .gnu.linkonce.t.*)
 .text          0x008001b8       0x48 ../hi_bsp/obj/HAL/src/crt0.o
                0x008001b8                _start
 .text          0x00800200     0x1224 obj/hello_world.o
                0x00800200                main
                0x00800744                init
                0x008008b0                showView
                0x008009b8                move
                0x00800c9c                makeFood
                0x00800d68                makeMap
                0x00800f64                ifEat
                0x00800ff0                ifReprat
                0x008010b0                ifBump
                0x00801220                get_x
                0x0080125c                get_y
                0x008012a8                add2charbuffer
                0x00801370                del2charbuffer
                0x008013d0                next_line
 .text          0x00801424       0x78 c:/altera/10.1/nios2eds/bin/gnu/h-i686-mingw32/bin/../lib/gcc/nios2-elf/4.1.2\libgcc.a(_gt_sf.o)
                0x00801424                __gtsf2
 .text          0x0080149c       0x78 c:/altera/10.1/nios2eds/bin/gnu/h-i686-mingw32/bin/../lib/gcc/nios2-elf/4.1.2\libgcc.a(_lt_sf.o)
                0x0080149c                __ltsf2
 .text          0x00801514       0x54 c:/altera/10.1/nios2eds/bin/gnu/h-i686-mingw32/bin/../lib/gcc/nios2-elf/4.1.2\libgcc.a(_sf_to_df.o)
                0x00801514                __extendsfdf2
 .text          0x00801568      0x258 c:/altera/10.1/nios2eds/bin/gnu/h-i686-mingw32/bin/../lib/gcc/nios2-elf/4.1.2\libgcc.a(_div_df.o)
                0x00801568                __divdf3
 .text          0x008017c0       0x88 c:/altera/10.1/nios2eds/bin/gnu/h-i686-mingw32/bin/../lib/gcc/nios2-elf/4.1.2\libgcc.a(_gt_df.o)
                0x008017c0                __gtdf2
 .text          0x00801848       0x88 c:/altera/10.1/nios2eds/bin/gnu/h-i686-mingw32/bin/../lib/gcc/nios2-elf/4.1.2\libgcc.a(_lt_df.o)
                0x00801848                __ltdf2
 .text          0x008018d0       0xf8 c:/altera/10.1/nios2eds/bin/gnu/h-i686-mingw32/bin/../lib/gcc/nios2-elf/4.1.2\libgcc.a(_si_to_df.o)
                0x008018d0                __floatsidf
 .text          0x008019c8       0x38 c:/altera/10.1/nios2eds/bin/gnu/h-i686-mingw32/bin/../lib/gcc/nios2-elf/4.1.2\libgcc.a(_make_df.o)
                0x008019c8                __make_dp
 .text          0x00801a00       0x74 c:/altera/10.1/nios2eds/bin/gnu/h-i686-mingw32/bin/../lib/gcc/nios2-elf/4.1.2\libgcc.a(_df_to_sf.o)
                0x00801a00                __truncdfsf2
 .text          0x00801a74        0x0 c:/altera/10.1/nios2eds/bin/gnu/h-i686-mingw32/bin/../lib/gcc/nios2-elf/4.1.2\libgcc.a(_thenan_df.o)
 .text          0x00801a74      0x14c c:/altera/10.1/nios2eds/bin/gnu/h-i686-mingw32/bin/../lib/gcc/nios2-elf/4.1.2\libgcc.a(lib2-divmod.o)
                0x00801af0                __divsi3
                0x00801b50                __modsi3
                0x00801bb0                __udivsi3
                0x00801bb8                __umodsi3
 .text          0x00801bc0       0x80 c:/altera/10.1/nios2eds/bin/gnu/h-i686-mingw32/bin/../lib/gcc/nios2-elf/4.1.2\libgcc.a(_clzsi2.o)
                0x00801bc0                __clzsi2
 .text          0x00801c40       0xc8 c:/altera/10.1/nios2eds/bin/gnu/h-i686-mingw32/bin/../lib/gcc/nios2-elf/4.1.2\libgcc.a(_unpack_sf.o)
                0x00801c40                __unpack_f
 .text          0x00801d08       0xa8 c:/altera/10.1/nios2eds/bin/gnu/h-i686-mingw32/bin/../lib/gcc/nios2-elf/4.1.2\libgcc.a(_fpcmp_parts_sf.o)
                0x00801d08                __fpcmp_parts_f
 .text          0x00801db0       0x2c c:/altera/10.1/nios2eds/bin/gnu/h-i686-mingw32/bin/../lib/gcc/nios2-elf/4.1.2\libgcc.a(_make_sf.o)
                0x00801db0                __make_fp
 .text          0x00801ddc      0x314 c:/altera/10.1/nios2eds/bin/gnu/h-i686-mingw32/bin/../lib/gcc/nios2-elf/4.1.2\libgcc.a(_pack_df.o)
                0x00801ddc                __pack_d
 .text          0x008020f0      0x138 c:/altera/10.1/nios2eds/bin/gnu/h-i686-mingw32/bin/../lib/gcc/nios2-elf/4.1.2\libgcc.a(_unpack_df.o)
                0x008020f0                __unpack_d
 .text          0x00802228       0xc8 c:/altera/10.1/nios2eds/bin/gnu/h-i686-mingw32/bin/../lib/gcc/nios2-elf/4.1.2\libgcc.a(_fpcmp_parts_df.o)
                0x00802228                __fpcmp_parts_d
 .text          0x008022f0        0x0 c:/altera/10.1/nios2eds/bin/gnu/h-i686-mingw32/bin/../lib/gcc/nios2-elf/4.1.2\libgcc.a(_clz.o)
 .text          0x008022f0      0x160 c:/altera/10.1/nios2eds/bin/gnu/h-i686-mingw32/bin/../lib/gcc/nios2-elf/4.1.2\libgcc.a(_pack_sf.o)
                0x008022f0                __pack_f
 .text          0x00802450       0x78 c:/altera/10.1/nios2eds/bin/gnu/h-i686-mingw32/bin/../lib/gcc/nios2-elf/4.1.2/../../../../nios2-elf/lib\libc.a(lib_a-printf.o)
                0x00802450                printf
                0x00802494                _printf_r
 .text          0x008024c8       0x94 c:/altera/10.1/nios2eds/bin/gnu/h-i686-mingw32/bin/../lib/gcc/nios2-elf/4.1.2/../../../../nios2-elf/lib\libc.a(lib_a-rand.o)
                0x008024c8                srand
                0x008024e4                rand
 .text          0x0080255c       0x5c c:/altera/10.1/nios2eds/bin/gnu/h-i686-mingw32/bin/../lib/gcc/nios2-elf/4.1.2/../../../../nios2-elf/lib\libc.a(lib_a-time.o)
                0x0080255c                time
 .text          0x008025b8     0x1f28 c:/altera/10.1/nios2eds/bin/gnu/h-i686-mingw32/bin/../lib/gcc/nios2-elf/4.1.2/../../../../nios2-elf/lib\libc.a(lib_a-vfprintf.o)
                0x00802610                ___vfprintf_internal_r
                0x008044bc                __vfprintf_internal
 .text          0x008044e0      0x13c c:/altera/10.1/nios2eds/bin/gnu/h-i686-mingw32/bin/../lib/gcc/nios2-elf/4.1.2/../../../../nios2-elf/lib\libc.a(lib_a-wsetup.o)
                0x008044e0                __swsetup_r
 .text          0x0080461c     0x17cc c:/altera/10.1/nios2eds/bin/gnu/h-i686-mingw32/bin/../lib/gcc/nios2-elf/4.1.2/../../../../nios2-elf/lib\libc.a(lib_a-dtoa.o)
                0x00804834                _dtoa_r
 .text          0x00805de8      0x230 c:/altera/10.1/nios2eds/bin/gnu/h-i686-mingw32/bin/../lib/gcc/nios2-elf/4.1.2/../../../../nios2-elf/lib\libc.a(lib_a-fflush.o)
                0x00805de8                _fflush_r
                0x00805fe4                fflush
 .text          0x00806018      0x2c0 c:/altera/10.1/nios2eds/bin/gnu/h-i686-mingw32/bin/../lib/gcc/nios2-elf/4.1.2/../../../../nios2-elf/lib\libc.a(lib_a-findfp.o)
                0x00806070                __sfp_lock_acquire
                0x00806074                __sfp_lock_release
                0x00806078                __sinit_lock_acquire
                0x0080607c                __sinit_lock_release
                0x00806080                __sinit
                0x00806134                __fp_unlock_all
                0x0080614c                __fp_lock_all
                0x00806164                _cleanup_r
                0x00806170                _cleanup
                0x00806180                __sfmoreglue
                0x008061e8                __sfp
 .text          0x008062d8      0x440 c:/altera/10.1/nios2eds/bin/gnu/h-i686-mingw32/bin/../lib/gcc/nios2-elf/4.1.2/../../../../nios2-elf/lib\libc.a(lib_a-freer.o)
                0x008062d8                _malloc_trim_r
                0x00806404                _free_r
 .text          0x00806718      0x49c c:/altera/10.1/nios2eds/bin/gnu/h-i686-mingw32/bin/../lib/gcc/nios2-elf/4.1.2/../../../../nios2-elf/lib\libc.a(lib_a-fvwrite.o)
                0x00806718                __sfvwrite_r
 .text          0x00806bb4      0x180 c:/altera/10.1/nios2eds/bin/gnu/h-i686-mingw32/bin/../lib/gcc/nios2-elf/4.1.2/../../../../nios2-elf/lib\libc.a(lib_a-fwalk.o)
                0x00806bb4                _fwalk_reent
                0x00806c7c                _fwalk
 .text          0x00806d34       0x74 c:/altera/10.1/nios2eds/bin/gnu/h-i686-mingw32/bin/../lib/gcc/nios2-elf/4.1.2/../../../../nios2-elf/lib\libc.a(lib_a-gettimeofdayr.o)
                0x00806d34                _gettimeofday_r
 .text          0x00806da8        0x0 c:/altera/10.1/nios2eds/bin/gnu/h-i686-mingw32/bin/../lib/gcc/nios2-elf/4.1.2/../../../../nios2-elf/lib\libc.a(lib_a-impure.o)
 .text          0x00806da8        0x0 c:/altera/10.1/nios2eds/bin/gnu/h-i686-mingw32/bin/../lib/gcc/nios2-elf/4.1.2/../../../../nios2-elf/lib\libc.a(lib_a-int_errno.o)
 .text          0x00806da8       0xc4 c:/altera/10.1/nios2eds/bin/gnu/h-i686-mingw32/bin/../lib/gcc/nios2-elf/4.1.2/../../../../nios2-elf/lib\libc.a(lib_a-locale.o)
                0x00806da8                __locale_charset
                0x00806db0                _localeconv_r
                0x00806dbc                localeconv
                0x00806dcc                _setlocale_r
                0x00806e50                setlocale
 .text          0x00806e6c      0x194 c:/altera/10.1/nios2eds/bin/gnu/h-i686-mingw32/bin/../lib/gcc/nios2-elf/4.1.2/../../../../nios2-elf/lib\libc.a(lib_a-makebuf.o)
                0x00806e6c                __smakebuf_r
 .text          0x00807000      0x740 c:/altera/10.1/nios2eds/bin/gnu/h-i686-mingw32/bin/../lib/gcc/nios2-elf/4.1.2/../../../../nios2-elf/lib\libc.a(lib_a-mallocr.o)
                0x00807000                _malloc_r
 .text          0x00807740       0xe4 c:/altera/10.1/nios2eds/bin/gnu/h-i686-mingw32/bin/../lib/gcc/nios2-elf/4.1.2/../../../../nios2-elf/lib\libc.a(lib_a-memchr.o)
                0x00807740                memchr
 .text          0x00807824       0xa0 c:/altera/10.1/nios2eds/bin/gnu/h-i686-mingw32/bin/../lib/gcc/nios2-elf/4.1.2/../../../../nios2-elf/lib\libc.a(lib_a-memcpy.o)
                0x00807824                memcpy
 .text          0x008078c4       0xe0 c:/altera/10.1/nios2eds/bin/gnu/h-i686-mingw32/bin/../lib/gcc/nios2-elf/4.1.2/../../../../nios2-elf/lib\libc.a(lib_a-memmove.o)
                0x008078c4                memmove
 .text          0x008079a4       0x98 c:/altera/10.1/nios2eds/bin/gnu/h-i686-mingw32/bin/../lib/gcc/nios2-elf/4.1.2/../../../../nios2-elf/lib\libc.a(lib_a-memset.o)
                0x008079a4                memset
 .text          0x00807a3c      0xff4 c:/altera/10.1/nios2eds/bin/gnu/h-i686-mingw32/bin/../lib/gcc/nios2-elf/4.1.2/../../../../nios2-elf/lib\libc.a(lib_a-mprec.o)
                0x00807a3c                _Bfree
                0x00807a64                __hi0bits
                0x00807ad4                __lo0bits
                0x00807b98                __mcmp
                0x00807bf8                __ulp
                0x00807c78                __b2d
                0x00807d98                __ratio
                0x00807e48                _mprec_log10
                0x00807edc                __copybits
                0x00807f34                __any_on
                0x00807fbc                _Balloc
                0x00808078                __d2b
                0x008081f4                __mdiff
                0x00808380                __lshift
                0x008084cc                __multiply
                0x008086b4                __i2b
                0x008086f0                __multadd
                0x008087f0                __pow5mult
                0x00808910                __s2b
 .text          0x00808a30      0x5f4 c:/altera/10.1/nios2eds/bin/gnu/h-i686-mingw32/bin/../lib/gcc/nios2-elf/4.1.2/../../../../nios2-elf/lib\libc.a(lib_a-reallocr.o)
                0x00808a30                _realloc_r
 .text          0x00809024       0x40 c:/altera/10.1/nios2eds/bin/gnu/h-i686-mingw32/bin/../lib/gcc/nios2-elf/4.1.2/../../../../nios2-elf/lib\libc.a(lib_a-s_isinfd.o)
                0x00809024                __isinfd
 .text          0x00809064       0x30 c:/altera/10.1/nios2eds/bin/gnu/h-i686-mingw32/bin/../lib/gcc/nios2-elf/4.1.2/../../../../nios2-elf/lib\libc.a(lib_a-s_isnand.o)
                0x00809064                __isnand
 .text          0x00809094       0x70 c:/altera/10.1/nios2eds/bin/gnu/h-i686-mingw32/bin/../lib/gcc/nios2-elf/4.1.2/../../../../nios2-elf/lib\libc.a(lib_a-sbrkr.o)
                0x00809094                _sbrk_r
 .text          0x00809104      0x14c c:/altera/10.1/nios2eds/bin/gnu/h-i686-mingw32/bin/../lib/gcc/nios2-elf/4.1.2/../../../../nios2-elf/lib\libc.a(lib_a-stdio.o)
                0x00809104                __sclose
                0x0080910c                __sseek
                0x00809174                __swrite
                0x008091f0                __sread
 .text          0x00809250       0xbc c:/altera/10.1/nios2eds/bin/gnu/h-i686-mingw32/bin/../lib/gcc/nios2-elf/4.1.2/../../../../nios2-elf/lib\libc.a(lib_a-strcmp.o)
                0x00809250                strcmp
 .text          0x0080930c       0x74 c:/altera/10.1/nios2eds/bin/gnu/h-i686-mingw32/bin/../lib/gcc/nios2-elf/4.1.2/../../../../nios2-elf/lib\libc.a(lib_a-strlen.o)
                0x0080930c                strlen
 .text          0x00809380       0x78 c:/altera/10.1/nios2eds/bin/gnu/h-i686-mingw32/bin/../lib/gcc/nios2-elf/4.1.2/../../../../nios2-elf/lib\libc.a(lib_a-writer.o)
                0x00809380                _write_r
 .text          0x008093f8       0xb4 c:/altera/10.1/nios2eds/bin/gnu/h-i686-mingw32/bin/../lib/gcc/nios2-elf/4.1.2/../../../../nios2-elf/lib\libc.a(lib_a-callocr.o)
                0x008093f8                _calloc_r
 .text          0x008094ac       0x70 c:/altera/10.1/nios2eds/bin/gnu/h-i686-mingw32/bin/../lib/gcc/nios2-elf/4.1.2/../../../../nios2-elf/lib\libc.a(lib_a-closer.o)
                0x008094ac                _close_r
 .text          0x0080951c      0x124 c:/altera/10.1/nios2eds/bin/gnu/h-i686-mingw32/bin/../lib/gcc/nios2-elf/4.1.2/../../../../nios2-elf/lib\libc.a(lib_a-fclose.o)
                0x0080951c                _fclose_r
                0x0080962c                fclose
 .text          0x00809640       0x74 c:/altera/10.1/nios2eds/bin/gnu/h-i686-mingw32/bin/../lib/gcc/nios2-elf/4.1.2/../../../../nios2-elf/lib\libc.a(lib_a-fstatr.o)
                0x00809640                _fstat_r
 .text          0x008096b4       0x70 c:/altera/10.1/nios2eds/bin/gnu/h-i686-mingw32/bin/../lib/gcc/nios2-elf/4.1.2/../../../../nios2-elf/lib\libc.a(lib_a-isattyr.o)
                0x008096b4                _isatty_r
 .text          0x00809724       0x78 c:/altera/10.1/nios2eds/bin/gnu/h-i686-mingw32/bin/../lib/gcc/nios2-elf/4.1.2/../../../../nios2-elf/lib\libc.a(lib_a-lseekr.o)
                0x00809724                _lseek_r
 .text          0x0080979c       0x78 c:/altera/10.1/nios2eds/bin/gnu/h-i686-mingw32/bin/../lib/gcc/nios2-elf/4.1.2/../../../../nios2-elf/lib\libc.a(lib_a-readr.o)
                0x0080979c                _read_r
 .text          0x00809814       0x98 c:/altera/10.1/nios2eds/bin/gnu/h-i686-mingw32/bin/../lib/gcc/nios2-elf/4.1.2\libgcc.a(_muldi3.o)
                0x00809814                __muldi3
 .text          0x008098ac      0x5dc c:/altera/10.1/nios2eds/bin/gnu/h-i686-mingw32/bin/../lib/gcc/nios2-elf/4.1.2\libgcc.a(_udivdi3.o)
                0x008098ac                __udivdi3
 .text          0x00809e88      0x5b0 c:/altera/10.1/nios2eds/bin/gnu/h-i686-mingw32/bin/../lib/gcc/nios2-elf/4.1.2\libgcc.a(_umoddi3.o)
                0x00809e88                __umoddi3
 .text          0x0080a438      0x504 c:/altera/10.1/nios2eds/bin/gnu/h-i686-mingw32/bin/../lib/gcc/nios2-elf/4.1.2\libgcc.a(_addsub_df.o)
                0x0080a848                __subdf3
                0x0080a8c8                __adddf3
 .text          0x0080a93c      0x3c4 c:/altera/10.1/nios2eds/bin/gnu/h-i686-mingw32/bin/../lib/gcc/nios2-elf/4.1.2\libgcc.a(_mul_df.o)
                0x0080a93c                __muldf3
 .text          0x0080ad00       0x88 c:/altera/10.1/nios2eds/bin/gnu/h-i686-mingw32/bin/../lib/gcc/nios2-elf/4.1.2\libgcc.a(_eq_df.o)
                0x0080ad00                __eqdf2
 .text          0x0080ad88       0x88 c:/altera/10.1/nios2eds/bin/gnu/h-i686-mingw32/bin/../lib/gcc/nios2-elf/4.1.2\libgcc.a(_ne_df.o)
                0x0080ad88                __nedf2
 .text          0x0080ae10       0x88 c:/altera/10.1/nios2eds/bin/gnu/h-i686-mingw32/bin/../lib/gcc/nios2-elf/4.1.2\libgcc.a(_ge_df.o)
                0x0080ae10                __gedf2
 .text          0x0080ae98       0xd8 c:/altera/10.1/nios2eds/bin/gnu/h-i686-mingw32/bin/../lib/gcc/nios2-elf/4.1.2\libgcc.a(_df_to_si.o)
                0x0080ae98                __fixdfsi
 .text          0x0080af70      0x194 c:/altera/10.1/nios2eds/bin/gnu/h-i686-mingw32/bin/../lib/gcc/nios2-elf/4.1.2\libgcc.a(_usi_to_df.o)
                0x0080af70                __floatunsidf
 .text          0x0080b104      0x15c ../hi_bsp\libhal_bsp.a(alt_close.o)
                0x0080b104                close
 .text          0x0080b260       0x2c ../hi_bsp\libhal_bsp.a(alt_dev.o)
 .text          0x0080b28c        0x0 ../hi_bsp\libhal_bsp.a(alt_errno.o)
 .text          0x0080b28c      0x134 ../hi_bsp\libhal_bsp.a(alt_fstat.o)
                0x0080b28c                fstat
 .text          0x0080b3c0      0x21c ../hi_bsp\libhal_bsp.a(alt_gettod.o)
                0x0080b3c0                gettimeofday
 .text          0x0080b5dc      0x120 ../hi_bsp\libhal_bsp.a(alt_isatty.o)
                0x0080b5dc                isatty
 .text          0x0080b6fc      0x150 ../hi_bsp\libhal_bsp.a(alt_lseek.o)
                0x0080b6fc                lseek
 .text          0x0080b84c       0x6c ../hi_bsp\libhal_bsp.a(alt_main.o)
                0x0080b84c                alt_main
 .text          0x0080b8b8       0x40 ../hi_bsp\libhal_bsp.a(alt_malloc_lock.o)
                0x0080b8b8                __malloc_lock
                0x0080b8d8                __malloc_unlock
 .text          0x0080b8f8      0x258 ../hi_bsp\libhal_bsp.a(alt_printf.o)
                0x0080b8f8                alt_printf
 .text          0x0080bb50       0x40 ../hi_bsp\libhal_bsp.a(alt_putchar.o)
                0x0080bb50                alt_putchar
 .text          0x0080bb90      0x180 ../hi_bsp\libhal_bsp.a(alt_read.o)
                0x0080bb90                read
 .text          0x0080bd10       0x60 ../hi_bsp\libhal_bsp.a(alt_release_fd.o)
                0x0080bd10                alt_release_fd
 .text          0x0080bd70       0xbc ../hi_bsp\libhal_bsp.a(alt_sbrk.o)
                0x0080bd70                sbrk
 .text          0x0080be2c      0x1a4 ../hi_bsp\libhal_bsp.a(alt_tick.o)
                0x0080be2c                alt_alarm_stop
                0x0080bec4                alt_tick
 .text          0x0080bfd0       0x30 ../hi_bsp\libhal_bsp.a(alt_usleep.o)
                0x0080bfd0                usleep
 .text          0x0080c000      0x180 ../hi_bsp\libhal_bsp.a(alt_write.o)
                0x0080c000                write
 .text          0x0080c180      0x3c0 ../hi_bsp\libhal_bsp.a(alt_sys_init.o)
                0x0080c180                alt_irq_init
                0x0080c1b4                alt_sys_init
 .text          0x0080c540      0x8c8 ../hi_bsp\libhal_bsp.a(altera_avalon_cfi_flash.o)
                0x0080c540                alt_flash_cfi_init
                0x0080c614                alt_flash_cfi_write
                0x0080c8d4                alt_flash_cfi_get_info
                0x0080c964                alt_flash_cfi_read
                0x0080c9cc                alt_write_value_to_flash
                0x0080cb30                alt_flash_program_block
 .text          0x0080ce08     0x1448 ../hi_bsp\libhal_bsp.a(altera_avalon_cfi_flash_table.o)
                0x0080ce08                alt_read_query_entry_8bit
                0x0080ce48                alt_read_query_entry_16bit
                0x0080ce8c                alt_read_query_entry_32bit
                0x0080ced4                alt_write_flash_command_8bit_device_8bit_mode
                0x0080cf10                alt_write_flash_command_16bit_device_8bit_mode
                0x0080cf8c                alt_write_flash_command_32bit_device_8bit_mode
                0x0080cfd4                alt_write_flash_command_16bit_device_16bit_mode
                0x0080d018                alt_write_flash_command_32bit_device_16bit_mode
                0x0080d060                alt_write_flash_command_32bit_device_32bit_mode
                0x0080d0a8                alt_write_native_8bit
                0x0080d0dc                alt_write_native_16bit
                0x0080d110                alt_write_native_32bit
                0x0080d140                alt_set_flash_width_func
                0x0080d320                alt_set_flash_algorithm_func
                0x0080d448                alt_read_cfi_table
                0x0080d9c8                alt_read_cfi_width
                0x0080e174                alt_check_primary_table
 .text          0x0080e250      0x148 ../hi_bsp\libhal_bsp.a(altera_avalon_jtag_uart_fd.o)
                0x0080e250                altera_avalon_jtag_uart_read_fd
                0x0080e2a8                altera_avalon_jtag_uart_write_fd
                0x0080e300                altera_avalon_jtag_uart_close_fd
                0x0080e348                altera_avalon_jtag_uart_ioctl_fd
 .text          0x0080e398      0x408 ../hi_bsp\libhal_bsp.a(altera_avalon_jtag_uart_init.o)
                0x0080e398                altera_avalon_jtag_uart_init
                0x0080e72c                altera_avalon_jtag_uart_close
 .text          0x0080e7a0       0xf4 ../hi_bsp\libhal_bsp.a(altera_avalon_jtag_uart_ioctl.o)
                0x0080e7a0                altera_avalon_jtag_uart_ioctl
 .text          0x0080e894      0x224 ../hi_bsp\libhal_bsp.a(altera_avalon_jtag_uart_read.o)
                0x0080e894                altera_avalon_jtag_uart_read
 .text          0x0080eab8      0x240 ../hi_bsp\libhal_bsp.a(altera_avalon_jtag_uart_write.o)
                0x0080eab8                altera_avalon_jtag_uart_write
 .text          0x0080ecf8      0x238 ../hi_bsp\libhal_bsp.a(altera_avalon_spi.o)
                0x0080ecf8                alt_avalon_spi_command
 .text          0x0080ef30       0xfc ../hi_bsp\libhal_bsp.a(altera_avalon_timer_sc.o)
                0x0080efa4                alt_avalon_timer_sc_init
 .text          0x0080f02c       0xf8 ../hi_bsp\libhal_bsp.a(altera_avalon_uart_fd.o)
                0x0080f02c                altera_avalon_uart_read_fd
                0x0080f084                altera_avalon_uart_write_fd
                0x0080f0dc                altera_avalon_uart_close_fd
 .text          0x0080f124      0x3fc ../hi_bsp\libhal_bsp.a(altera_avalon_uart_init.o)
                0x0080f124                altera_avalon_uart_init
                0x0080f4c0                altera_avalon_uart_close
 .text          0x0080f520      0x290 ../hi_bsp\libhal_bsp.a(altera_avalon_uart_read.o)
                0x0080f520                altera_avalon_uart_read
 .text          0x0080f7b0      0x228 ../hi_bsp\libhal_bsp.a(altera_avalon_uart_write.o)
                0x0080f7b0                altera_avalon_uart_write
 .text          0x0080f9d8      0x700 ../hi_bsp\libhal_bsp.a(altera_up_avalon_ps2.o)
                0x0080f9d8                read_RI_bit
                0x0080fa0c                read_RE_bit
                0x0080fa3c                read_CE_bit
                0x0080fa70                read_num_bytes_available
                0x0080faa4                read_data_valid
                0x0080fad8                read_data_byte
                0x0080fb04                alt_up_ps2_init
                0x0080fbd0                alt_up_ps2_enable_read_interrupt
                0x0080fc24                alt_up_ps2_disable_read_interrupt
                0x0080fc7c                alt_up_ps2_write_data_byte
                0x0080fcf4                alt_up_ps2_wait_for_ack
                0x0080fd64                alt_up_ps2_write_data_byte_with_ack
                0x0080fdd0                alt_up_ps2_read_data_byte_timeout
                0x0080fe80                alt_up_ps2_read_data_byte
                0x0080fefc                alt_up_ps2_clear_fifo
                0x0080ff54                alt_up_ps2_read_fd
                0x0080fff0                alt_up_ps2_write_fd
                0x00810098                alt_up_ps2_open_dev
 .text          0x008100d8      0x304 ../hi_bsp\libhal_bsp.a(altera_up_avalon_video_character_buffer_with_dma.o)
                0x008100d8                alt_up_char_buffer_init
                0x0081015c                alt_up_char_buffer_open_dev
                0x0081019c                alt_up_char_buffer_draw
                0x0081026c                alt_up_char_buffer_string
                0x00810380                alt_up_char_buffer_clear
 .text          0x008103dc      0x5e0 ../hi_bsp\libhal_bsp.a(altera_up_ps2_keyboard.o)
                0x008103dc                get_multi_byte_make_code_index
                0x00810454                get_single_byte_make_code_index
                0x008104cc                get_next_state
                0x00810728                decode_scancode
                0x008107d4                set_keyboard_rate
                0x00810834                translate_make_code
                0x0081093c                reset_keyboard
 .text          0x008109bc      0x154 ../hi_bsp\libhal_bsp.a(alt_alarm_start.o)
                0x008109bc                alt_alarm_start
 .text          0x00810b10      0x14c ../hi_bsp\libhal_bsp.a(alt_busy_sleep.o)
                0x00810b10                alt_busy_sleep
 .text          0x00810c5c       0x78 ../hi_bsp\libhal_bsp.a(alt_dcache_flush.o)
                0x00810c5c                alt_dcache_flush
 .text          0x00810cd4      0x114 ../hi_bsp\libhal_bsp.a(alt_dev_llist_insert.o)
                0x00810cd4                alt_dev_llist_insert
 .text          0x00810de8       0x64 ../hi_bsp\libhal_bsp.a(alt_do_ctors.o)
                0x00810de8                _do_ctors
 .text          0x00810e4c       0x64 ../hi_bsp\libhal_bsp.a(alt_do_dtors.o)
                0x00810e4c                _do_dtors
 .text          0x00810eb0       0x94 ../hi_bsp\libhal_bsp.a(alt_find_dev.o)
                0x00810eb0                alt_find_dev
 .text          0x00810f44       0xd0 ../hi_bsp\libhal_bsp.a(alt_flash_dev.o)
                0x00810f44                alt_flash_open_dev
                0x00810fc0                alt_flash_close_dev
 .text          0x00811014      0x13c ../hi_bsp\libhal_bsp.a(alt_io_redirect.o)
                0x008110d8                alt_io_redirect
 .text          0x00811150      0x1c0 ../hi_bsp\libhal_bsp.a(alt_irq_register.o)
                0x00811150                alt_irq_register
 .text          0x00811310        0x0 ../hi_bsp\libhal_bsp.a(alt_irq_vars.o)
 .text          0x00811310      0x2c4 ../hi_bsp\libhal_bsp.a(alt_open.o)
                0x008113ec                open
 .text          0x008115d4       0x20 ../hi_bsp\libhal_bsp.a(altera_nios2_irq.o)
                0x008115d4                altera_nios2_irq_init
 .text          0x008115f4      0x460 ../hi_bsp\libhal_bsp.a(altera_avalon_cfi_flash_amd.o)
                0x008115f4                alt_program_amd
                0x0081165c                alt_erase_block_amd
 .text          0x00811a54      0x460 ../hi_bsp\libhal_bsp.a(altera_avalon_cfi_flash_intel.o)
                0x00811a54                alt_program_intel
                0x00811ad8                alt_erase_block_intel
 .text          0x00811eb4      0x120 ../hi_bsp\libhal_bsp.a(alt_find_file.o)
                0x00811eb4                alt_find_file
 .text          0x00811fd4       0xb8 ../hi_bsp\libhal_bsp.a(alt_get_fd.o)
                0x00811fd4                alt_get_fd
 .text          0x0081208c        0x0 ../hi_bsp\libhal_bsp.a(alt_irq_entry.o)
 .text          0x0081208c        0x0 ../hi_bsp\libhal_bsp.a(alt_irq_handler.o)
 .text          0x0081208c        0x0 ../hi_bsp\libhal_bsp.a(alt_exception_entry.o)
 .text          0x0081208c       0x14 c:/altera/10.1/nios2eds/bin/gnu/h-i686-mingw32/bin/../lib/gcc/nios2-elf/4.1.2/../../../../nios2-elf/lib\libc.a(lib_a-atexit.o)
                0x0081208c                atexit
 .text          0x008120a0       0x38 c:/altera/10.1/nios2eds/bin/gnu/h-i686-mingw32/bin/../lib/gcc/nios2-elf/4.1.2/../../../../nios2-elf/lib\libc.a(lib_a-exit.o)
                0x008120a0                exit
 .text          0x008120d8       0x74 c:/altera/10.1/nios2eds/bin/gnu/h-i686-mingw32/bin/../lib/gcc/nios2-elf/4.1.2/../../../../nios2-elf/lib\libc.a(lib_a-memcmp.o)
                0x008120d8                memcmp
 .text          0x0081214c      0x1ec c:/altera/10.1/nios2eds/bin/gnu/h-i686-mingw32/bin/../lib/gcc/nios2-elf/4.1.2/../../../../nios2-elf/lib\libc.a(lib_a-putc.o)
                0x0081214c                putc
                0x00812250                _putc_r
 .text          0x00812338       0x8c c:/altera/10.1/nios2eds/bin/gnu/h-i686-mingw32/bin/../lib/gcc/nios2-elf/4.1.2/../../../../nios2-elf/lib\libc.a(lib_a-strcpy.o)
                0x00812338                strcpy
 .text          0x008123c4      0x14c c:/altera/10.1/nios2eds/bin/gnu/h-i686-mingw32/bin/../lib/gcc/nios2-elf/4.1.2/../../../../nios2-elf/lib\libc.a(lib_a-wbuf.o)
                0x008123c4                __swbuf_r
                0x008124f4                __swbuf
 .text          0x00812510      0x134 c:/altera/10.1/nios2eds/bin/gnu/h-i686-mingw32/bin/../lib/gcc/nios2-elf/4.1.2/../../../../nios2-elf/lib\libc.a(lib_a-__atexit.o)
                0x00812510                __register_exitproc
 .text          0x00812644      0x1b4 c:/altera/10.1/nios2eds/bin/gnu/h-i686-mingw32/bin/../lib/gcc/nios2-elf/4.1.2/../../../../nios2-elf/lib\libc.a(lib_a-__call_atexit.o)
                0x00812648                __call_exitprocs
 .text          0x008127f8       0x60 ../hi_bsp\libhal_bsp.a(alt_exit.o)
                0x00812838                _exit
 *(.gnu.warning.*)
 *(.fini)
                0x00812858                PROVIDE (__etext, ABSOLUTE (.))
                0x00812858                PROVIDE (_etext, ABSOLUTE (.))
                0x00812858                PROVIDE (etext, ABSOLUTE (.))
 *(.eh_frame_hdr)
                0x00812858                . = ALIGN (0x4)
                0x00812858                PROVIDE (__preinit_array_start, ABSOLUTE (.))
 *(.preinit_array)
                0x00812858                PROVIDE (__preinit_array_end, ABSOLUTE (.))
                0x00812858                PROVIDE (__init_array_start, ABSOLUTE (.))
 *(.init_array)
                0x00812858                PROVIDE (__init_array_end, ABSOLUTE (.))
                0x00812858                PROVIDE (__fini_array_start, ABSOLUTE (.))
 *(.fini_array)
                0x00812858                PROVIDE (__fini_array_end, ABSOLUTE (.))
 *(.eh_frame)
 .eh_frame      0x00812858       0x40 c:/altera/10.1/nios2eds/bin/gnu/h-i686-mingw32/bin/../lib/gcc/nios2-elf/4.1.2\libgcc.a(_udivdi3.o)
 .eh_frame      0x00812898       0x2c c:/altera/10.1/nios2eds/bin/gnu/h-i686-mingw32/bin/../lib/gcc/nios2-elf/4.1.2\libgcc.a(_umoddi3.o)
                                 0x40 (size before relaxing)
 *(.gcc_except_table)
 *(.dynamic)
                0x008128c4                PROVIDE (__CTOR_LIST__, ABSOLUTE (.))
 *(.ctors)
 *(SORT(.ctors.*))
 .ctors.65535   0x008128c4        0x4 c:/altera/10.1/nios2eds/bin/gnu/h-i686-mingw32/bin/../lib/gcc/nios2-elf/4.1.2/../../../../nios2-elf/lib\libc.a(lib_a-__call_atexit.o)
                0x008128c8                PROVIDE (__CTOR_END__, ABSOLUTE (.))
                0x008128c8                PROVIDE (__DTOR_LIST__, ABSOLUTE (.))
 *(.dtors)
 *(SORT(.dtors.*))
                0x008128c8                PROVIDE (__DTOR_END__, ABSOLUTE (.))
 *(.jcr)
                0x008128c8                . = ALIGN (0x4)

.rodata         0x008128c8      0x6ac
                0x008128c8                PROVIDE (__ram_rodata_start, ABSOLUTE (.))
                0x008128c8                . = ALIGN (0x4)
 *(.rodata .rodata.* .gnu.linkonce.r.*)
 .rodata        0x008128c8       0x98 obj/hello_world.o
 .rodata        0x00812960       0x14 c:/altera/10.1/nios2eds/bin/gnu/h-i686-mingw32/bin/../lib/gcc/nios2-elf/4.1.2\libgcc.a(_thenan_df.o)
                0x00812960                __thenan_df
 .rodata        0x00812974      0x100 c:/altera/10.1/nios2eds/bin/gnu/h-i686-mingw32/bin/../lib/gcc/nios2-elf/4.1.2\libgcc.a(_clz.o)
                0x00812974                __clz_tab
 .rodata.str1.4
                0x00812a74       0x5e c:/altera/10.1/nios2eds/bin/gnu/h-i686-mingw32/bin/../lib/gcc/nios2-elf/4.1.2/../../../../nios2-elf/lib\libc.a(lib_a-vfprintf.o)
                                 0x60 (size before relaxing)
 .rodata        0x00812ad2       0x20 c:/altera/10.1/nios2eds/bin/gnu/h-i686-mingw32/bin/../lib/gcc/nios2-elf/4.1.2/../../../../nios2-elf/lib\libc.a(lib_a-vfprintf.o)
 *fill*         0x00812af2        0x2 00
 .rodata.str1.4
                0x00812af4       0x10 c:/altera/10.1/nios2eds/bin/gnu/h-i686-mingw32/bin/../lib/gcc/nios2-elf/4.1.2/../../../../nios2-elf/lib\libc.a(lib_a-dtoa.o)
                                 0x14 (size before relaxing)
 .rodata.str1.4
                0x00812b04        0x2 c:/altera/10.1/nios2eds/bin/gnu/h-i686-mingw32/bin/../lib/gcc/nios2-elf/4.1.2/../../../../nios2-elf/lib\libc.a(lib_a-impure.o)
                                  0x4 (size before relaxing)
 *fill*         0x00812b06        0x2 00
 .rodata.str1.4
                0x00812b08       0x10 c:/altera/10.1/nios2eds/bin/gnu/h-i686-mingw32/bin/../lib/gcc/nios2-elf/4.1.2/../../../../nios2-elf/lib\libc.a(lib_a-locale.o)
                                 0x18 (size before relaxing)
 .rodata        0x00812b18       0x30 c:/altera/10.1/nios2eds/bin/gnu/h-i686-mingw32/bin/../lib/gcc/nios2-elf/4.1.2/../../../../nios2-elf/lib\libc.a(lib_a-locale.o)
 .rodata        0x00812b48      0x124 c:/altera/10.1/nios2eds/bin/gnu/h-i686-mingw32/bin/../lib/gcc/nios2-elf/4.1.2/../../../../nios2-elf/lib\libc.a(lib_a-mprec.o)
                0x00812b48                __mprec_tens
                0x00812c10                __mprec_bigtens
                0x00812c38                __mprec_tinytens
 .rodata        0x00812c6c        0xc ../hi_bsp\libhal_bsp.a(alt_dev.o)
 .rodata        0x00812c78       0x10 ../hi_bsp\libhal_bsp.a(alt_main.o)
 .rodata        0x00812c88       0x94 ../hi_bsp\libhal_bsp.a(alt_sys_init.o)
 .rodata        0x00812d1c       0x1c ../hi_bsp\libhal_bsp.a(altera_up_avalon_video_character_buffer_with_dma.o)
 .rodata        0x00812d38      0x23c ../hi_bsp\libhal_bsp.a(altera_up_ps2_keyboard.o)
 *(.rodata1)
                0x00812f74                . = ALIGN (0x4)
                0x00812f74                PROVIDE (__ram_rodata_end, ABSOLUTE (.))
                0x008128c8                PROVIDE (__flash_rodata_start, LOADADDR (.rodata))

.rwdata         0x00812f74     0x1fb4
                0x00812f74                PROVIDE (__ram_rwdata_start, ABSOLUTE (.))
                0x00812f74                . = ALIGN (0x4)
 *(.got.plt)
 *(.got)
 *(.data1)
 *(.data .data.* .gnu.linkonce.d.*)
 .data          0x00812f74        0x0 ../hi_bsp/obj/HAL/src/crt0.o
 .data          0x00812f74        0x0 obj/hello_world.o
 .data          0x00812f74        0x0 c:/altera/10.1/nios2eds/bin/gnu/h-i686-mingw32/bin/../lib/gcc/nios2-elf/4.1.2\libgcc.a(_gt_sf.o)
 .data          0x00812f74        0x0 c:/altera/10.1/nios2eds/bin/gnu/h-i686-mingw32/bin/../lib/gcc/nios2-elf/4.1.2\libgcc.a(_lt_sf.o)
 .data          0x00812f74        0x0 c:/altera/10.1/nios2eds/bin/gnu/h-i686-mingw32/bin/../lib/gcc/nios2-elf/4.1.2\libgcc.a(_sf_to_df.o)
 .data          0x00812f74        0x0 c:/altera/10.1/nios2eds/bin/gnu/h-i686-mingw32/bin/../lib/gcc/nios2-elf/4.1.2\libgcc.a(_div_df.o)
 .data          0x00812f74        0x0 c:/altera/10.1/nios2eds/bin/gnu/h-i686-mingw32/bin/../lib/gcc/nios2-elf/4.1.2\libgcc.a(_gt_df.o)
 .data          0x00812f74        0x0 c:/altera/10.1/nios2eds/bin/gnu/h-i686-mingw32/bin/../lib/gcc/nios2-elf/4.1.2\libgcc.a(_lt_df.o)
 .data          0x00812f74        0x0 c:/altera/10.1/nios2eds/bin/gnu/h-i686-mingw32/bin/../lib/gcc/nios2-elf/4.1.2\libgcc.a(_si_to_df.o)
 .data          0x00812f74        0x0 c:/altera/10.1/nios2eds/bin/gnu/h-i686-mingw32/bin/../lib/gcc/nios2-elf/4.1.2\libgcc.a(_make_df.o)
 .data          0x00812f74        0x0 c:/altera/10.1/nios2eds/bin/gnu/h-i686-mingw32/bin/../lib/gcc/nios2-elf/4.1.2\libgcc.a(_df_to_sf.o)
 .data          0x00812f74        0x0 c:/altera/10.1/nios2eds/bin/gnu/h-i686-mingw32/bin/../lib/gcc/nios2-elf/4.1.2\libgcc.a(_thenan_df.o)
 .data          0x00812f74        0x0 c:/altera/10.1/nios2eds/bin/gnu/h-i686-mingw32/bin/../lib/gcc/nios2-elf/4.1.2\libgcc.a(lib2-divmod.o)
 .data          0x00812f74        0x0 c:/altera/10.1/nios2eds/bin/gnu/h-i686-mingw32/bin/../lib/gcc/nios2-elf/4.1.2\libgcc.a(_clzsi2.o)
 .data          0x00812f74        0x0 c:/altera/10.1/nios2eds/bin/gnu/h-i686-mingw32/bin/../lib/gcc/nios2-elf/4.1.2\libgcc.a(_unpack_sf.o)
 .data          0x00812f74        0x0 c:/altera/10.1/nios2eds/bin/gnu/h-i686-mingw32/bin/../lib/gcc/nios2-elf/4.1.2\libgcc.a(_fpcmp_parts_sf.o)
 .data          0x00812f74        0x0 c:/altera/10.1/nios2eds/bin/gnu/h-i686-mingw32/bin/../lib/gcc/nios2-elf/4.1.2\libgcc.a(_make_sf.o)
 .data          0x00812f74        0x0 c:/altera/10.1/nios2eds/bin/gnu/h-i686-mingw32/bin/../lib/gcc/nios2-elf/4.1.2\libgcc.a(_pack_df.o)
 .data          0x00812f74        0x0 c:/altera/10.1/nios2eds/bin/gnu/h-i686-mingw32/bin/../lib/gcc/nios2-elf/4.1.2\libgcc.a(_unpack_df.o)
 .data          0x00812f74        0x0 c:/altera/10.1/nios2eds/bin/gnu/h-i686-mingw32/bin/../lib/gcc/nios2-elf/4.1.2\libgcc.a(_fpcmp_parts_df.o)
 .data          0x00812f74        0x0 c:/altera/10.1/nios2eds/bin/gnu/h-i686-mingw32/bin/../lib/gcc/nios2-elf/4.1.2\libgcc.a(_clz.o)
 .data          0x00812f74        0x0 c:/altera/10.1/nios2eds/bin/gnu/h-i686-mingw32/bin/../lib/gcc/nios2-elf/4.1.2\libgcc.a(_pack_sf.o)
 .data          0x00812f74        0x0 c:/altera/10.1/nios2eds/bin/gnu/h-i686-mingw32/bin/../lib/gcc/nios2-elf/4.1.2/../../../../nios2-elf/lib\libc.a(lib_a-printf.o)
 .data          0x00812f74        0x0 c:/altera/10.1/nios2eds/bin/gnu/h-i686-mingw32/bin/../lib/gcc/nios2-elf/4.1.2/../../../../nios2-elf/lib\libc.a(lib_a-rand.o)
 .data          0x00812f74        0x0 c:/altera/10.1/nios2eds/bin/gnu/h-i686-mingw32/bin/../lib/gcc/nios2-elf/4.1.2/../../../../nios2-elf/lib\libc.a(lib_a-time.o)
 .data          0x00812f74        0x0 c:/altera/10.1/nios2eds/bin/gnu/h-i686-mingw32/bin/../lib/gcc/nios2-elf/4.1.2/../../../../nios2-elf/lib\libc.a(lib_a-vfprintf.o)
 .data          0x00812f74        0x0 c:/altera/10.1/nios2eds/bin/gnu/h-i686-mingw32/bin/../lib/gcc/nios2-elf/4.1.2/../../../../nios2-elf/lib\libc.a(lib_a-wsetup.o)
 .data          0x00812f74        0x0 c:/altera/10.1/nios2eds/bin/gnu/h-i686-mingw32/bin/../lib/gcc/nios2-elf/4.1.2/../../../../nios2-elf/lib\libc.a(lib_a-dtoa.o)
 .data          0x00812f74        0x0 c:/altera/10.1/nios2eds/bin/gnu/h-i686-mingw32/bin/../lib/gcc/nios2-elf/4.1.2/../../../../nios2-elf/lib\libc.a(lib_a-fflush.o)
 .data          0x00812f74        0x0 c:/altera/10.1/nios2eds/bin/gnu/h-i686-mingw32/bin/../lib/gcc/nios2-elf/4.1.2/../../../../nios2-elf/lib\libc.a(lib_a-findfp.o)
 .data          0x00812f74        0x0 c:/altera/10.1/nios2eds/bin/gnu/h-i686-mingw32/bin/../lib/gcc/nios2-elf/4.1.2/../../../../nios2-elf/lib\libc.a(lib_a-freer.o)
 .data          0x00812f74        0x0 c:/altera/10.1/nios2eds/bin/gnu/h-i686-mingw32/bin/../lib/gcc/nios2-elf/4.1.2/../../../../nios2-elf/lib\libc.a(lib_a-fvwrite.o)
 .data          0x00812f74        0x0 c:/altera/10.1/nios2eds/bin/gnu/h-i686-mingw32/bin/../lib/gcc/nios2-elf/4.1.2/../../../../nios2-elf/lib\libc.a(lib_a-fwalk.o)
 .data          0x00812f74        0x0 c:/altera/10.1/nios2eds/bin/gnu/h-i686-mingw32/bin/../lib/gcc/nios2-elf/4.1.2/../../../../nios2-elf/lib\libc.a(lib_a-gettimeofdayr.o)
 .data          0x00812f74      0x400 c:/altera/10.1/nios2eds/bin/gnu/h-i686-mingw32/bin/../lib/gcc/nios2-elf/4.1.2/../../../../nios2-elf/lib\libc.a(lib_a-impure.o)
 .data          0x00813374        0x0 c:/altera/10.1/nios2eds/bin/gnu/h-i686-mingw32/bin/../lib/gcc/nios2-elf/4.1.2/../../../../nios2-elf/lib\libc.a(lib_a-int_errno.o)
 .data          0x00813374        0xc c:/altera/10.1/nios2eds/bin/gnu/h-i686-mingw32/bin/../lib/gcc/nios2-elf/4.1.2/../../../../nios2-elf/lib\libc.a(lib_a-locale.o)
                0x00813374                __lc_ctype
 .data          0x00813380        0x0 c:/altera/10.1/nios2eds/bin/gnu/h-i686-mingw32/bin/../lib/gcc/nios2-elf/4.1.2/../../../../nios2-elf/lib\libc.a(lib_a-makebuf.o)
 .data          0x00813380      0x408 c:/altera/10.1/nios2eds/bin/gnu/h-i686-mingw32/bin/../lib/gcc/nios2-elf/4.1.2/../../../../nios2-elf/lib\libc.a(lib_a-mallocr.o)
                0x00813380                __malloc_av_
 .data          0x00813788        0x0 c:/altera/10.1/nios2eds/bin/gnu/h-i686-mingw32/bin/../lib/gcc/nios2-elf/4.1.2/../../../../nios2-elf/lib\libc.a(lib_a-memchr.o)
 .data          0x00813788        0x0 c:/altera/10.1/nios2eds/bin/gnu/h-i686-mingw32/bin/../lib/gcc/nios2-elf/4.1.2/../../../../nios2-elf/lib\libc.a(lib_a-memcpy.o)
 .data          0x00813788        0x0 c:/altera/10.1/nios2eds/bin/gnu/h-i686-mingw32/bin/../lib/gcc/nios2-elf/4.1.2/../../../../nios2-elf/lib\libc.a(lib_a-memmove.o)
 .data          0x00813788        0x0 c:/altera/10.1/nios2eds/bin/gnu/h-i686-mingw32/bin/../lib/gcc/nios2-elf/4.1.2/../../../../nios2-elf/lib\libc.a(lib_a-memset.o)
 .data          0x00813788        0x0 c:/altera/10.1/nios2eds/bin/gnu/h-i686-mingw32/bin/../lib/gcc/nios2-elf/4.1.2/../../../../nios2-elf/lib\libc.a(lib_a-mprec.o)
 .data          0x00813788        0x0 c:/altera/10.1/nios2eds/bin/gnu/h-i686-mingw32/bin/../lib/gcc/nios2-elf/4.1.2/../../../../nios2-elf/lib\libc.a(lib_a-reallocr.o)
 .data          0x00813788        0x0 c:/altera/10.1/nios2eds/bin/gnu/h-i686-mingw32/bin/../lib/gcc/nios2-elf/4.1.2/../../../../nios2-elf/lib\libc.a(lib_a-s_isinfd.o)
 .data          0x00813788        0x0 c:/altera/10.1/nios2eds/bin/gnu/h-i686-mingw32/bin/../lib/gcc/nios2-elf/4.1.2/../../../../nios2-elf/lib\libc.a(lib_a-s_isnand.o)
 .data          0x00813788        0x0 c:/altera/10.1/nios2eds/bin/gnu/h-i686-mingw32/bin/../lib/gcc/nios2-elf/4.1.2/../../../../nios2-elf/lib\libc.a(lib_a-sbrkr.o)
 .data          0x00813788        0x0 c:/altera/10.1/nios2eds/bin/gnu/h-i686-mingw32/bin/../lib/gcc/nios2-elf/4.1.2/../../../../nios2-elf/lib\libc.a(lib_a-stdio.o)
 .data          0x00813788        0x0 c:/altera/10.1/nios2eds/bin/gnu/h-i686-mingw32/bin/../lib/gcc/nios2-elf/4.1.2/../../../../nios2-elf/lib\libc.a(lib_a-strcmp.o)
 .data          0x00813788        0x0 c:/altera/10.1/nios2eds/bin/gnu/h-i686-mingw32/bin/../lib/gcc/nios2-elf/4.1.2/../../../../nios2-elf/lib\libc.a(lib_a-strlen.o)
 .data          0x00813788        0x0 c:/altera/10.1/nios2eds/bin/gnu/h-i686-mingw32/bin/../lib/gcc/nios2-elf/4.1.2/../../../../nios2-elf/lib\libc.a(lib_a-writer.o)
 .data          0x00813788        0x0 c:/altera/10.1/nios2eds/bin/gnu/h-i686-mingw32/bin/../lib/gcc/nios2-elf/4.1.2/../../../../nios2-elf/lib\libc.a(lib_a-callocr.o)
 .data          0x00813788        0x0 c:/altera/10.1/nios2eds/bin/gnu/h-i686-mingw32/bin/../lib/gcc/nios2-elf/4.1.2/../../../../nios2-elf/lib\libc.a(lib_a-closer.o)
 .data          0x00813788        0x0 c:/altera/10.1/nios2eds/bin/gnu/h-i686-mingw32/bin/../lib/gcc/nios2-elf/4.1.2/../../../../nios2-elf/lib\libc.a(lib_a-fclose.o)
 .data          0x00813788        0x0 c:/altera/10.1/nios2eds/bin/gnu/h-i686-mingw32/bin/../lib/gcc/nios2-elf/4.1.2/../../../../nios2-elf/lib\libc.a(lib_a-fstatr.o)
 .data          0x00813788        0x0 c:/altera/10.1/nios2eds/bin/gnu/h-i686-mingw32/bin/../lib/gcc/nios2-elf/4.1.2/../../../../nios2-elf/lib\libc.a(lib_a-isattyr.o)
 .data          0x00813788        0x0 c:/altera/10.1/nios2eds/bin/gnu/h-i686-mingw32/bin/../lib/gcc/nios2-elf/4.1.2/../../../../nios2-elf/lib\libc.a(lib_a-lseekr.o)
 .data          0x00813788        0x0 c:/altera/10.1/nios2eds/bin/gnu/h-i686-mingw32/bin/../lib/gcc/nios2-elf/4.1.2/../../../../nios2-elf/lib\libc.a(lib_a-readr.o)
 .data          0x00813788        0x0 c:/altera/10.1/nios2eds/bin/gnu/h-i686-mingw32/bin/../lib/gcc/nios2-elf/4.1.2\libgcc.a(_muldi3.o)
 .data          0x00813788        0x0 c:/altera/10.1/nios2eds/bin/gnu/h-i686-mingw32/bin/../lib/gcc/nios2-elf/4.1.2\libgcc.a(_udivdi3.o)
 .data          0x00813788        0x0 c:/altera/10.1/nios2eds/bin/gnu/h-i686-mingw32/bin/../lib/gcc/nios2-elf/4.1.2\libgcc.a(_umoddi3.o)
 .data          0x00813788        0x0 c:/altera/10.1/nios2eds/bin/gnu/h-i686-mingw32/bin/../lib/gcc/nios2-elf/4.1.2\libgcc.a(_addsub_df.o)
 .data          0x00813788        0x0 c:/altera/10.1/nios2eds/bin/gnu/h-i686-mingw32/bin/../lib/gcc/nios2-elf/4.1.2\libgcc.a(_mul_df.o)
 .data          0x00813788        0x0 c:/altera/10.1/nios2eds/bin/gnu/h-i686-mingw32/bin/../lib/gcc/nios2-elf/4.1.2\libgcc.a(_eq_df.o)
 .data          0x00813788        0x0 c:/altera/10.1/nios2eds/bin/gnu/h-i686-mingw32/bin/../lib/gcc/nios2-elf/4.1.2\libgcc.a(_ne_df.o)
 .data          0x00813788        0x0 c:/altera/10.1/nios2eds/bin/gnu/h-i686-mingw32/bin/../lib/gcc/nios2-elf/4.1.2\libgcc.a(_ge_df.o)
 .data          0x00813788        0x0 c:/altera/10.1/nios2eds/bin/gnu/h-i686-mingw32/bin/../lib/gcc/nios2-elf/4.1.2\libgcc.a(_df_to_si.o)
 .data          0x00813788        0x0 c:/altera/10.1/nios2eds/bin/gnu/h-i686-mingw32/bin/../lib/gcc/nios2-elf/4.1.2\libgcc.a(_usi_to_df.o)
 .data          0x00813788        0x0 ../hi_bsp\libhal_bsp.a(alt_close.o)
 .data          0x00813788      0x1a8 ../hi_bsp\libhal_bsp.a(alt_dev.o)
                0x00813788                alt_dev_null
                0x008137b0                alt_fd_list
 .data          0x00813930        0x0 ../hi_bsp\libhal_bsp.a(alt_errno.o)
 .data          0x00813930        0x0 ../hi_bsp\libhal_bsp.a(alt_fstat.o)
 .data          0x00813930        0x0 ../hi_bsp\libhal_bsp.a(alt_gettod.o)
 .data          0x00813930        0x0 ../hi_bsp\libhal_bsp.a(alt_isatty.o)
 .data          0x00813930        0x0 ../hi_bsp\libhal_bsp.a(alt_lseek.o)
 .data          0x00813930        0x0 ../hi_bsp\libhal_bsp.a(alt_main.o)
 .data          0x00813930        0x0 ../hi_bsp\libhal_bsp.a(alt_malloc_lock.o)
 .data          0x00813930        0x0 ../hi_bsp\libhal_bsp.a(alt_printf.o)
 .data          0x00813930        0x0 ../hi_bsp\libhal_bsp.a(alt_putchar.o)
 .data          0x00813930        0x0 ../hi_bsp\libhal_bsp.a(alt_read.o)
 .data          0x00813930        0x0 ../hi_bsp\libhal_bsp.a(alt_release_fd.o)
 .data          0x00813930        0x0 ../hi_bsp\libhal_bsp.a(alt_sbrk.o)
 .data          0x00813930        0x0 ../hi_bsp\libhal_bsp.a(alt_tick.o)
 .data          0x00813930        0x0 ../hi_bsp\libhal_bsp.a(alt_usleep.o)
 .data          0x00813930        0x0 ../hi_bsp\libhal_bsp.a(alt_write.o)
 .data          0x00813930     0x12d0 ../hi_bsp\libhal_bsp.a(alt_sys_init.o)
 .data          0x00814c00        0x0 ../hi_bsp\libhal_bsp.a(altera_avalon_cfi_flash.o)
 .data          0x00814c00        0x0 ../hi_bsp\libhal_bsp.a(altera_avalon_cfi_flash_table.o)
 .data          0x00814c00        0x0 ../hi_bsp\libhal_bsp.a(altera_avalon_jtag_uart_fd.o)
 .data          0x00814c00        0x0 ../hi_bsp\libhal_bsp.a(altera_avalon_jtag_uart_init.o)
 .data          0x00814c00        0x0 ../hi_bsp\libhal_bsp.a(altera_avalon_jtag_uart_ioctl.o)
 .data          0x00814c00        0x0 ../hi_bsp\libhal_bsp.a(altera_avalon_jtag_uart_read.o)
 .data          0x00814c00        0x0 ../hi_bsp\libhal_bsp.a(altera_avalon_jtag_uart_write.o)
 .data          0x00814c00        0x0 ../hi_bsp\libhal_bsp.a(altera_avalon_spi.o)
 .data          0x00814c00        0x0 ../hi_bsp\libhal_bsp.a(altera_avalon_timer_sc.o)
 .data          0x00814c00        0x0 ../hi_bsp\libhal_bsp.a(altera_avalon_uart_fd.o)
 .data          0x00814c00        0x0 ../hi_bsp\libhal_bsp.a(altera_avalon_uart_init.o)
 .data          0x00814c00        0x0 ../hi_bsp\libhal_bsp.a(altera_avalon_uart_read.o)
 .data          0x00814c00        0x0 ../hi_bsp\libhal_bsp.a(altera_avalon_uart_write.o)
 .data          0x00814c00        0x0 ../hi_bsp\libhal_bsp.a(altera_up_avalon_ps2.o)
 .data          0x00814c00        0x0 ../hi_bsp\libhal_bsp.a(altera_up_avalon_video_character_buffer_with_dma.o)
 .data          0x00814c00      0x2cc ../hi_bsp\libhal_bsp.a(altera_up_ps2_keyboard.o)
                0x00814c00                key_table
                0x00814d98                ascii_codes
                0x00814dfe                single_byte_make_code
                0x00814e64                multi_byte_make_code
 .data          0x00814ecc        0x0 ../hi_bsp\libhal_bsp.a(alt_alarm_start.o)
 .data          0x00814ecc        0x0 ../hi_bsp\libhal_bsp.a(alt_busy_sleep.o)
 .data          0x00814ecc        0x0 ../hi_bsp\libhal_bsp.a(alt_dcache_flush.o)
 .data          0x00814ecc        0x0 ../hi_bsp\libhal_bsp.a(alt_dev_llist_insert.o)
 .data          0x00814ecc        0x0 ../hi_bsp\libhal_bsp.a(alt_do_ctors.o)
 .data          0x00814ecc        0x0 ../hi_bsp\libhal_bsp.a(alt_do_dtors.o)
 .data          0x00814ecc        0x0 ../hi_bsp\libhal_bsp.a(alt_find_dev.o)
 .data          0x00814ecc        0x0 ../hi_bsp\libhal_bsp.a(alt_flash_dev.o)
 .data          0x00814ecc        0x0 ../hi_bsp\libhal_bsp.a(alt_io_redirect.o)
 .data          0x00814ecc        0x0 ../hi_bsp\libhal_bsp.a(alt_irq_register.o)
 .data          0x00814ecc        0x0 ../hi_bsp\libhal_bsp.a(alt_irq_vars.o)
 .data          0x00814ecc        0x0 ../hi_bsp\libhal_bsp.a(alt_open.o)
 .data          0x00814ecc        0x0 ../hi_bsp\libhal_bsp.a(altera_nios2_irq.o)
 .data          0x00814ecc        0x0 ../hi_bsp\libhal_bsp.a(altera_avalon_cfi_flash_amd.o)
 .data          0x00814ecc        0x0 ../hi_bsp\libhal_bsp.a(altera_avalon_cfi_flash_intel.o)
 .data          0x00814ecc        0x0 ../hi_bsp\libhal_bsp.a(alt_find_file.o)
 .data          0x00814ecc        0x0 ../hi_bsp\libhal_bsp.a(alt_get_fd.o)
 .data          0x00814ecc        0x0 ../hi_bsp\libhal_bsp.a(alt_irq_entry.o)
 .data          0x00814ecc        0x0 ../hi_bsp\libhal_bsp.a(alt_irq_handler.o)
 .data          0x00814ecc        0x0 ../hi_bsp\libhal_bsp.a(alt_exception_entry.o)
 .data          0x00814ecc        0x0 c:/altera/10.1/nios2eds/bin/gnu/h-i686-mingw32/bin/../lib/gcc/nios2-elf/4.1.2/../../../../nios2-elf/lib\libc.a(lib_a-atexit.o)
 .data          0x00814ecc        0x0 c:/altera/10.1/nios2eds/bin/gnu/h-i686-mingw32/bin/../lib/gcc/nios2-elf/4.1.2/../../../../nios2-elf/lib\libc.a(lib_a-exit.o)
 .data          0x00814ecc        0x0 c:/altera/10.1/nios2eds/bin/gnu/h-i686-mingw32/bin/../lib/gcc/nios2-elf/4.1.2/../../../../nios2-elf/lib\libc.a(lib_a-memcmp.o)
 .data          0x00814ecc        0x0 c:/altera/10.1/nios2eds/bin/gnu/h-i686-mingw32/bin/../lib/gcc/nios2-elf/4.1.2/../../../../nios2-elf/lib\libc.a(lib_a-putc.o)
 .data          0x00814ecc        0x0 c:/altera/10.1/nios2eds/bin/gnu/h-i686-mingw32/bin/../lib/gcc/nios2-elf/4.1.2/../../../../nios2-elf/lib\libc.a(lib_a-strcpy.o)
 .data          0x00814ecc        0x0 c:/altera/10.1/nios2eds/bin/gnu/h-i686-mingw32/bin/../lib/gcc/nios2-elf/4.1.2/../../../../nios2-elf/lib\libc.a(lib_a-wbuf.o)
 .data          0x00814ecc        0x0 c:/altera/10.1/nios2eds/bin/gnu/h-i686-mingw32/bin/../lib/gcc/nios2-elf/4.1.2/../../../../nios2-elf/lib\libc.a(lib_a-__atexit.o)
 .data          0x00814ecc        0x0 c:/altera/10.1/nios2eds/bin/gnu/h-i686-mingw32/bin/../lib/gcc/nios2-elf/4.1.2/../../../../nios2-elf/lib\libc.a(lib_a-__call_atexit.o)
 .data          0x00814ecc        0x0 ../hi_bsp\libhal_bsp.a(alt_exit.o)
                0x0081cecc                _gp = ABSOLUTE ((. + 0x8000))
                0x0081cecc                PROVIDE (gp, _gp)
 *(.sdata .sdata.* .gnu.linkonce.s.*)
 .sdata         0x00814ecc       0x14 obj/hello_world.o
                0x00814ecc                W
                0x00814ed0                H
                0x00814ed4                direct
                0x00814ed8                food
 .sdata         0x00814ee0        0x8 c:/altera/10.1/nios2eds/bin/gnu/h-i686-mingw32/bin/../lib/gcc/nios2-elf/4.1.2/../../../../nios2-elf/lib\libc.a(lib_a-impure.o)
                0x00814ee0                _impure_ptr
                0x00814ee4                _global_impure_ptr
 .sdata         0x00814ee8        0x8 c:/altera/10.1/nios2eds/bin/gnu/h-i686-mingw32/bin/../lib/gcc/nios2-elf/4.1.2/../../../../nios2-elf/lib\libc.a(lib_a-locale.o)
                0x00814ee8                __mb_cur_max
 .sdata         0x00814ef0        0x8 c:/altera/10.1/nios2eds/bin/gnu/h-i686-mingw32/bin/../lib/gcc/nios2-elf/4.1.2/../../../../nios2-elf/lib\libc.a(lib_a-mallocr.o)
                0x00814ef0                __malloc_trim_threshold
                0x00814ef4                __malloc_sbrk_base
 .sdata         0x00814ef8       0x14 ../hi_bsp\libhal_bsp.a(alt_dev.o)
                0x00814ef8                alt_fs_list
                0x00814f00                alt_dev_list
                0x00814f08                alt_max_fd
 .sdata         0x00814f0c        0x4 ../hi_bsp\libhal_bsp.a(alt_errno.o)
                0x00814f0c                alt_errno
 .sdata         0x00814f10        0x4 ../hi_bsp\libhal_bsp.a(alt_sbrk.o)
 .sdata         0x00814f14        0x8 ../hi_bsp\libhal_bsp.a(alt_tick.o)
                0x00814f14                alt_alarm_list
 .sdata         0x00814f1c        0x8 ../hi_bsp\libhal_bsp.a(alt_flash_dev.o)
                0x00814f1c                alt_flash_dev_list
 .sdata         0x00814f24        0x4 ../hi_bsp\libhal_bsp.a(alt_irq_vars.o)
                0x00814f24                alt_priority_mask
 *(.sdata2 .sdata2.* .gnu.linkonce.s2.*)
                0x00814f28                . = ALIGN (0x4)
                0x00814f28                _edata = ABSOLUTE (.)
                0x00814f28                PROVIDE (edata, ABSOLUTE (.))
                0x00814f28                PROVIDE (__ram_rwdata_end, ABSOLUTE (.))
                0x00812f74                PROVIDE (__flash_rwdata_start, LOADADDR (.rwdata))

.bss            0x00814f28     0x1a48
                0x00814f28                __bss_start = ABSOLUTE (.)
                0x00814f28                PROVIDE (__sbss_start, ABSOLUTE (.))
                0x00814f28                PROVIDE (___sbss_start, ABSOLUTE (.))
 *(.dynsbss)
 *(.sbss .sbss.* .gnu.linkonce.sb.*)
 .sbss          0x00814f28       0x10 obj/hello_world.o
                0x00814f28                key
                0x00814f2c                num
                0x00814f30                btime
 .sbss          0x00814f38        0x4 obj/hello_world.o
                0x00814f38                head
 .sbss          0x00814f3c        0x4 c:/altera/10.1/nios2eds/bin/gnu/h-i686-mingw32/bin/../lib/gcc/nios2-elf/4.1.2/../../../../nios2-elf/lib\libc.a(lib_a-int_errno.o)
                0x00814f3c                errno
 .sbss          0x00814f40        0xc c:/altera/10.1/nios2eds/bin/gnu/h-i686-mingw32/bin/../lib/gcc/nios2-elf/4.1.2/../../../../nios2-elf/lib\libc.a(lib_a-locale.o)
                0x00814f40                __nlocale_changed
                0x00814f44                __mlocale_changed
                0x00814f48                _PathLocale
 .sbss          0x00814f4c        0xc c:/altera/10.1/nios2eds/bin/gnu/h-i686-mingw32/bin/../lib/gcc/nios2-elf/4.1.2/../../../../nios2-elf/lib\libc.a(lib_a-mallocr.o)
                0x00814f4c                __malloc_top_pad
                0x00814f50                __malloc_max_sbrked_mem
                0x00814f54                __malloc_max_total_mem
 .sbss          0x00814f58       0x10 ../hi_bsp\libhal_bsp.a(alt_gettod.o)
                0x00814f58                alt_timezone
                0x00814f60                alt_resettime
 .sbss          0x00814f68        0xc ../hi_bsp\libhal_bsp.a(alt_main.o)
                0x00814f68                alt_argc
                0x00814f6c                alt_argv
                0x00814f70                alt_envp
 .sbss          0x00814f74        0x8 ../hi_bsp\libhal_bsp.a(alt_tick.o)
                0x00814f74                _alt_tick_rate
                0x00814f78                _alt_nticks
 .sbss          0x00814f7c        0x4 ../hi_bsp\libhal_bsp.a(alt_irq_vars.o)
                0x00814f7c                alt_irq_active
 *(.sbss2 .sbss2.* .gnu.linkonce.sb2.*)
 *(.scommon)
                0x00814f80                PROVIDE (__sbss_end, ABSOLUTE (.))
                0x00814f80                PROVIDE (___sbss_end, ABSOLUTE (.))
 *(.dynbss)
 *(.bss .bss.* .gnu.linkonce.b.*)
 .bss           0x00814f80        0x0 ../hi_bsp/obj/HAL/src/crt0.o
 .bss           0x00814f80        0x0 obj/hello_world.o
 .bss           0x00814f80        0x0 c:/altera/10.1/nios2eds/bin/gnu/h-i686-mingw32/bin/../lib/gcc/nios2-elf/4.1.2\libgcc.a(_gt_sf.o)
 .bss           0x00814f80        0x0 c:/altera/10.1/nios2eds/bin/gnu/h-i686-mingw32/bin/../lib/gcc/nios2-elf/4.1.2\libgcc.a(_lt_sf.o)
 .bss           0x00814f80        0x0 c:/altera/10.1/nios2eds/bin/gnu/h-i686-mingw32/bin/../lib/gcc/nios2-elf/4.1.2\libgcc.a(_sf_to_df.o)
 .bss           0x00814f80        0x0 c:/altera/10.1/nios2eds/bin/gnu/h-i686-mingw32/bin/../lib/gcc/nios2-elf/4.1.2\libgcc.a(_div_df.o)
 .bss           0x00814f80        0x0 c:/altera/10.1/nios2eds/bin/gnu/h-i686-mingw32/bin/../lib/gcc/nios2-elf/4.1.2\libgcc.a(_gt_df.o)
 .bss           0x00814f80        0x0 c:/altera/10.1/nios2eds/bin/gnu/h-i686-mingw32/bin/../lib/gcc/nios2-elf/4.1.2\libgcc.a(_lt_df.o)
 .bss           0x00814f80        0x0 c:/altera/10.1/nios2eds/bin/gnu/h-i686-mingw32/bin/../lib/gcc/nios2-elf/4.1.2\libgcc.a(_si_to_df.o)
 .bss           0x00814f80        0x0 c:/altera/10.1/nios2eds/bin/gnu/h-i686-mingw32/bin/../lib/gcc/nios2-elf/4.1.2\libgcc.a(_make_df.o)
 .bss           0x00814f80        0x0 c:/altera/10.1/nios2eds/bin/gnu/h-i686-mingw32/bin/../lib/gcc/nios2-elf/4.1.2\libgcc.a(_df_to_sf.o)
 .bss           0x00814f80        0x0 c:/altera/10.1/nios2eds/bin/gnu/h-i686-mingw32/bin/../lib/gcc/nios2-elf/4.1.2\libgcc.a(_thenan_df.o)
 .bss           0x00814f80        0x0 c:/altera/10.1/nios2eds/bin/gnu/h-i686-mingw32/bin/../lib/gcc/nios2-elf/4.1.2\libgcc.a(lib2-divmod.o)
 .bss           0x00814f80        0x0 c:/altera/10.1/nios2eds/bin/gnu/h-i686-mingw32/bin/../lib/gcc/nios2-elf/4.1.2\libgcc.a(_clzsi2.o)
 .bss           0x00814f80        0x0 c:/altera/10.1/nios2eds/bin/gnu/h-i686-mingw32/bin/../lib/gcc/nios2-elf/4.1.2\libgcc.a(_unpack_sf.o)
 .bss           0x00814f80        0x0 c:/altera/10.1/nios2eds/bin/gnu/h-i686-mingw32/bin/../lib/gcc/nios2-elf/4.1.2\libgcc.a(_fpcmp_parts_sf.o)
 .bss           0x00814f80        0x0 c:/altera/10.1/nios2eds/bin/gnu/h-i686-mingw32/bin/../lib/gcc/nios2-elf/4.1.2\libgcc.a(_make_sf.o)
 .bss           0x00814f80        0x0 c:/altera/10.1/nios2eds/bin/gnu/h-i686-mingw32/bin/../lib/gcc/nios2-elf/4.1.2\libgcc.a(_pack_df.o)
 .bss           0x00814f80        0x0 c:/altera/10.1/nios2eds/bin/gnu/h-i686-mingw32/bin/../lib/gcc/nios2-elf/4.1.2\libgcc.a(_unpack_df.o)
 .bss           0x00814f80        0x0 c:/altera/10.1/nios2eds/bin/gnu/h-i686-mingw32/bin/../lib/gcc/nios2-elf/4.1.2\libgcc.a(_fpcmp_parts_df.o)
 .bss           0x00814f80        0x0 c:/altera/10.1/nios2eds/bin/gnu/h-i686-mingw32/bin/../lib/gcc/nios2-elf/4.1.2\libgcc.a(_clz.o)
 .bss           0x00814f80        0x0 c:/altera/10.1/nios2eds/bin/gnu/h-i686-mingw32/bin/../lib/gcc/nios2-elf/4.1.2\libgcc.a(_pack_sf.o)
 .bss           0x00814f80        0x0 c:/altera/10.1/nios2eds/bin/gnu/h-i686-mingw32/bin/../lib/gcc/nios2-elf/4.1.2/../../../../nios2-elf/lib\libc.a(lib_a-printf.o)
 .bss           0x00814f80        0x0 c:/altera/10.1/nios2eds/bin/gnu/h-i686-mingw32/bin/../lib/gcc/nios2-elf/4.1.2/../../../../nios2-elf/lib\libc.a(lib_a-rand.o)
 .bss           0x00814f80        0x0 c:/altera/10.1/nios2eds/bin/gnu/h-i686-mingw32/bin/../lib/gcc/nios2-elf/4.1.2/../../../../nios2-elf/lib\libc.a(lib_a-time.o)
 .bss           0x00814f80        0x0 c:/altera/10.1/nios2eds/bin/gnu/h-i686-mingw32/bin/../lib/gcc/nios2-elf/4.1.2/../../../../nios2-elf/lib\libc.a(lib_a-vfprintf.o)
 .bss           0x00814f80        0x0 c:/altera/10.1/nios2eds/bin/gnu/h-i686-mingw32/bin/../lib/gcc/nios2-elf/4.1.2/../../../../nios2-elf/lib\libc.a(lib_a-wsetup.o)
 .bss           0x00814f80        0x0 c:/altera/10.1/nios2eds/bin/gnu/h-i686-mingw32/bin/../lib/gcc/nios2-elf/4.1.2/../../../../nios2-elf/lib\libc.a(lib_a-dtoa.o)
 .bss           0x00814f80        0x0 c:/altera/10.1/nios2eds/bin/gnu/h-i686-mingw32/bin/../lib/gcc/nios2-elf/4.1.2/../../../../nios2-elf/lib\libc.a(lib_a-fflush.o)
 .bss           0x00814f80        0x0 c:/altera/10.1/nios2eds/bin/gnu/h-i686-mingw32/bin/../lib/gcc/nios2-elf/4.1.2/../../../../nios2-elf/lib\libc.a(lib_a-findfp.o)
 .bss           0x00814f80        0x0 c:/altera/10.1/nios2eds/bin/gnu/h-i686-mingw32/bin/../lib/gcc/nios2-elf/4.1.2/../../../../nios2-elf/lib\libc.a(lib_a-freer.o)
 .bss           0x00814f80        0x0 c:/altera/10.1/nios2eds/bin/gnu/h-i686-mingw32/bin/../lib/gcc/nios2-elf/4.1.2/../../../../nios2-elf/lib\libc.a(lib_a-fvwrite.o)
 .bss           0x00814f80        0x0 c:/altera/10.1/nios2eds/bin/gnu/h-i686-mingw32/bin/../lib/gcc/nios2-elf/4.1.2/../../../../nios2-elf/lib\libc.a(lib_a-fwalk.o)
 .bss           0x00814f80        0x0 c:/altera/10.1/nios2eds/bin/gnu/h-i686-mingw32/bin/../lib/gcc/nios2-elf/4.1.2/../../../../nios2-elf/lib\libc.a(lib_a-gettimeofdayr.o)
 .bss           0x00814f80        0x0 c:/altera/10.1/nios2eds/bin/gnu/h-i686-mingw32/bin/../lib/gcc/nios2-elf/4.1.2/../../../../nios2-elf/lib\libc.a(lib_a-impure.o)
 .bss           0x00814f80        0x0 c:/altera/10.1/nios2eds/bin/gnu/h-i686-mingw32/bin/../lib/gcc/nios2-elf/4.1.2/../../../../nios2-elf/lib\libc.a(lib_a-int_errno.o)
 .bss           0x00814f80        0x0 c:/altera/10.1/nios2eds/bin/gnu/h-i686-mingw32/bin/../lib/gcc/nios2-elf/4.1.2/../../../../nios2-elf/lib\libc.a(lib_a-locale.o)
 .bss           0x00814f80        0x0 c:/altera/10.1/nios2eds/bin/gnu/h-i686-mingw32/bin/../lib/gcc/nios2-elf/4.1.2/../../../../nios2-elf/lib\libc.a(lib_a-makebuf.o)
 .bss           0x00814f80       0x28 c:/altera/10.1/nios2eds/bin/gnu/h-i686-mingw32/bin/../lib/gcc/nios2-elf/4.1.2/../../../../nios2-elf/lib\libc.a(lib_a-mallocr.o)
                0x00814f80                __malloc_current_mallinfo
 .bss           0x00814fa8        0x0 c:/altera/10.1/nios2eds/bin/gnu/h-i686-mingw32/bin/../lib/gcc/nios2-elf/4.1.2/../../../../nios2-elf/lib\libc.a(lib_a-memchr.o)
 .bss           0x00814fa8        0x0 c:/altera/10.1/nios2eds/bin/gnu/h-i686-mingw32/bin/../lib/gcc/nios2-elf/4.1.2/../../../../nios2-elf/lib\libc.a(lib_a-memcpy.o)
 .bss           0x00814fa8        0x0 c:/altera/10.1/nios2eds/bin/gnu/h-i686-mingw32/bin/../lib/gcc/nios2-elf/4.1.2/../../../../nios2-elf/lib\libc.a(lib_a-memmove.o)
 .bss           0x00814fa8        0x0 c:/altera/10.1/nios2eds/bin/gnu/h-i686-mingw32/bin/../lib/gcc/nios2-elf/4.1.2/../../../../nios2-elf/lib\libc.a(lib_a-memset.o)
 .bss           0x00814fa8        0x0 c:/altera/10.1/nios2eds/bin/gnu/h-i686-mingw32/bin/../lib/gcc/nios2-elf/4.1.2/../../../../nios2-elf/lib\libc.a(lib_a-mprec.o)
 .bss           0x00814fa8        0x0 c:/altera/10.1/nios2eds/bin/gnu/h-i686-mingw32/bin/../lib/gcc/nios2-elf/4.1.2/../../../../nios2-elf/lib\libc.a(lib_a-reallocr.o)
 .bss           0x00814fa8        0x0 c:/altera/10.1/nios2eds/bin/gnu/h-i686-mingw32/bin/../lib/gcc/nios2-elf/4.1.2/../../../../nios2-elf/lib\libc.a(lib_a-s_isinfd.o)
 .bss           0x00814fa8        0x0 c:/altera/10.1/nios2eds/bin/gnu/h-i686-mingw32/bin/../lib/gcc/nios2-elf/4.1.2/../../../../nios2-elf/lib\libc.a(lib_a-s_isnand.o)
 .bss           0x00814fa8        0x0 c:/altera/10.1/nios2eds/bin/gnu/h-i686-mingw32/bin/../lib/gcc/nios2-elf/4.1.2/../../../../nios2-elf/lib\libc.a(lib_a-sbrkr.o)
 .bss           0x00814fa8        0x0 c:/altera/10.1/nios2eds/bin/gnu/h-i686-mingw32/bin/../lib/gcc/nios2-elf/4.1.2/../../../../nios2-elf/lib\libc.a(lib_a-stdio.o)
 .bss           0x00814fa8        0x0 c:/altera/10.1/nios2eds/bin/gnu/h-i686-mingw32/bin/../lib/gcc/nios2-elf/4.1.2/../../../../nios2-elf/lib\libc.a(lib_a-strcmp.o)
 .bss           0x00814fa8        0x0 c:/altera/10.1/nios2eds/bin/gnu/h-i686-mingw32/bin/../lib/gcc/nios2-elf/4.1.2/../../../../nios2-elf/lib\libc.a(lib_a-strlen.o)
 .bss           0x00814fa8        0x0 c:/altera/10.1/nios2eds/bin/gnu/h-i686-mingw32/bin/../lib/gcc/nios2-elf/4.1.2/../../../../nios2-elf/lib\libc.a(lib_a-writer.o)
 .bss           0x00814fa8        0x0 c:/altera/10.1/nios2eds/bin/gnu/h-i686-mingw32/bin/../lib/gcc/nios2-elf/4.1.2/../../../../nios2-elf/lib\libc.a(lib_a-callocr.o)
 .bss           0x00814fa8        0x0 c:/altera/10.1/nios2eds/bin/gnu/h-i686-mingw32/bin/../lib/gcc/nios2-elf/4.1.2/../../../../nios2-elf/lib\libc.a(lib_a-closer.o)
 .bss           0x00814fa8        0x0 c:/altera/10.1/nios2eds/bin/gnu/h-i686-mingw32/bin/../lib/gcc/nios2-elf/4.1.2/../../../../nios2-elf/lib\libc.a(lib_a-fclose.o)
 .bss           0x00814fa8        0x0 c:/altera/10.1/nios2eds/bin/gnu/h-i686-mingw32/bin/../lib/gcc/nios2-elf/4.1.2/../../../../nios2-elf/lib\libc.a(lib_a-fstatr.o)
 .bss           0x00814fa8        0x0 c:/altera/10.1/nios2eds/bin/gnu/h-i686-mingw32/bin/../lib/gcc/nios2-elf/4.1.2/../../../../nios2-elf/lib\libc.a(lib_a-isattyr.o)
 .bss           0x00814fa8        0x0 c:/altera/10.1/nios2eds/bin/gnu/h-i686-mingw32/bin/../lib/gcc/nios2-elf/4.1.2/../../../../nios2-elf/lib\libc.a(lib_a-lseekr.o)
 .bss           0x00814fa8        0x0 c:/altera/10.1/nios2eds/bin/gnu/h-i686-mingw32/bin/../lib/gcc/nios2-elf/4.1.2/../../../../nios2-elf/lib\libc.a(lib_a-readr.o)
 .bss           0x00814fa8        0x0 c:/altera/10.1/nios2eds/bin/gnu/h-i686-mingw32/bin/../lib/gcc/nios2-elf/4.1.2\libgcc.a(_muldi3.o)
 .bss           0x00814fa8        0x0 c:/altera/10.1/nios2eds/bin/gnu/h-i686-mingw32/bin/../lib/gcc/nios2-elf/4.1.2\libgcc.a(_udivdi3.o)
 .bss           0x00814fa8        0x0 c:/altera/10.1/nios2eds/bin/gnu/h-i686-mingw32/bin/../lib/gcc/nios2-elf/4.1.2\libgcc.a(_umoddi3.o)
 .bss           0x00814fa8        0x0 c:/altera/10.1/nios2eds/bin/gnu/h-i686-mingw32/bin/../lib/gcc/nios2-elf/4.1.2\libgcc.a(_addsub_df.o)
 .bss           0x00814fa8        0x0 c:/altera/10.1/nios2eds/bin/gnu/h-i686-mingw32/bin/../lib/gcc/nios2-elf/4.1.2\libgcc.a(_mul_df.o)
 .bss           0x00814fa8        0x0 c:/altera/10.1/nios2eds/bin/gnu/h-i686-mingw32/bin/../lib/gcc/nios2-elf/4.1.2\libgcc.a(_eq_df.o)
 .bss           0x00814fa8        0x0 c:/altera/10.1/nios2eds/bin/gnu/h-i686-mingw32/bin/../lib/gcc/nios2-elf/4.1.2\libgcc.a(_ne_df.o)
 .bss           0x00814fa8        0x0 c:/altera/10.1/nios2eds/bin/gnu/h-i686-mingw32/bin/../lib/gcc/nios2-elf/4.1.2\libgcc.a(_ge_df.o)
 .bss           0x00814fa8        0x0 c:/altera/10.1/nios2eds/bin/gnu/h-i686-mingw32/bin/../lib/gcc/nios2-elf/4.1.2\libgcc.a(_df_to_si.o)
 .bss           0x00814fa8        0x0 c:/altera/10.1/nios2eds/bin/gnu/h-i686-mingw32/bin/../lib/gcc/nios2-elf/4.1.2\libgcc.a(_usi_to_df.o)
 .bss           0x00814fa8        0x0 ../hi_bsp\libhal_bsp.a(alt_close.o)
 .bss           0x00814fa8        0x0 ../hi_bsp\libhal_bsp.a(alt_dev.o)
 .bss           0x00814fa8        0x0 ../hi_bsp\libhal_bsp.a(alt_errno.o)
 .bss           0x00814fa8        0x0 ../hi_bsp\libhal_bsp.a(alt_fstat.o)
 .bss           0x00814fa8        0x0 ../hi_bsp\libhal_bsp.a(alt_gettod.o)
 .bss           0x00814fa8        0x0 ../hi_bsp\libhal_bsp.a(alt_isatty.o)
 .bss           0x00814fa8        0x0 ../hi_bsp\libhal_bsp.a(alt_lseek.o)
 .bss           0x00814fa8        0x0 ../hi_bsp\libhal_bsp.a(alt_main.o)
 .bss           0x00814fa8        0x0 ../hi_bsp\libhal_bsp.a(alt_malloc_lock.o)
 .bss           0x00814fa8        0x0 ../hi_bsp\libhal_bsp.a(alt_printf.o)
 .bss           0x00814fa8        0x0 ../hi_bsp\libhal_bsp.a(alt_putchar.o)
 .bss           0x00814fa8        0x0 ../hi_bsp\libhal_bsp.a(alt_read.o)
 .bss           0x00814fa8        0x0 ../hi_bsp\libhal_bsp.a(alt_release_fd.o)
 .bss           0x00814fa8        0x0 ../hi_bsp\libhal_bsp.a(alt_sbrk.o)
 .bss           0x00814fa8        0x0 ../hi_bsp\libhal_bsp.a(alt_tick.o)
 .bss           0x00814fa8        0x0 ../hi_bsp\libhal_bsp.a(alt_usleep.o)
 .bss           0x00814fa8        0x0 ../hi_bsp\libhal_bsp.a(alt_write.o)
 .bss           0x00814fa8        0x0 ../hi_bsp\libhal_bsp.a(alt_sys_init.o)
 .bss           0x00814fa8        0x0 ../hi_bsp\libhal_bsp.a(altera_avalon_cfi_flash.o)
 .bss           0x00814fa8        0x0 ../hi_bsp\libhal_bsp.a(altera_avalon_cfi_flash_table.o)
 .bss           0x00814fa8        0x0 ../hi_bsp\libhal_bsp.a(altera_avalon_jtag_uart_fd.o)
 .bss           0x00814fa8        0x0 ../hi_bsp\libhal_bsp.a(altera_avalon_jtag_uart_init.o)
 .bss           0x00814fa8        0x0 ../hi_bsp\libhal_bsp.a(altera_avalon_jtag_uart_ioctl.o)
 .bss           0x00814fa8        0x0 ../hi_bsp\libhal_bsp.a(altera_avalon_jtag_uart_read.o)
 .bss           0x00814fa8        0x0 ../hi_bsp\libhal_bsp.a(altera_avalon_jtag_uart_write.o)
 .bss           0x00814fa8        0x0 ../hi_bsp\libhal_bsp.a(altera_avalon_spi.o)
 .bss           0x00814fa8        0x0 ../hi_bsp\libhal_bsp.a(altera_avalon_timer_sc.o)
 .bss           0x00814fa8        0x0 ../hi_bsp\libhal_bsp.a(altera_avalon_uart_fd.o)
 .bss           0x00814fa8        0x0 ../hi_bsp\libhal_bsp.a(altera_avalon_uart_init.o)
 .bss           0x00814fa8        0x0 ../hi_bsp\libhal_bsp.a(altera_avalon_uart_read.o)
 .bss           0x00814fa8        0x0 ../hi_bsp\libhal_bsp.a(altera_avalon_uart_write.o)
 .bss           0x00814fa8        0x0 ../hi_bsp\libhal_bsp.a(altera_up_avalon_ps2.o)
 .bss           0x00814fa8        0x0 ../hi_bsp\libhal_bsp.a(altera_up_avalon_video_character_buffer_with_dma.o)
 .bss           0x00814fa8        0x0 ../hi_bsp\libhal_bsp.a(altera_up_ps2_keyboard.o)
 .bss           0x00814fa8        0x0 ../hi_bsp\libhal_bsp.a(alt_alarm_start.o)
 .bss           0x00814fa8        0x0 ../hi_bsp\libhal_bsp.a(alt_busy_sleep.o)
 .bss           0x00814fa8        0x0 ../hi_bsp\libhal_bsp.a(alt_dcache_flush.o)
 .bss           0x00814fa8        0x0 ../hi_bsp\libhal_bsp.a(alt_dev_llist_insert.o)
 .bss           0x00814fa8        0x0 ../hi_bsp\libhal_bsp.a(alt_do_ctors.o)
 .bss           0x00814fa8        0x0 ../hi_bsp\libhal_bsp.a(alt_do_dtors.o)
 .bss           0x00814fa8        0x0 ../hi_bsp\libhal_bsp.a(alt_find_dev.o)
 .bss           0x00814fa8        0x0 ../hi_bsp\libhal_bsp.a(alt_flash_dev.o)
 .bss           0x00814fa8        0x0 ../hi_bsp\libhal_bsp.a(alt_io_redirect.o)
 .bss           0x00814fa8        0x0 ../hi_bsp\libhal_bsp.a(alt_irq_register.o)
 .bss           0x00814fa8        0x0 ../hi_bsp\libhal_bsp.a(alt_irq_vars.o)
 .bss           0x00814fa8        0x0 ../hi_bsp\libhal_bsp.a(alt_open.o)
 .bss           0x00814fa8        0x0 ../hi_bsp\libhal_bsp.a(altera_nios2_irq.o)
 .bss           0x00814fa8        0x0 ../hi_bsp\libhal_bsp.a(altera_avalon_cfi_flash_amd.o)
 .bss           0x00814fa8        0x0 ../hi_bsp\libhal_bsp.a(altera_avalon_cfi_flash_intel.o)
 .bss           0x00814fa8        0x0 ../hi_bsp\libhal_bsp.a(alt_find_file.o)
 .bss           0x00814fa8        0x0 ../hi_bsp\libhal_bsp.a(alt_get_fd.o)
 .bss           0x00814fa8        0x0 ../hi_bsp\libhal_bsp.a(alt_irq_entry.o)
 .bss           0x00814fa8        0x0 ../hi_bsp\libhal_bsp.a(alt_irq_handler.o)
 .bss           0x00814fa8        0x0 ../hi_bsp\libhal_bsp.a(alt_exception_entry.o)
 .bss           0x00814fa8        0x0 c:/altera/10.1/nios2eds/bin/gnu/h-i686-mingw32/bin/../lib/gcc/nios2-elf/4.1.2/../../../../nios2-elf/lib\libc.a(lib_a-atexit.o)
 .bss           0x00814fa8        0x0 c:/altera/10.1/nios2eds/bin/gnu/h-i686-mingw32/bin/../lib/gcc/nios2-elf/4.1.2/../../../../nios2-elf/lib\libc.a(lib_a-exit.o)
 .bss           0x00814fa8        0x0 c:/altera/10.1/nios2eds/bin/gnu/h-i686-mingw32/bin/../lib/gcc/nios2-elf/4.1.2/../../../../nios2-elf/lib\libc.a(lib_a-memcmp.o)
 .bss           0x00814fa8        0x0 c:/altera/10.1/nios2eds/bin/gnu/h-i686-mingw32/bin/../lib/gcc/nios2-elf/4.1.2/../../../../nios2-elf/lib\libc.a(lib_a-putc.o)
 .bss           0x00814fa8        0x0 c:/altera/10.1/nios2eds/bin/gnu/h-i686-mingw32/bin/../lib/gcc/nios2-elf/4.1.2/../../../../nios2-elf/lib\libc.a(lib_a-strcpy.o)
 .bss           0x00814fa8        0x0 c:/altera/10.1/nios2eds/bin/gnu/h-i686-mingw32/bin/../lib/gcc/nios2-elf/4.1.2/../../../../nios2-elf/lib\libc.a(lib_a-wbuf.o)
 .bss           0x00814fa8        0x0 c:/altera/10.1/nios2eds/bin/gnu/h-i686-mingw32/bin/../lib/gcc/nios2-elf/4.1.2/../../../../nios2-elf/lib\libc.a(lib_a-__atexit.o)
 .bss           0x00814fa8        0x0 c:/altera/10.1/nios2eds/bin/gnu/h-i686-mingw32/bin/../lib/gcc/nios2-elf/4.1.2/../../../../nios2-elf/lib\libc.a(lib_a-__call_atexit.o)
 .bss           0x00814fa8        0x0 ../hi_bsp\libhal_bsp.a(alt_exit.o)
 *(COMMON)
 COMMON         0x00814fa8     0x1738 obj/hello_world.o
                0x00814fa8                snake
                0x00816268                map
 COMMON         0x008166e0      0x100 ../hi_bsp\libhal_bsp.a(alt_irq_handler.o)
                0x008166e0                alt_irq
 COMMON         0x008167e0      0x190 c:/altera/10.1/nios2eds/bin/gnu/h-i686-mingw32/bin/../lib/gcc/nios2-elf/4.1.2/../../../../nios2-elf/lib\libc.a(lib_a-atexit.o)
                0x008167e0                _atexit0
                0x00816970                . = ALIGN (0x4)
                0x00816970                __bss_end = ABSOLUTE (.)

.sdram          0x00816970        0x0
                0x00816970                PROVIDE (_alt_partition_sdram_start, ABSOLUTE (.))
 *(.sdram. sdram.*)
                0x00816970                . = ALIGN (0x4)
                0x00816970                PROVIDE (_alt_partition_sdram_end, ABSOLUTE (.))
                0x00816970                _end = ABSOLUTE (.)
                0x00816970                end = ABSOLUTE (.)
                0x00816970                __alt_stack_base = ABSOLUTE (.)
                0x00816970                PROVIDE (_alt_partition_sdram_load_addr, LOADADDR (.sdram))

.cfi_flash      0x01400020        0x0
                0x01400020                PROVIDE (_alt_partition_cfi_flash_start, ABSOLUTE (.))
 *(.cfi_flash. cfi_flash.*)
                0x01400020                . = ALIGN (0x4)
                0x01400020                PROVIDE (_alt_partition_cfi_flash_end, ABSOLUTE (.))
                0x01400020                PROVIDE (_alt_partition_cfi_flash_load_addr, LOADADDR (.cfi_flash))

.onchip_memory  0x01800000        0x0
                0x01800000                PROVIDE (_alt_partition_onchip_memory_start, ABSOLUTE (.))
 *(.onchip_memory. onchip_memory.*)
                0x01800000                . = ALIGN (0x4)
                0x01800000                PROVIDE (_alt_partition_onchip_memory_end, ABSOLUTE (.))
                0x01800000                PROVIDE (_alt_partition_onchip_memory_load_addr, LOADADDR (.onchip_memory))

.stab
 *(.stab)

.stabstr
 *(.stabstr)

.stab.excl
 *(.stab.excl)

.stab.exclstr
 *(.stab.exclstr)

.stab.index
 *(.stab.index)

.stab.indexstr
 *(.stab.indexstr)

.comment        0x00000000       0x23
 *(.comment)
 .comment       0x00000000       0x23 obj/hello_world.o
                                 0x24 (size before relaxing)
 .comment       0x00000000       0x24 c:/altera/10.1/nios2eds/bin/gnu/h-i686-mingw32/bin/../lib/gcc/nios2-elf/4.1.2\libgcc.a(_gt_sf.o)
 .comment       0x00000000       0x24 c:/altera/10.1/nios2eds/bin/gnu/h-i686-mingw32/bin/../lib/gcc/nios2-elf/4.1.2\libgcc.a(_lt_sf.o)
 .comment       0x00000000       0x24 c:/altera/10.1/nios2eds/bin/gnu/h-i686-mingw32/bin/../lib/gcc/nios2-elf/4.1.2\libgcc.a(_sf_to_df.o)
 .comment       0x00000000       0x24 c:/altera/10.1/nios2eds/bin/gnu/h-i686-mingw32/bin/../lib/gcc/nios2-elf/4.1.2\libgcc.a(_div_df.o)
 .comment       0x00000000       0x24 c:/altera/10.1/nios2eds/bin/gnu/h-i686-mingw32/bin/../lib/gcc/nios2-elf/4.1.2\libgcc.a(_gt_df.o)
 .comment       0x00000000       0x24 c:/altera/10.1/nios2eds/bin/gnu/h-i686-mingw32/bin/../lib/gcc/nios2-elf/4.1.2\libgcc.a(_lt_df.o)
 .comment       0x00000000       0x24 c:/altera/10.1/nios2eds/bin/gnu/h-i686-mingw32/bin/../lib/gcc/nios2-elf/4.1.2\libgcc.a(_si_to_df.o)
 .comment       0x00000000       0x24 c:/altera/10.1/nios2eds/bin/gnu/h-i686-mingw32/bin/../lib/gcc/nios2-elf/4.1.2\libgcc.a(_make_df.o)
 .comment       0x00000000       0x24 c:/altera/10.1/nios2eds/bin/gnu/h-i686-mingw32/bin/../lib/gcc/nios2-elf/4.1.2\libgcc.a(_df_to_sf.o)
 .comment       0x00000000       0x24 c:/altera/10.1/nios2eds/bin/gnu/h-i686-mingw32/bin/../lib/gcc/nios2-elf/4.1.2\libgcc.a(_thenan_df.o)
 .comment       0x00000000       0x24 c:/altera/10.1/nios2eds/bin/gnu/h-i686-mingw32/bin/../lib/gcc/nios2-elf/4.1.2\libgcc.a(lib2-divmod.o)
 .comment       0x00000000       0x24 c:/altera/10.1/nios2eds/bin/gnu/h-i686-mingw32/bin/../lib/gcc/nios2-elf/4.1.2\libgcc.a(_clzsi2.o)
 .comment       0x00000000       0x24 c:/altera/10.1/nios2eds/bin/gnu/h-i686-mingw32/bin/../lib/gcc/nios2-elf/4.1.2\libgcc.a(_unpack_sf.o)
 .comment       0x00000000       0x24 c:/altera/10.1/nios2eds/bin/gnu/h-i686-mingw32/bin/../lib/gcc/nios2-elf/4.1.2\libgcc.a(_fpcmp_parts_sf.o)
 .comment       0x00000000       0x24 c:/altera/10.1/nios2eds/bin/gnu/h-i686-mingw32/bin/../lib/gcc/nios2-elf/4.1.2\libgcc.a(_make_sf.o)
 .comment       0x00000000       0x24 c:/altera/10.1/nios2eds/bin/gnu/h-i686-mingw32/bin/../lib/gcc/nios2-elf/4.1.2\libgcc.a(_pack_df.o)
 .comment       0x00000000       0x24 c:/altera/10.1/nios2eds/bin/gnu/h-i686-mingw32/bin/../lib/gcc/nios2-elf/4.1.2\libgcc.a(_unpack_df.o)
 .comment       0x00000000       0x24 c:/altera/10.1/nios2eds/bin/gnu/h-i686-mingw32/bin/../lib/gcc/nios2-elf/4.1.2\libgcc.a(_fpcmp_parts_df.o)
 .comment       0x00000000       0x24 c:/altera/10.1/nios2eds/bin/gnu/h-i686-mingw32/bin/../lib/gcc/nios2-elf/4.1.2\libgcc.a(_clz.o)
 .comment       0x00000000       0x24 c:/altera/10.1/nios2eds/bin/gnu/h-i686-mingw32/bin/../lib/gcc/nios2-elf/4.1.2\libgcc.a(_pack_sf.o)
 .comment       0x00000000       0x24 c:/altera/10.1/nios2eds/bin/gnu/h-i686-mingw32/bin/../lib/gcc/nios2-elf/4.1.2/../../../../nios2-elf/lib\libc.a(lib_a-printf.o)
 .comment       0x00000000       0x24 c:/altera/10.1/nios2eds/bin/gnu/h-i686-mingw32/bin/../lib/gcc/nios2-elf/4.1.2/../../../../nios2-elf/lib\libc.a(lib_a-rand.o)
 .comment       0x00000000       0x24 c:/altera/10.1/nios2eds/bin/gnu/h-i686-mingw32/bin/../lib/gcc/nios2-elf/4.1.2/../../../../nios2-elf/lib\libc.a(lib_a-time.o)
 .comment       0x00000000       0x24 c:/altera/10.1/nios2eds/bin/gnu/h-i686-mingw32/bin/../lib/gcc/nios2-elf/4.1.2/../../../../nios2-elf/lib\libc.a(lib_a-vfprintf.o)
 .comment       0x00000000       0x24 c:/altera/10.1/nios2eds/bin/gnu/h-i686-mingw32/bin/../lib/gcc/nios2-elf/4.1.2/../../../../nios2-elf/lib\libc.a(lib_a-wsetup.o)
 .comment       0x00000000       0x24 c:/altera/10.1/nios2eds/bin/gnu/h-i686-mingw32/bin/../lib/gcc/nios2-elf/4.1.2/../../../../nios2-elf/lib\libc.a(lib_a-dtoa.o)
 .comment       0x00000000       0x24 c:/altera/10.1/nios2eds/bin/gnu/h-i686-mingw32/bin/../lib/gcc/nios2-elf/4.1.2/../../../../nios2-elf/lib\libc.a(lib_a-fflush.o)
 .comment       0x00000000       0x24 c:/altera/10.1/nios2eds/bin/gnu/h-i686-mingw32/bin/../lib/gcc/nios2-elf/4.1.2/../../../../nios2-elf/lib\libc.a(lib_a-findfp.o)
 .comment       0x00000000       0x24 c:/altera/10.1/nios2eds/bin/gnu/h-i686-mingw32/bin/../lib/gcc/nios2-elf/4.1.2/../../../../nios2-elf/lib\libc.a(lib_a-freer.o)
 .comment       0x00000000       0x24 c:/altera/10.1/nios2eds/bin/gnu/h-i686-mingw32/bin/../lib/gcc/nios2-elf/4.1.2/../../../../nios2-elf/lib\libc.a(lib_a-fvwrite.o)
 .comment       0x00000000       0x24 c:/altera/10.1/nios2eds/bin/gnu/h-i686-mingw32/bin/../lib/gcc/nios2-elf/4.1.2/../../../../nios2-elf/lib\libc.a(lib_a-fwalk.o)
 .comment       0x00000000       0x24 c:/altera/10.1/nios2eds/bin/gnu/h-i686-mingw32/bin/../lib/gcc/nios2-elf/4.1.2/../../../../nios2-elf/lib\libc.a(lib_a-gettimeofdayr.o)
 .comment       0x00000000       0x24 c:/altera/10.1/nios2eds/bin/gnu/h-i686-mingw32/bin/../lib/gcc/nios2-elf/4.1.2/../../../../nios2-elf/lib\libc.a(lib_a-impure.o)
 .comment       0x00000000       0x24 c:/altera/10.1/nios2eds/bin/gnu/h-i686-mingw32/bin/../lib/gcc/nios2-elf/4.1.2/../../../../nios2-elf/lib\libc.a(lib_a-int_errno.o)
 .comment       0x00000000       0x24 c:/altera/10.1/nios2eds/bin/gnu/h-i686-mingw32/bin/../lib/gcc/nios2-elf/4.1.2/../../../../nios2-elf/lib\libc.a(lib_a-locale.o)
 .comment       0x00000000       0x24 c:/altera/10.1/nios2eds/bin/gnu/h-i686-mingw32/bin/../lib/gcc/nios2-elf/4.1.2/../../../../nios2-elf/lib\libc.a(lib_a-makebuf.o)
 .comment       0x00000000       0x24 c:/altera/10.1/nios2eds/bin/gnu/h-i686-mingw32/bin/../lib/gcc/nios2-elf/4.1.2/../../../../nios2-elf/lib\libc.a(lib_a-mallocr.o)
 .comment       0x00000000       0x24 c:/altera/10.1/nios2eds/bin/gnu/h-i686-mingw32/bin/../lib/gcc/nios2-elf/4.1.2/../../../../nios2-elf/lib\libc.a(lib_a-memchr.o)
 .comment       0x00000000       0x24 c:/altera/10.1/nios2eds/bin/gnu/h-i686-mingw32/bin/../lib/gcc/nios2-elf/4.1.2/../../../../nios2-elf/lib\libc.a(lib_a-memcpy.o)
 .comment       0x00000000       0x24 c:/altera/10.1/nios2eds/bin/gnu/h-i686-mingw32/bin/../lib/gcc/nios2-elf/4.1.2/../../../../nios2-elf/lib\libc.a(lib_a-memmove.o)
 .comment       0x00000000       0x24 c:/altera/10.1/nios2eds/bin/gnu/h-i686-mingw32/bin/../lib/gcc/nios2-elf/4.1.2/../../../../nios2-elf/lib\libc.a(lib_a-memset.o)
 .comment       0x00000000       0x24 c:/altera/10.1/nios2eds/bin/gnu/h-i686-mingw32/bin/../lib/gcc/nios2-elf/4.1.2/../../../../nios2-elf/lib\libc.a(lib_a-mprec.o)
 .comment       0x00000000       0x24 c:/altera/10.1/nios2eds/bin/gnu/h-i686-mingw32/bin/../lib/gcc/nios2-elf/4.1.2/../../../../nios2-elf/lib\libc.a(lib_a-reallocr.o)
 .comment       0x00000000       0x24 c:/altera/10.1/nios2eds/bin/gnu/h-i686-mingw32/bin/../lib/gcc/nios2-elf/4.1.2/../../../../nios2-elf/lib\libc.a(lib_a-s_isinfd.o)
 .comment       0x00000000       0x24 c:/altera/10.1/nios2eds/bin/gnu/h-i686-mingw32/bin/../lib/gcc/nios2-elf/4.1.2/../../../../nios2-elf/lib\libc.a(lib_a-s_isnand.o)
 .comment       0x00000000       0x24 c:/altera/10.1/nios2eds/bin/gnu/h-i686-mingw32/bin/../lib/gcc/nios2-elf/4.1.2/../../../../nios2-elf/lib\libc.a(lib_a-sbrkr.o)
 .comment       0x00000000       0x24 c:/altera/10.1/nios2eds/bin/gnu/h-i686-mingw32/bin/../lib/gcc/nios2-elf/4.1.2/../../../../nios2-elf/lib\libc.a(lib_a-stdio.o)
 .comment       0x00000000       0x24 c:/altera/10.1/nios2eds/bin/gnu/h-i686-mingw32/bin/../lib/gcc/nios2-elf/4.1.2/../../../../nios2-elf/lib\libc.a(lib_a-strcmp.o)
 .comment       0x00000000       0x24 c:/altera/10.1/nios2eds/bin/gnu/h-i686-mingw32/bin/../lib/gcc/nios2-elf/4.1.2/../../../../nios2-elf/lib\libc.a(lib_a-strlen.o)
 .comment       0x00000000       0x24 c:/altera/10.1/nios2eds/bin/gnu/h-i686-mingw32/bin/../lib/gcc/nios2-elf/4.1.2/../../../../nios2-elf/lib\libc.a(lib_a-writer.o)
 .comment       0x00000000       0x24 c:/altera/10.1/nios2eds/bin/gnu/h-i686-mingw32/bin/../lib/gcc/nios2-elf/4.1.2/../../../../nios2-elf/lib\libc.a(lib_a-callocr.o)
 .comment       0x00000000       0x24 c:/altera/10.1/nios2eds/bin/gnu/h-i686-mingw32/bin/../lib/gcc/nios2-elf/4.1.2/../../../../nios2-elf/lib\libc.a(lib_a-closer.o)
 .comment       0x00000000       0x24 c:/altera/10.1/nios2eds/bin/gnu/h-i686-mingw32/bin/../lib/gcc/nios2-elf/4.1.2/../../../../nios2-elf/lib\libc.a(lib_a-fclose.o)
 .comment       0x00000000       0x24 c:/altera/10.1/nios2eds/bin/gnu/h-i686-mingw32/bin/../lib/gcc/nios2-elf/4.1.2/../../../../nios2-elf/lib\libc.a(lib_a-fstatr.o)
 .comment       0x00000000       0x24 c:/altera/10.1/nios2eds/bin/gnu/h-i686-mingw32/bin/../lib/gcc/nios2-elf/4.1.2/../../../../nios2-elf/lib\libc.a(lib_a-isattyr.o)
 .comment       0x00000000       0x24 c:/altera/10.1/nios2eds/bin/gnu/h-i686-mingw32/bin/../lib/gcc/nios2-elf/4.1.2/../../../../nios2-elf/lib\libc.a(lib_a-lseekr.o)
 .comment       0x00000000       0x24 c:/altera/10.1/nios2eds/bin/gnu/h-i686-mingw32/bin/../lib/gcc/nios2-elf/4.1.2/../../../../nios2-elf/lib\libc.a(lib_a-readr.o)
 .comment       0x00000000       0x24 c:/altera/10.1/nios2eds/bin/gnu/h-i686-mingw32/bin/../lib/gcc/nios2-elf/4.1.2\libgcc.a(_muldi3.o)
 .comment       0x00000000       0x24 c:/altera/10.1/nios2eds/bin/gnu/h-i686-mingw32/bin/../lib/gcc/nios2-elf/4.1.2\libgcc.a(_udivdi3.o)
 .comment       0x00000000       0x24 c:/altera/10.1/nios2eds/bin/gnu/h-i686-mingw32/bin/../lib/gcc/nios2-elf/4.1.2\libgcc.a(_umoddi3.o)
 .comment       0x00000000       0x24 c:/altera/10.1/nios2eds/bin/gnu/h-i686-mingw32/bin/../lib/gcc/nios2-elf/4.1.2\libgcc.a(_addsub_df.o)
 .comment       0x00000000       0x24 c:/altera/10.1/nios2eds/bin/gnu/h-i686-mingw32/bin/../lib/gcc/nios2-elf/4.1.2\libgcc.a(_mul_df.o)
 .comment       0x00000000       0x24 c:/altera/10.1/nios2eds/bin/gnu/h-i686-mingw32/bin/../lib/gcc/nios2-elf/4.1.2\libgcc.a(_eq_df.o)
 .comment       0x00000000       0x24 c:/altera/10.1/nios2eds/bin/gnu/h-i686-mingw32/bin/../lib/gcc/nios2-elf/4.1.2\libgcc.a(_ne_df.o)
 .comment       0x00000000       0x24 c:/altera/10.1/nios2eds/bin/gnu/h-i686-mingw32/bin/../lib/gcc/nios2-elf/4.1.2\libgcc.a(_ge_df.o)
 .comment       0x00000000       0x24 c:/altera/10.1/nios2eds/bin/gnu/h-i686-mingw32/bin/../lib/gcc/nios2-elf/4.1.2\libgcc.a(_df_to_si.o)
 .comment       0x00000000       0x24 c:/altera/10.1/nios2eds/bin/gnu/h-i686-mingw32/bin/../lib/gcc/nios2-elf/4.1.2\libgcc.a(_usi_to_df.o)
 .comment       0x00000000       0x24 ../hi_bsp\libhal_bsp.a(alt_close.o)
 .comment       0x00000000       0x24 ../hi_bsp\libhal_bsp.a(alt_dev.o)
 .comment       0x00000000       0x24 ../hi_bsp\libhal_bsp.a(alt_errno.o)
 .comment       0x00000000       0x24 ../hi_bsp\libhal_bsp.a(alt_fstat.o)
 .comment       0x00000000       0x24 ../hi_bsp\libhal_bsp.a(alt_gettod.o)
 .comment       0x00000000       0x24 ../hi_bsp\libhal_bsp.a(alt_isatty.o)
 .comment       0x00000000       0x24 ../hi_bsp\libhal_bsp.a(alt_lseek.o)
 .comment       0x00000000       0x24 ../hi_bsp\libhal_bsp.a(alt_main.o)
 .comment       0x00000000       0x24 ../hi_bsp\libhal_bsp.a(alt_malloc_lock.o)
 .comment       0x00000000       0x24 ../hi_bsp\libhal_bsp.a(alt_printf.o)
 .comment       0x00000000       0x24 ../hi_bsp\libhal_bsp.a(alt_putchar.o)
 .comment       0x00000000       0x24 ../hi_bsp\libhal_bsp.a(alt_read.o)
 .comment       0x00000000       0x24 ../hi_bsp\libhal_bsp.a(alt_release_fd.o)
 .comment       0x00000000       0x24 ../hi_bsp\libhal_bsp.a(alt_sbrk.o)
 .comment       0x00000000       0x24 ../hi_bsp\libhal_bsp.a(alt_tick.o)
 .comment       0x00000000       0x24 ../hi_bsp\libhal_bsp.a(alt_usleep.o)
 .comment       0x00000000       0x24 ../hi_bsp\libhal_bsp.a(alt_write.o)
 .comment       0x00000000       0x24 ../hi_bsp\libhal_bsp.a(alt_sys_init.o)
 .comment       0x00000000       0x24 ../hi_bsp\libhal_bsp.a(altera_avalon_cfi_flash.o)
 .comment       0x00000000       0x24 ../hi_bsp\libhal_bsp.a(altera_avalon_cfi_flash_table.o)
 .comment       0x00000000       0x24 ../hi_bsp\libhal_bsp.a(altera_avalon_jtag_uart_fd.o)
 .comment       0x00000000       0x24 ../hi_bsp\libhal_bsp.a(altera_avalon_jtag_uart_init.o)
 .comment       0x00000000       0x24 ../hi_bsp\libhal_bsp.a(altera_avalon_jtag_uart_ioctl.o)
 .comment       0x00000000       0x24 ../hi_bsp\libhal_bsp.a(altera_avalon_jtag_uart_read.o)
 .comment       0x00000000       0x24 ../hi_bsp\libhal_bsp.a(altera_avalon_jtag_uart_write.o)
 .comment       0x00000000       0x24 ../hi_bsp\libhal_bsp.a(altera_avalon_spi.o)
 .comment       0x00000000       0x24 ../hi_bsp\libhal_bsp.a(altera_avalon_timer_sc.o)
 .comment       0x00000000       0x24 ../hi_bsp\libhal_bsp.a(altera_avalon_uart_fd.o)
 .comment       0x00000000       0x24 ../hi_bsp\libhal_bsp.a(altera_avalon_uart_init.o)
 .comment       0x00000000       0x24 ../hi_bsp\libhal_bsp.a(altera_avalon_uart_read.o)
 .comment       0x00000000       0x24 ../hi_bsp\libhal_bsp.a(altera_avalon_uart_write.o)
 .comment       0x00000000       0x24 ../hi_bsp\libhal_bsp.a(altera_up_avalon_ps2.o)
 .comment       0x00000000       0x24 ../hi_bsp\libhal_bsp.a(altera_up_avalon_video_character_buffer_with_dma.o)
 .comment       0x00000000       0x24 ../hi_bsp\libhal_bsp.a(altera_up_ps2_keyboard.o)
 .comment       0x00000000       0x24 ../hi_bsp\libhal_bsp.a(alt_alarm_start.o)
 .comment       0x00000000       0x24 ../hi_bsp\libhal_bsp.a(alt_busy_sleep.o)
 .comment       0x00000000       0x24 ../hi_bsp\libhal_bsp.a(alt_dcache_flush.o)
 .comment       0x00000000       0x24 ../hi_bsp\libhal_bsp.a(alt_dev_llist_insert.o)
 .comment       0x00000000       0x24 ../hi_bsp\libhal_bsp.a(alt_do_ctors.o)
 .comment       0x00000000       0x24 ../hi_bsp\libhal_bsp.a(alt_do_dtors.o)
 .comment       0x00000000       0x24 ../hi_bsp\libhal_bsp.a(alt_find_dev.o)
 .comment       0x00000000       0x24 ../hi_bsp\libhal_bsp.a(alt_flash_dev.o)
 .comment       0x00000000       0x24 ../hi_bsp\libhal_bsp.a(alt_io_redirect.o)
 .comment       0x00000000       0x24 ../hi_bsp\libhal_bsp.a(alt_irq_register.o)
 .comment       0x00000000       0x24 ../hi_bsp\libhal_bsp.a(alt_irq_vars.o)
 .comment       0x00000000       0x24 ../hi_bsp\libhal_bsp.a(alt_open.o)
 .comment       0x00000000       0x24 ../hi_bsp\libhal_bsp.a(altera_nios2_irq.o)
 .comment       0x00000000       0x24 ../hi_bsp\libhal_bsp.a(altera_avalon_cfi_flash_amd.o)
 .comment       0x00000000       0x24 ../hi_bsp\libhal_bsp.a(altera_avalon_cfi_flash_intel.o)
 .comment       0x00000000       0x24 ../hi_bsp\libhal_bsp.a(alt_find_file.o)
 .comment       0x00000000       0x24 ../hi_bsp\libhal_bsp.a(alt_get_fd.o)
 .comment       0x00000000       0x24 ../hi_bsp\libhal_bsp.a(alt_irq_handler.o)
 .comment       0x00000000       0x24 c:/altera/10.1/nios2eds/bin/gnu/h-i686-mingw32/bin/../lib/gcc/nios2-elf/4.1.2/../../../../nios2-elf/lib\libc.a(lib_a-atexit.o)
 .comment       0x00000000       0x24 c:/altera/10.1/nios2eds/bin/gnu/h-i686-mingw32/bin/../lib/gcc/nios2-elf/4.1.2/../../../../nios2-elf/lib\libc.a(lib_a-exit.o)
 .comment       0x00000000       0x24 c:/altera/10.1/nios2eds/bin/gnu/h-i686-mingw32/bin/../lib/gcc/nios2-elf/4.1.2/../../../../nios2-elf/lib\libc.a(lib_a-memcmp.o)
 .comment       0x00000000       0x24 c:/altera/10.1/nios2eds/bin/gnu/h-i686-mingw32/bin/../lib/gcc/nios2-elf/4.1.2/../../../../nios2-elf/lib\libc.a(lib_a-putc.o)
 .comment       0x00000000       0x24 c:/altera/10.1/nios2eds/bin/gnu/h-i686-mingw32/bin/../lib/gcc/nios2-elf/4.1.2/../../../../nios2-elf/lib\libc.a(lib_a-strcpy.o)
 .comment       0x00000000       0x24 c:/altera/10.1/nios2eds/bin/gnu/h-i686-mingw32/bin/../lib/gcc/nios2-elf/4.1.2/../../../../nios2-elf/lib\libc.a(lib_a-wbuf.o)
 .comment       0x00000000       0x24 c:/altera/10.1/nios2eds/bin/gnu/h-i686-mingw32/bin/../lib/gcc/nios2-elf/4.1.2/../../../../nios2-elf/lib\libc.a(lib_a-__atexit.o)
 .comment       0x00000000       0x24 c:/altera/10.1/nios2eds/bin/gnu/h-i686-mingw32/bin/../lib/gcc/nios2-elf/4.1.2/../../../../nios2-elf/lib\libc.a(lib_a-__call_atexit.o)
 .comment       0x00000000       0x24 ../hi_bsp\libhal_bsp.a(alt_exit.o)

.debug
 *(.debug)

.line
 *(.line)

.debug_srcinfo
 *(.debug_srcinfo)

.debug_sfnames
 *(.debug_sfnames)

.debug_aranges  0x00000000      0xff0
 *(.debug_aranges)
 .debug_aranges
                0x00000000       0x20 ../hi_bsp/obj/HAL/src/crt0.o
 .debug_aranges
                0x00000020       0x20 obj/hello_world.o
 .debug_aranges
                0x00000040       0x20 c:/altera/10.1/nios2eds/bin/gnu/h-i686-mingw32/bin/../lib/gcc/nios2-elf/4.1.2\libgcc.a(_gt_sf.o)
 .debug_aranges
                0x00000060       0x20 c:/altera/10.1/nios2eds/bin/gnu/h-i686-mingw32/bin/../lib/gcc/nios2-elf/4.1.2\libgcc.a(_lt_sf.o)
 .debug_aranges
                0x00000080       0x20 c:/altera/10.1/nios2eds/bin/gnu/h-i686-mingw32/bin/../lib/gcc/nios2-elf/4.1.2\libgcc.a(_sf_to_df.o)
 .debug_aranges
                0x000000a0       0x20 c:/altera/10.1/nios2eds/bin/gnu/h-i686-mingw32/bin/../lib/gcc/nios2-elf/4.1.2\libgcc.a(_div_df.o)
 .debug_aranges
                0x000000c0       0x20 c:/altera/10.1/nios2eds/bin/gnu/h-i686-mingw32/bin/../lib/gcc/nios2-elf/4.1.2\libgcc.a(_gt_df.o)
 .debug_aranges
                0x000000e0       0x20 c:/altera/10.1/nios2eds/bin/gnu/h-i686-mingw32/bin/../lib/gcc/nios2-elf/4.1.2\libgcc.a(_lt_df.o)
 .debug_aranges
                0x00000100       0x20 c:/altera/10.1/nios2eds/bin/gnu/h-i686-mingw32/bin/../lib/gcc/nios2-elf/4.1.2\libgcc.a(_si_to_df.o)
 .debug_aranges
                0x00000120       0x20 c:/altera/10.1/nios2eds/bin/gnu/h-i686-mingw32/bin/../lib/gcc/nios2-elf/4.1.2\libgcc.a(_make_df.o)
 .debug_aranges
                0x00000140       0x20 c:/altera/10.1/nios2eds/bin/gnu/h-i686-mingw32/bin/../lib/gcc/nios2-elf/4.1.2\libgcc.a(_df_to_sf.o)
 .debug_aranges
                0x00000160       0x20 c:/altera/10.1/nios2eds/bin/gnu/h-i686-mingw32/bin/../lib/gcc/nios2-elf/4.1.2\libgcc.a(lib2-divmod.o)
 .debug_aranges
                0x00000180       0x20 c:/altera/10.1/nios2eds/bin/gnu/h-i686-mingw32/bin/../lib/gcc/nios2-elf/4.1.2\libgcc.a(_clzsi2.o)
 .debug_aranges
                0x000001a0       0x20 c:/altera/10.1/nios2eds/bin/gnu/h-i686-mingw32/bin/../lib/gcc/nios2-elf/4.1.2\libgcc.a(_unpack_sf.o)
 .debug_aranges
                0x000001c0       0x20 c:/altera/10.1/nios2eds/bin/gnu/h-i686-mingw32/bin/../lib/gcc/nios2-elf/4.1.2\libgcc.a(_fpcmp_parts_sf.o)
 .debug_aranges
                0x000001e0       0x20 c:/altera/10.1/nios2eds/bin/gnu/h-i686-mingw32/bin/../lib/gcc/nios2-elf/4.1.2\libgcc.a(_make_sf.o)
 .debug_aranges
                0x00000200       0x20 c:/altera/10.1/nios2eds/bin/gnu/h-i686-mingw32/bin/../lib/gcc/nios2-elf/4.1.2\libgcc.a(_pack_df.o)
 .debug_aranges
                0x00000220       0x20 c:/altera/10.1/nios2eds/bin/gnu/h-i686-mingw32/bin/../lib/gcc/nios2-elf/4.1.2\libgcc.a(_unpack_df.o)
 .debug_aranges
                0x00000240       0x20 c:/altera/10.1/nios2eds/bin/gnu/h-i686-mingw32/bin/../lib/gcc/nios2-elf/4.1.2\libgcc.a(_fpcmp_parts_df.o)
 .debug_aranges
                0x00000260       0x20 c:/altera/10.1/nios2eds/bin/gnu/h-i686-mingw32/bin/../lib/gcc/nios2-elf/4.1.2\libgcc.a(_pack_sf.o)
 .debug_aranges
                0x00000280       0x20 c:/altera/10.1/nios2eds/bin/gnu/h-i686-mingw32/bin/../lib/gcc/nios2-elf/4.1.2/../../../../nios2-elf/lib\libc.a(lib_a-printf.o)
 .debug_aranges
                0x000002a0       0x20 c:/altera/10.1/nios2eds/bin/gnu/h-i686-mingw32/bin/../lib/gcc/nios2-elf/4.1.2/../../../../nios2-elf/lib\libc.a(lib_a-rand.o)
 .debug_aranges
                0x000002c0       0x20 c:/altera/10.1/nios2eds/bin/gnu/h-i686-mingw32/bin/../lib/gcc/nios2-elf/4.1.2/../../../../nios2-elf/lib\libc.a(lib_a-time.o)
 .debug_aranges
                0x000002e0       0x20 c:/altera/10.1/nios2eds/bin/gnu/h-i686-mingw32/bin/../lib/gcc/nios2-elf/4.1.2/../../../../nios2-elf/lib\libc.a(lib_a-vfprintf.o)
 .debug_aranges
                0x00000300       0x20 c:/altera/10.1/nios2eds/bin/gnu/h-i686-mingw32/bin/../lib/gcc/nios2-elf/4.1.2/../../../../nios2-elf/lib\libc.a(lib_a-wsetup.o)
 .debug_aranges
                0x00000320       0x20 c:/altera/10.1/nios2eds/bin/gnu/h-i686-mingw32/bin/../lib/gcc/nios2-elf/4.1.2/../../../../nios2-elf/lib\libc.a(lib_a-dtoa.o)
 .debug_aranges
                0x00000340       0x20 c:/altera/10.1/nios2eds/bin/gnu/h-i686-mingw32/bin/../lib/gcc/nios2-elf/4.1.2/../../../../nios2-elf/lib\libc.a(lib_a-fflush.o)
 .debug_aranges
                0x00000360       0x20 c:/altera/10.1/nios2eds/bin/gnu/h-i686-mingw32/bin/../lib/gcc/nios2-elf/4.1.2/../../../../nios2-elf/lib\libc.a(lib_a-findfp.o)
 .debug_aranges
                0x00000380       0x20 c:/altera/10.1/nios2eds/bin/gnu/h-i686-mingw32/bin/../lib/gcc/nios2-elf/4.1.2/../../../../nios2-elf/lib\libc.a(lib_a-freer.o)
 .debug_aranges
                0x000003a0       0x20 c:/altera/10.1/nios2eds/bin/gnu/h-i686-mingw32/bin/../lib/gcc/nios2-elf/4.1.2/../../../../nios2-elf/lib\libc.a(lib_a-fvwrite.o)
 .debug_aranges
                0x000003c0       0x20 c:/altera/10.1/nios2eds/bin/gnu/h-i686-mingw32/bin/../lib/gcc/nios2-elf/4.1.2/../../../../nios2-elf/lib\libc.a(lib_a-fwalk.o)
 .debug_aranges
                0x000003e0       0x20 c:/altera/10.1/nios2eds/bin/gnu/h-i686-mingw32/bin/../lib/gcc/nios2-elf/4.1.2/../../../../nios2-elf/lib\libc.a(lib_a-gettimeofdayr.o)
 .debug_aranges
                0x00000400       0x20 c:/altera/10.1/nios2eds/bin/gnu/h-i686-mingw32/bin/../lib/gcc/nios2-elf/4.1.2/../../../../nios2-elf/lib\libc.a(lib_a-locale.o)
 .debug_aranges
                0x00000420       0x20 c:/altera/10.1/nios2eds/bin/gnu/h-i686-mingw32/bin/../lib/gcc/nios2-elf/4.1.2/../../../../nios2-elf/lib\libc.a(lib_a-makebuf.o)
 .debug_aranges
                0x00000440       0x20 c:/altera/10.1/nios2eds/bin/gnu/h-i686-mingw32/bin/../lib/gcc/nios2-elf/4.1.2/../../../../nios2-elf/lib\libc.a(lib_a-mallocr.o)
 .debug_aranges
                0x00000460       0x20 c:/altera/10.1/nios2eds/bin/gnu/h-i686-mingw32/bin/../lib/gcc/nios2-elf/4.1.2/../../../../nios2-elf/lib\libc.a(lib_a-memchr.o)
 .debug_aranges
                0x00000480       0x20 c:/altera/10.1/nios2eds/bin/gnu/h-i686-mingw32/bin/../lib/gcc/nios2-elf/4.1.2/../../../../nios2-elf/lib\libc.a(lib_a-memcpy.o)
 .debug_aranges
                0x000004a0       0x20 c:/altera/10.1/nios2eds/bin/gnu/h-i686-mingw32/bin/../lib/gcc/nios2-elf/4.1.2/../../../../nios2-elf/lib\libc.a(lib_a-memmove.o)
 .debug_aranges
                0x000004c0       0x20 c:/altera/10.1/nios2eds/bin/gnu/h-i686-mingw32/bin/../lib/gcc/nios2-elf/4.1.2/../../../../nios2-elf/lib\libc.a(lib_a-memset.o)
 .debug_aranges
                0x000004e0       0x20 c:/altera/10.1/nios2eds/bin/gnu/h-i686-mingw32/bin/../lib/gcc/nios2-elf/4.1.2/../../../../nios2-elf/lib\libc.a(lib_a-mprec.o)
 .debug_aranges
                0x00000500       0x20 c:/altera/10.1/nios2eds/bin/gnu/h-i686-mingw32/bin/../lib/gcc/nios2-elf/4.1.2/../../../../nios2-elf/lib\libc.a(lib_a-reallocr.o)
 .debug_aranges
                0x00000520       0x20 c:/altera/10.1/nios2eds/bin/gnu/h-i686-mingw32/bin/../lib/gcc/nios2-elf/4.1.2/../../../../nios2-elf/lib\libc.a(lib_a-s_isinfd.o)
 .debug_aranges
                0x00000540       0x20 c:/altera/10.1/nios2eds/bin/gnu/h-i686-mingw32/bin/../lib/gcc/nios2-elf/4.1.2/../../../../nios2-elf/lib\libc.a(lib_a-s_isnand.o)
 .debug_aranges
                0x00000560       0x20 c:/altera/10.1/nios2eds/bin/gnu/h-i686-mingw32/bin/../lib/gcc/nios2-elf/4.1.2/../../../../nios2-elf/lib\libc.a(lib_a-sbrkr.o)
 .debug_aranges
                0x00000580       0x20 c:/altera/10.1/nios2eds/bin/gnu/h-i686-mingw32/bin/../lib/gcc/nios2-elf/4.1.2/../../../../nios2-elf/lib\libc.a(lib_a-stdio.o)
 .debug_aranges
                0x000005a0       0x20 c:/altera/10.1/nios2eds/bin/gnu/h-i686-mingw32/bin/../lib/gcc/nios2-elf/4.1.2/../../../../nios2-elf/lib\libc.a(lib_a-strcmp.o)
 .debug_aranges
                0x000005c0       0x20 c:/altera/10.1/nios2eds/bin/gnu/h-i686-mingw32/bin/../lib/gcc/nios2-elf/4.1.2/../../../../nios2-elf/lib\libc.a(lib_a-strlen.o)
 .debug_aranges
                0x000005e0       0x20 c:/altera/10.1/nios2eds/bin/gnu/h-i686-mingw32/bin/../lib/gcc/nios2-elf/4.1.2/../../../../nios2-elf/lib\libc.a(lib_a-writer.o)
 .debug_aranges
                0x00000600       0x20 c:/altera/10.1/nios2eds/bin/gnu/h-i686-mingw32/bin/../lib/gcc/nios2-elf/4.1.2/../../../../nios2-elf/lib\libc.a(lib_a-callocr.o)
 .debug_aranges
                0x00000620       0x20 c:/altera/10.1/nios2eds/bin/gnu/h-i686-mingw32/bin/../lib/gcc/nios2-elf/4.1.2/../../../../nios2-elf/lib\libc.a(lib_a-closer.o)
 .debug_aranges
                0x00000640       0x20 c:/altera/10.1/nios2eds/bin/gnu/h-i686-mingw32/bin/../lib/gcc/nios2-elf/4.1.2/../../../../nios2-elf/lib\libc.a(lib_a-fclose.o)
 .debug_aranges
                0x00000660       0x20 c:/altera/10.1/nios2eds/bin/gnu/h-i686-mingw32/bin/../lib/gcc/nios2-elf/4.1.2/../../../../nios2-elf/lib\libc.a(lib_a-fstatr.o)
 .debug_aranges
                0x00000680       0x20 c:/altera/10.1/nios2eds/bin/gnu/h-i686-mingw32/bin/../lib/gcc/nios2-elf/4.1.2/../../../../nios2-elf/lib\libc.a(lib_a-isattyr.o)
 .debug_aranges
                0x000006a0       0x20 c:/altera/10.1/nios2eds/bin/gnu/h-i686-mingw32/bin/../lib/gcc/nios2-elf/4.1.2/../../../../nios2-elf/lib\libc.a(lib_a-lseekr.o)
 .debug_aranges
                0x000006c0       0x20 c:/altera/10.1/nios2eds/bin/gnu/h-i686-mingw32/bin/../lib/gcc/nios2-elf/4.1.2/../../../../nios2-elf/lib\libc.a(lib_a-readr.o)
 .debug_aranges
                0x000006e0       0x20 c:/altera/10.1/nios2eds/bin/gnu/h-i686-mingw32/bin/../lib/gcc/nios2-elf/4.1.2\libgcc.a(_muldi3.o)
 .debug_aranges
                0x00000700       0x20 c:/altera/10.1/nios2eds/bin/gnu/h-i686-mingw32/bin/../lib/gcc/nios2-elf/4.1.2\libgcc.a(_udivdi3.o)
 .debug_aranges
                0x00000720       0x20 c:/altera/10.1/nios2eds/bin/gnu/h-i686-mingw32/bin/../lib/gcc/nios2-elf/4.1.2\libgcc.a(_umoddi3.o)
 .debug_aranges
                0x00000740       0x20 c:/altera/10.1/nios2eds/bin/gnu/h-i686-mingw32/bin/../lib/gcc/nios2-elf/4.1.2\libgcc.a(_addsub_df.o)
 .debug_aranges
                0x00000760       0x20 c:/altera/10.1/nios2eds/bin/gnu/h-i686-mingw32/bin/../lib/gcc/nios2-elf/4.1.2\libgcc.a(_mul_df.o)
 .debug_aranges
                0x00000780       0x20 c:/altera/10.1/nios2eds/bin/gnu/h-i686-mingw32/bin/../lib/gcc/nios2-elf/4.1.2\libgcc.a(_eq_df.o)
 .debug_aranges
                0x000007a0       0x20 c:/altera/10.1/nios2eds/bin/gnu/h-i686-mingw32/bin/../lib/gcc/nios2-elf/4.1.2\libgcc.a(_ne_df.o)
 .debug_aranges
                0x000007c0       0x20 c:/altera/10.1/nios2eds/bin/gnu/h-i686-mingw32/bin/../lib/gcc/nios2-elf/4.1.2\libgcc.a(_ge_df.o)
 .debug_aranges
                0x000007e0       0x20 c:/altera/10.1/nios2eds/bin/gnu/h-i686-mingw32/bin/../lib/gcc/nios2-elf/4.1.2\libgcc.a(_df_to_si.o)
 .debug_aranges
                0x00000800       0x20 c:/altera/10.1/nios2eds/bin/gnu/h-i686-mingw32/bin/../lib/gcc/nios2-elf/4.1.2\libgcc.a(_usi_to_df.o)
 .debug_aranges
                0x00000820       0x20 ../hi_bsp\libhal_bsp.a(alt_close.o)
 .debug_aranges
                0x00000840       0x20 ../hi_bsp\libhal_bsp.a(alt_dev.o)
 .debug_aranges
                0x00000860       0x20 ../hi_bsp\libhal_bsp.a(alt_fstat.o)
 .debug_aranges
                0x00000880       0x20 ../hi_bsp\libhal_bsp.a(alt_gettod.o)
 .debug_aranges
                0x000008a0       0x20 ../hi_bsp\libhal_bsp.a(alt_isatty.o)
 .debug_aranges
                0x000008c0       0x20 ../hi_bsp\libhal_bsp.a(alt_lseek.o)
 .debug_aranges
                0x000008e0       0x20 ../hi_bsp\libhal_bsp.a(alt_main.o)
 .debug_aranges
                0x00000900       0x20 ../hi_bsp\libhal_bsp.a(alt_malloc_lock.o)
 .debug_aranges
                0x00000920       0x20 ../hi_bsp\libhal_bsp.a(alt_printf.o)
 .debug_aranges
                0x00000940       0x20 ../hi_bsp\libhal_bsp.a(alt_putchar.o)
 .debug_aranges
                0x00000960       0x20 ../hi_bsp\libhal_bsp.a(alt_read.o)
 .debug_aranges
                0x00000980       0x20 ../hi_bsp\libhal_bsp.a(alt_release_fd.o)
 .debug_aranges
                0x000009a0       0x20 ../hi_bsp\libhal_bsp.a(alt_sbrk.o)
 .debug_aranges
                0x000009c0       0x20 ../hi_bsp\libhal_bsp.a(alt_tick.o)
 .debug_aranges
                0x000009e0       0x20 ../hi_bsp\libhal_bsp.a(alt_usleep.o)
 .debug_aranges
                0x00000a00       0x20 ../hi_bsp\libhal_bsp.a(alt_write.o)
 .debug_aranges
                0x00000a20       0x20 ../hi_bsp\libhal_bsp.a(alt_sys_init.o)
 .debug_aranges
                0x00000a40       0x20 ../hi_bsp\libhal_bsp.a(altera_avalon_cfi_flash.o)
 .debug_aranges
                0x00000a60       0x20 ../hi_bsp\libhal_bsp.a(altera_avalon_cfi_flash_table.o)
 .debug_aranges
                0x00000a80       0x20 ../hi_bsp\libhal_bsp.a(altera_avalon_jtag_uart_fd.o)
 .debug_aranges
                0x00000aa0       0x20 ../hi_bsp\libhal_bsp.a(altera_avalon_jtag_uart_init.o)
 .debug_aranges
                0x00000ac0       0x20 ../hi_bsp\libhal_bsp.a(altera_avalon_jtag_uart_ioctl.o)
 .debug_aranges
                0x00000ae0       0x20 ../hi_bsp\libhal_bsp.a(altera_avalon_jtag_uart_read.o)
 .debug_aranges
                0x00000b00       0x20 ../hi_bsp\libhal_bsp.a(altera_avalon_jtag_uart_write.o)
 .debug_aranges
                0x00000b20       0x20 ../hi_bsp\libhal_bsp.a(altera_avalon_spi.o)
 .debug_aranges
                0x00000b40       0x20 ../hi_bsp\libhal_bsp.a(altera_avalon_timer_sc.o)
 .debug_aranges
                0x00000b60       0x20 ../hi_bsp\libhal_bsp.a(altera_avalon_uart_fd.o)
 .debug_aranges
                0x00000b80       0x20 ../hi_bsp\libhal_bsp.a(altera_avalon_uart_init.o)
 .debug_aranges
                0x00000ba0       0x20 ../hi_bsp\libhal_bsp.a(altera_avalon_uart_read.o)
 .debug_aranges
                0x00000bc0       0x20 ../hi_bsp\libhal_bsp.a(altera_avalon_uart_write.o)
 .debug_aranges
                0x00000be0       0x20 ../hi_bsp\libhal_bsp.a(altera_up_avalon_ps2.o)
 .debug_aranges
                0x00000c00       0x20 ../hi_bsp\libhal_bsp.a(altera_up_avalon_video_character_buffer_with_dma.o)
 .debug_aranges
                0x00000c20       0x20 ../hi_bsp\libhal_bsp.a(altera_up_ps2_keyboard.o)
 .debug_aranges
                0x00000c40       0x20 ../hi_bsp\libhal_bsp.a(alt_alarm_start.o)
 .debug_aranges
                0x00000c60       0x20 ../hi_bsp\libhal_bsp.a(alt_busy_sleep.o)
 .debug_aranges
                0x00000c80       0x20 ../hi_bsp\libhal_bsp.a(alt_dcache_flush.o)
 .debug_aranges
                0x00000ca0       0x20 ../hi_bsp\libhal_bsp.a(alt_dev_llist_insert.o)
 .debug_aranges
                0x00000cc0       0x20 ../hi_bsp\libhal_bsp.a(alt_do_ctors.o)
 .debug_aranges
                0x00000ce0       0x20 ../hi_bsp\libhal_bsp.a(alt_do_dtors.o)
 .debug_aranges
                0x00000d00       0x20 ../hi_bsp\libhal_bsp.a(alt_find_dev.o)
 .debug_aranges
                0x00000d20       0x20 ../hi_bsp\libhal_bsp.a(alt_flash_dev.o)
 .debug_aranges
                0x00000d40       0x20 ../hi_bsp\libhal_bsp.a(alt_io_redirect.o)
 .debug_aranges
                0x00000d60       0x20 ../hi_bsp\libhal_bsp.a(alt_irq_register.o)
 .debug_aranges
                0x00000d80       0x20 ../hi_bsp\libhal_bsp.a(alt_open.o)
 .debug_aranges
                0x00000da0       0x20 ../hi_bsp\libhal_bsp.a(altera_nios2_irq.o)
 .debug_aranges
                0x00000dc0       0x20 ../hi_bsp\libhal_bsp.a(altera_avalon_cfi_flash_amd.o)
 .debug_aranges
                0x00000de0       0x20 ../hi_bsp\libhal_bsp.a(altera_avalon_cfi_flash_intel.o)
 .debug_aranges
                0x00000e00       0x20 ../hi_bsp\libhal_bsp.a(alt_find_file.o)
 .debug_aranges
                0x00000e20       0x20 ../hi_bsp\libhal_bsp.a(alt_get_fd.o)
 .debug_aranges
                0x00000e40       0x30 ../hi_bsp\libhal_bsp.a(alt_irq_entry.o)
 .debug_aranges
                0x00000e70       0x28 ../hi_bsp\libhal_bsp.a(alt_irq_handler.o)
 .debug_aranges
                0x00000e98       0x38 ../hi_bsp\libhal_bsp.a(alt_exception_entry.o)
 .debug_aranges
                0x00000ed0       0x20 c:/altera/10.1/nios2eds/bin/gnu/h-i686-mingw32/bin/../lib/gcc/nios2-elf/4.1.2/../../../../nios2-elf/lib\libc.a(lib_a-atexit.o)
 .debug_aranges
                0x00000ef0       0x20 c:/altera/10.1/nios2eds/bin/gnu/h-i686-mingw32/bin/../lib/gcc/nios2-elf/4.1.2/../../../../nios2-elf/lib\libc.a(lib_a-exit.o)
 .debug_aranges
                0x00000f10       0x20 c:/altera/10.1/nios2eds/bin/gnu/h-i686-mingw32/bin/../lib/gcc/nios2-elf/4.1.2/../../../../nios2-elf/lib\libc.a(lib_a-memcmp.o)
 .debug_aranges
                0x00000f30       0x20 c:/altera/10.1/nios2eds/bin/gnu/h-i686-mingw32/bin/../lib/gcc/nios2-elf/4.1.2/../../../../nios2-elf/lib\libc.a(lib_a-putc.o)
 .debug_aranges
                0x00000f50       0x20 c:/altera/10.1/nios2eds/bin/gnu/h-i686-mingw32/bin/../lib/gcc/nios2-elf/4.1.2/../../../../nios2-elf/lib\libc.a(lib_a-strcpy.o)
 .debug_aranges
                0x00000f70       0x20 c:/altera/10.1/nios2eds/bin/gnu/h-i686-mingw32/bin/../lib/gcc/nios2-elf/4.1.2/../../../../nios2-elf/lib\libc.a(lib_a-wbuf.o)
 .debug_aranges
                0x00000f90       0x20 c:/altera/10.1/nios2eds/bin/gnu/h-i686-mingw32/bin/../lib/gcc/nios2-elf/4.1.2/../../../../nios2-elf/lib\libc.a(lib_a-__atexit.o)
 .debug_aranges
                0x00000fb0       0x20 c:/altera/10.1/nios2eds/bin/gnu/h-i686-mingw32/bin/../lib/gcc/nios2-elf/4.1.2/../../../../nios2-elf/lib\libc.a(lib_a-__call_atexit.o)
 .debug_aranges
                0x00000fd0       0x20 ../hi_bsp\libhal_bsp.a(alt_exit.o)

.debug_pubnames
                0x00000000     0x1ec1
 *(.debug_pubnames)
 .debug_pubnames
                0x00000000      0x112 obj/hello_world.o
 .debug_pubnames
                0x00000112       0x1e c:/altera/10.1/nios2eds/bin/gnu/h-i686-mingw32/bin/../lib/gcc/nios2-elf/4.1.2\libgcc.a(_gt_sf.o)
 .debug_pubnames
                0x00000130       0x1e c:/altera/10.1/nios2eds/bin/gnu/h-i686-mingw32/bin/../lib/gcc/nios2-elf/4.1.2\libgcc.a(_lt_sf.o)
 .debug_pubnames
                0x0000014e       0x24 c:/altera/10.1/nios2eds/bin/gnu/h-i686-mingw32/bin/../lib/gcc/nios2-elf/4.1.2\libgcc.a(_sf_to_df.o)
 .debug_pubnames
                0x00000172       0x1f c:/altera/10.1/nios2eds/bin/gnu/h-i686-mingw32/bin/../lib/gcc/nios2-elf/4.1.2\libgcc.a(_div_df.o)
 .debug_pubnames
                0x00000191       0x1e c:/altera/10.1/nios2eds/bin/gnu/h-i686-mingw32/bin/../lib/gcc/nios2-elf/4.1.2\libgcc.a(_gt_df.o)
 .debug_pubnames
                0x000001af       0x1e c:/altera/10.1/nios2eds/bin/gnu/h-i686-mingw32/bin/../lib/gcc/nios2-elf/4.1.2\libgcc.a(_lt_df.o)
 .debug_pubnames
                0x000001cd       0x22 c:/altera/10.1/nios2eds/bin/gnu/h-i686-mingw32/bin/../lib/gcc/nios2-elf/4.1.2\libgcc.a(_si_to_df.o)
 .debug_pubnames
                0x000001ef       0x20 c:/altera/10.1/nios2eds/bin/gnu/h-i686-mingw32/bin/../lib/gcc/nios2-elf/4.1.2\libgcc.a(_make_df.o)
 .debug_pubnames
                0x0000020f       0x23 c:/altera/10.1/nios2eds/bin/gnu/h-i686-mingw32/bin/../lib/gcc/nios2-elf/4.1.2\libgcc.a(_df_to_sf.o)
 .debug_pubnames
                0x00000232       0x22 c:/altera/10.1/nios2eds/bin/gnu/h-i686-mingw32/bin/../lib/gcc/nios2-elf/4.1.2\libgcc.a(_thenan_df.o)
 .debug_pubnames
                0x00000254       0x48 c:/altera/10.1/nios2eds/bin/gnu/h-i686-mingw32/bin/../lib/gcc/nios2-elf/4.1.2\libgcc.a(lib2-divmod.o)
 .debug_pubnames
                0x0000029c       0x1f c:/altera/10.1/nios2eds/bin/gnu/h-i686-mingw32/bin/../lib/gcc/nios2-elf/4.1.2\libgcc.a(_clzsi2.o)
 .debug_pubnames
                0x000002bb       0x21 c:/altera/10.1/nios2eds/bin/gnu/h-i686-mingw32/bin/../lib/gcc/nios2-elf/4.1.2\libgcc.a(_unpack_sf.o)
 .debug_pubnames
                0x000002dc       0x26 c:/altera/10.1/nios2eds/bin/gnu/h-i686-mingw32/bin/../lib/gcc/nios2-elf/4.1.2\libgcc.a(_fpcmp_parts_sf.o)
 .debug_pubnames
                0x00000302       0x20 c:/altera/10.1/nios2eds/bin/gnu/h-i686-mingw32/bin/../lib/gcc/nios2-elf/4.1.2\libgcc.a(_make_sf.o)
 .debug_pubnames
                0x00000322       0x1f c:/altera/10.1/nios2eds/bin/gnu/h-i686-mingw32/bin/../lib/gcc/nios2-elf/4.1.2\libgcc.a(_pack_df.o)
 .debug_pubnames
                0x00000341       0x21 c:/altera/10.1/nios2eds/bin/gnu/h-i686-mingw32/bin/../lib/gcc/nios2-elf/4.1.2\libgcc.a(_unpack_df.o)
 .debug_pubnames
                0x00000362       0x26 c:/altera/10.1/nios2eds/bin/gnu/h-i686-mingw32/bin/../lib/gcc/nios2-elf/4.1.2\libgcc.a(_fpcmp_parts_df.o)
 .debug_pubnames
                0x00000388       0x20 c:/altera/10.1/nios2eds/bin/gnu/h-i686-mingw32/bin/../lib/gcc/nios2-elf/4.1.2\libgcc.a(_clz.o)
 .debug_pubnames
                0x000003a8       0x1f c:/altera/10.1/nios2eds/bin/gnu/h-i686-mingw32/bin/../lib/gcc/nios2-elf/4.1.2\libgcc.a(_pack_sf.o)
 .debug_pubnames
                0x000003c7       0x2b c:/altera/10.1/nios2eds/bin/gnu/h-i686-mingw32/bin/../lib/gcc/nios2-elf/4.1.2/../../../../nios2-elf/lib\libc.a(lib_a-printf.o)
 .debug_pubnames
                0x000003f2       0x25 c:/altera/10.1/nios2eds/bin/gnu/h-i686-mingw32/bin/../lib/gcc/nios2-elf/4.1.2/../../../../nios2-elf/lib\libc.a(lib_a-rand.o)
 .debug_pubnames
                0x00000417       0x1b c:/altera/10.1/nios2eds/bin/gnu/h-i686-mingw32/bin/../lib/gcc/nios2-elf/4.1.2/../../../../nios2-elf/lib\libc.a(lib_a-time.o)
 .debug_pubnames
                0x00000432       0x45 c:/altera/10.1/nios2eds/bin/gnu/h-i686-mingw32/bin/../lib/gcc/nios2-elf/4.1.2/../../../../nios2-elf/lib\libc.a(lib_a-vfprintf.o)
 .debug_pubnames
                0x00000477       0x22 c:/altera/10.1/nios2eds/bin/gnu/h-i686-mingw32/bin/../lib/gcc/nios2-elf/4.1.2/../../../../nios2-elf/lib\libc.a(lib_a-wsetup.o)
 .debug_pubnames
                0x00000499       0x1e c:/altera/10.1/nios2eds/bin/gnu/h-i686-mingw32/bin/../lib/gcc/nios2-elf/4.1.2/../../../../nios2-elf/lib\libc.a(lib_a-dtoa.o)
 .debug_pubnames
                0x000004b7       0x2b c:/altera/10.1/nios2eds/bin/gnu/h-i686-mingw32/bin/../lib/gcc/nios2-elf/4.1.2/../../../../nios2-elf/lib\libc.a(lib_a-fflush.o)
 .debug_pubnames
                0x000004e2       0xdb c:/altera/10.1/nios2eds/bin/gnu/h-i686-mingw32/bin/../lib/gcc/nios2-elf/4.1.2/../../../../nios2-elf/lib\libc.a(lib_a-findfp.o)
 .debug_pubnames
                0x000005bd       0x31 c:/altera/10.1/nios2eds/bin/gnu/h-i686-mingw32/bin/../lib/gcc/nios2-elf/4.1.2/../../../../nios2-elf/lib\libc.a(lib_a-freer.o)
 .debug_pubnames
                0x000005ee       0x23 c:/altera/10.1/nios2eds/bin/gnu/h-i686-mingw32/bin/../lib/gcc/nios2-elf/4.1.2/../../../../nios2-elf/lib\libc.a(lib_a-fvwrite.o)
 .debug_pubnames
                0x00000611       0x2e c:/altera/10.1/nios2eds/bin/gnu/h-i686-mingw32/bin/../lib/gcc/nios2-elf/4.1.2/../../../../nios2-elf/lib\libc.a(lib_a-fwalk.o)
 .debug_pubnames
                0x0000063f       0x26 c:/altera/10.1/nios2eds/bin/gnu/h-i686-mingw32/bin/../lib/gcc/nios2-elf/4.1.2/../../../../nios2-elf/lib\libc.a(lib_a-gettimeofdayr.o)
 .debug_pubnames
                0x00000665       0x39 c:/altera/10.1/nios2eds/bin/gnu/h-i686-mingw32/bin/../lib/gcc/nios2-elf/4.1.2/../../../../nios2-elf/lib\libc.a(lib_a-impure.o)
 .debug_pubnames
                0x0000069e       0x1c c:/altera/10.1/nios2eds/bin/gnu/h-i686-mingw32/bin/../lib/gcc/nios2-elf/4.1.2/../../../../nios2-elf/lib\libc.a(lib_a-int_errno.o)
 .debug_pubnames
                0x000006ba       0xc3 c:/altera/10.1/nios2eds/bin/gnu/h-i686-mingw32/bin/../lib/gcc/nios2-elf/4.1.2/../../../../nios2-elf/lib\libc.a(lib_a-locale.o)
 .debug_pubnames
                0x0000077d       0x23 c:/altera/10.1/nios2eds/bin/gnu/h-i686-mingw32/bin/../lib/gcc/nios2-elf/4.1.2/../../../../nios2-elf/lib\libc.a(lib_a-makebuf.o)
 .debug_pubnames
                0x000007a0       0xce c:/altera/10.1/nios2eds/bin/gnu/h-i686-mingw32/bin/../lib/gcc/nios2-elf/4.1.2/../../../../nios2-elf/lib\libc.a(lib_a-mallocr.o)
 .debug_pubnames
                0x0000086e       0x1d c:/altera/10.1/nios2eds/bin/gnu/h-i686-mingw32/bin/../lib/gcc/nios2-elf/4.1.2/../../../../nios2-elf/lib\libc.a(lib_a-memchr.o)
 .debug_pubnames
                0x0000088b       0x1d c:/altera/10.1/nios2eds/bin/gnu/h-i686-mingw32/bin/../lib/gcc/nios2-elf/4.1.2/../../../../nios2-elf/lib\libc.a(lib_a-memcpy.o)
 .debug_pubnames
                0x000008a8       0x1e c:/altera/10.1/nios2eds/bin/gnu/h-i686-mingw32/bin/../lib/gcc/nios2-elf/4.1.2/../../../../nios2-elf/lib\libc.a(lib_a-memmove.o)
 .debug_pubnames
                0x000008c6       0x1d c:/altera/10.1/nios2eds/bin/gnu/h-i686-mingw32/bin/../lib/gcc/nios2-elf/4.1.2/../../../../nios2-elf/lib\libc.a(lib_a-memset.o)
 .debug_pubnames
                0x000008e3      0x13a c:/altera/10.1/nios2eds/bin/gnu/h-i686-mingw32/bin/../lib/gcc/nios2-elf/4.1.2/../../../../nios2-elf/lib\libc.a(lib_a-mprec.o)
 .debug_pubnames
                0x00000a1d       0x21 c:/altera/10.1/nios2eds/bin/gnu/h-i686-mingw32/bin/../lib/gcc/nios2-elf/4.1.2/../../../../nios2-elf/lib\libc.a(lib_a-reallocr.o)
 .debug_pubnames
                0x00000a3e       0x1f c:/altera/10.1/nios2eds/bin/gnu/h-i686-mingw32/bin/../lib/gcc/nios2-elf/4.1.2/../../../../nios2-elf/lib\libc.a(lib_a-s_isinfd.o)
 .debug_pubnames
                0x00000a5d       0x1f c:/altera/10.1/nios2eds/bin/gnu/h-i686-mingw32/bin/../lib/gcc/nios2-elf/4.1.2/../../../../nios2-elf/lib\libc.a(lib_a-s_isnand.o)
 .debug_pubnames
                0x00000a7c       0x1e c:/altera/10.1/nios2eds/bin/gnu/h-i686-mingw32/bin/../lib/gcc/nios2-elf/4.1.2/../../../../nios2-elf/lib\libc.a(lib_a-sbrkr.o)
 .debug_pubnames
                0x00000a9a       0x44 c:/altera/10.1/nios2eds/bin/gnu/h-i686-mingw32/bin/../lib/gcc/nios2-elf/4.1.2/../../../../nios2-elf/lib\libc.a(lib_a-stdio.o)
 .debug_pubnames
                0x00000ade       0x1d c:/altera/10.1/nios2eds/bin/gnu/h-i686-mingw32/bin/../lib/gcc/nios2-elf/4.1.2/../../../../nios2-elf/lib\libc.a(lib_a-strcmp.o)
 .debug_pubnames
                0x00000afb       0x1d c:/altera/10.1/nios2eds/bin/gnu/h-i686-mingw32/bin/../lib/gcc/nios2-elf/4.1.2/../../../../nios2-elf/lib\libc.a(lib_a-strlen.o)
 .debug_pubnames
                0x00000b18       0x1f c:/altera/10.1/nios2eds/bin/gnu/h-i686-mingw32/bin/../lib/gcc/nios2-elf/4.1.2/../../../../nios2-elf/lib\libc.a(lib_a-writer.o)
 .debug_pubnames
                0x00000b37       0x20 c:/altera/10.1/nios2eds/bin/gnu/h-i686-mingw32/bin/../lib/gcc/nios2-elf/4.1.2/../../../../nios2-elf/lib\libc.a(lib_a-callocr.o)
 .debug_pubnames
                0x00000b57       0x1f c:/altera/10.1/nios2eds/bin/gnu/h-i686-mingw32/bin/../lib/gcc/nios2-elf/4.1.2/../../../../nios2-elf/lib\libc.a(lib_a-closer.o)
 .debug_pubnames
                0x00000b76       0x2b c:/altera/10.1/nios2eds/bin/gnu/h-i686-mingw32/bin/../lib/gcc/nios2-elf/4.1.2/../../../../nios2-elf/lib\libc.a(lib_a-fclose.o)
 .debug_pubnames
                0x00000ba1       0x1f c:/altera/10.1/nios2eds/bin/gnu/h-i686-mingw32/bin/../lib/gcc/nios2-elf/4.1.2/../../../../nios2-elf/lib\libc.a(lib_a-fstatr.o)
 .debug_pubnames
                0x00000bc0       0x20 c:/altera/10.1/nios2eds/bin/gnu/h-i686-mingw32/bin/../lib/gcc/nios2-elf/4.1.2/../../../../nios2-elf/lib\libc.a(lib_a-isattyr.o)
 .debug_pubnames
                0x00000be0       0x1f c:/altera/10.1/nios2eds/bin/gnu/h-i686-mingw32/bin/../lib/gcc/nios2-elf/4.1.2/../../../../nios2-elf/lib\libc.a(lib_a-lseekr.o)
 .debug_pubnames
                0x00000bff       0x1e c:/altera/10.1/nios2eds/bin/gnu/h-i686-mingw32/bin/../lib/gcc/nios2-elf/4.1.2/../../../../nios2-elf/lib\libc.a(lib_a-readr.o)
 .debug_pubnames
                0x00000c1d       0x1f c:/altera/10.1/nios2eds/bin/gnu/h-i686-mingw32/bin/../lib/gcc/nios2-elf/4.1.2\libgcc.a(_muldi3.o)
 .debug_pubnames
                0x00000c3c       0x20 c:/altera/10.1/nios2eds/bin/gnu/h-i686-mingw32/bin/../lib/gcc/nios2-elf/4.1.2\libgcc.a(_udivdi3.o)
 .debug_pubnames
                0x00000c5c       0x20 c:/altera/10.1/nios2eds/bin/gnu/h-i686-mingw32/bin/../lib/gcc/nios2-elf/4.1.2\libgcc.a(_umoddi3.o)
 .debug_pubnames
                0x00000c7c       0x2c c:/altera/10.1/nios2eds/bin/gnu/h-i686-mingw32/bin/../lib/gcc/nios2-elf/4.1.2\libgcc.a(_addsub_df.o)
 .debug_pubnames
                0x00000ca8       0x1f c:/altera/10.1/nios2eds/bin/gnu/h-i686-mingw32/bin/../lib/gcc/nios2-elf/4.1.2\libgcc.a(_mul_df.o)
 .debug_pubnames
                0x00000cc7       0x1e c:/altera/10.1/nios2eds/bin/gnu/h-i686-mingw32/bin/../lib/gcc/nios2-elf/4.1.2\libgcc.a(_eq_df.o)
 .debug_pubnames
                0x00000ce5       0x1e c:/altera/10.1/nios2eds/bin/gnu/h-i686-mingw32/bin/../lib/gcc/nios2-elf/4.1.2\libgcc.a(_ne_df.o)
 .debug_pubnames
                0x00000d03       0x1e c:/altera/10.1/nios2eds/bin/gnu/h-i686-mingw32/bin/../lib/gcc/nios2-elf/4.1.2\libgcc.a(_ge_df.o)
 .debug_pubnames
                0x00000d21       0x20 c:/altera/10.1/nios2eds/bin/gnu/h-i686-mingw32/bin/../lib/gcc/nios2-elf/4.1.2\libgcc.a(_df_to_si.o)
 .debug_pubnames
                0x00000d41       0x24 c:/altera/10.1/nios2eds/bin/gnu/h-i686-mingw32/bin/../lib/gcc/nios2-elf/4.1.2\libgcc.a(_usi_to_df.o)
 .debug_pubnames
                0x00000d65       0x1c ../hi_bsp\libhal_bsp.a(alt_close.o)
 .debug_pubnames
                0x00000d81       0x63 ../hi_bsp\libhal_bsp.a(alt_dev.o)
 .debug_pubnames
                0x00000de4       0x20 ../hi_bsp\libhal_bsp.a(alt_errno.o)
 .debug_pubnames
                0x00000e04       0x1c ../hi_bsp\libhal_bsp.a(alt_fstat.o)
 .debug_pubnames
                0x00000e20       0x46 ../hi_bsp\libhal_bsp.a(alt_gettod.o)
 .debug_pubnames
                0x00000e66       0x1d ../hi_bsp\libhal_bsp.a(alt_isatty.o)
 .debug_pubnames
                0x00000e83       0x1c ../hi_bsp\libhal_bsp.a(alt_lseek.o)
 .debug_pubnames
                0x00000e9f       0x46 ../hi_bsp\libhal_bsp.a(alt_main.o)
 .debug_pubnames
                0x00000ee5       0x38 ../hi_bsp\libhal_bsp.a(alt_malloc_lock.o)
 .debug_pubnames
                0x00000f1d       0x21 ../hi_bsp\libhal_bsp.a(alt_printf.o)
 .debug_pubnames
                0x00000f3e       0x22 ../hi_bsp\libhal_bsp.a(alt_putchar.o)
 .debug_pubnames
                0x00000f60       0x1b ../hi_bsp\libhal_bsp.a(alt_read.o)
 .debug_pubnames
                0x00000f7b       0x25 ../hi_bsp\libhal_bsp.a(alt_release_fd.o)
 .debug_pubnames
                0x00000fa0       0x1b ../hi_bsp\libhal_bsp.a(alt_sbrk.o)
 .debug_pubnames
                0x00000fbb       0x68 ../hi_bsp\libhal_bsp.a(alt_tick.o)
 .debug_pubnames
                0x00001023       0x1d ../hi_bsp\libhal_bsp.a(alt_usleep.o)
 .debug_pubnames
                0x00001040       0x1c ../hi_bsp\libhal_bsp.a(alt_write.o)
 .debug_pubnames
                0x0000105c       0x34 ../hi_bsp\libhal_bsp.a(alt_sys_init.o)
 .debug_pubnames
                0x00001090       0xac ../hi_bsp\libhal_bsp.a(altera_avalon_cfi_flash.o)
 .debug_pubnames
                0x0000113c      0x27a ../hi_bsp\libhal_bsp.a(altera_avalon_cfi_flash_table.o)
 .debug_pubnames
                0x000013b6       0xa5 ../hi_bsp\libhal_bsp.a(altera_avalon_jtag_uart_fd.o)
 .debug_pubnames
                0x0000145b       0x55 ../hi_bsp\libhal_bsp.a(altera_avalon_jtag_uart_init.o)
 .debug_pubnames
                0x000014b0       0x34 ../hi_bsp\libhal_bsp.a(altera_avalon_jtag_uart_ioctl.o)
 .debug_pubnames
                0x000014e4       0x33 ../hi_bsp\libhal_bsp.a(altera_avalon_jtag_uart_read.o)
 .debug_pubnames
                0x00001517       0x34 ../hi_bsp\libhal_bsp.a(altera_avalon_jtag_uart_write.o)
 .debug_pubnames
                0x0000154b       0x2d ../hi_bsp\libhal_bsp.a(altera_avalon_spi.o)
 .debug_pubnames
                0x00001578       0x2f ../hi_bsp\libhal_bsp.a(altera_avalon_timer_sc.o)
 .debug_pubnames
                0x000015a7       0x71 ../hi_bsp\libhal_bsp.a(altera_avalon_uart_fd.o)
 .debug_pubnames
                0x00001618       0x4b ../hi_bsp\libhal_bsp.a(altera_avalon_uart_init.o)
 .debug_pubnames
                0x00001663       0x2e ../hi_bsp\libhal_bsp.a(altera_avalon_uart_read.o)
 .debug_pubnames
                0x00001691       0x2f ../hi_bsp\libhal_bsp.a(altera_avalon_uart_write.o)
 .debug_pubnames
                0x000016c0      0x1ed ../hi_bsp\libhal_bsp.a(altera_up_avalon_ps2.o)
 .debug_pubnames
                0x000018ad       0xa5 ../hi_bsp\libhal_bsp.a(altera_up_avalon_video_character_buffer_with_dma.o)
 .debug_pubnames
                0x00001952      0x112 ../hi_bsp\libhal_bsp.a(altera_up_ps2_keyboard.o)
 .debug_pubnames
                0x00001a64       0x26 ../hi_bsp\libhal_bsp.a(alt_alarm_start.o)
 .debug_pubnames
                0x00001a8a       0x25 ../hi_bsp\libhal_bsp.a(alt_busy_sleep.o)
 .debug_pubnames
                0x00001aaf       0x27 ../hi_bsp\libhal_bsp.a(alt_dcache_flush.o)
 .debug_pubnames
                0x00001ad6       0x2b ../hi_bsp\libhal_bsp.a(alt_dev_llist_insert.o)
 .debug_pubnames
                0x00001b01       0x20 ../hi_bsp\libhal_bsp.a(alt_do_ctors.o)
 .debug_pubnames
                0x00001b21       0x20 ../hi_bsp\libhal_bsp.a(alt_do_dtors.o)
 .debug_pubnames
                0x00001b41       0x23 ../hi_bsp\libhal_bsp.a(alt_find_dev.o)
 .debug_pubnames
                0x00001b64       0x58 ../hi_bsp\libhal_bsp.a(alt_flash_dev.o)
 .debug_pubnames
                0x00001bbc       0x26 ../hi_bsp\libhal_bsp.a(alt_io_redirect.o)
 .debug_pubnames
                0x00001be2       0x27 ../hi_bsp\libhal_bsp.a(alt_irq_register.o)
 .debug_pubnames
                0x00001c09       0x3b ../hi_bsp\libhal_bsp.a(alt_irq_vars.o)
 .debug_pubnames
                0x00001c44       0x1b ../hi_bsp\libhal_bsp.a(alt_open.o)
 .debug_pubnames
                0x00001c5f       0x2c ../hi_bsp\libhal_bsp.a(altera_nios2_irq.o)
 .debug_pubnames
                0x00001c8b       0x3e ../hi_bsp\libhal_bsp.a(altera_avalon_cfi_flash_amd.o)
 .debug_pubnames
                0x00001cc9       0x42 ../hi_bsp\libhal_bsp.a(altera_avalon_cfi_flash_intel.o)
 .debug_pubnames
                0x00001d0b       0x24 ../hi_bsp\libhal_bsp.a(alt_find_file.o)
 .debug_pubnames
                0x00001d2f       0x21 ../hi_bsp\libhal_bsp.a(alt_get_fd.o)
 .debug_pubnames
                0x00001d50       0x32 ../hi_bsp\libhal_bsp.a(alt_irq_handler.o)
 .debug_pubnames
                0x00001d82       0x2a c:/altera/10.1/nios2eds/bin/gnu/h-i686-mingw32/bin/../lib/gcc/nios2-elf/4.1.2/../../../../nios2-elf/lib\libc.a(lib_a-atexit.o)
 .debug_pubnames
                0x00001dac       0x1b c:/altera/10.1/nios2eds/bin/gnu/h-i686-mingw32/bin/../lib/gcc/nios2-elf/4.1.2/../../../../nios2-elf/lib\libc.a(lib_a-exit.o)
 .debug_pubnames
                0x00001dc7       0x1d c:/altera/10.1/nios2eds/bin/gnu/h-i686-mingw32/bin/../lib/gcc/nios2-elf/4.1.2/../../../../nios2-elf/lib\libc.a(lib_a-memcmp.o)
 .debug_pubnames
                0x00001de4       0x27 c:/altera/10.1/nios2eds/bin/gnu/h-i686-mingw32/bin/../lib/gcc/nios2-elf/4.1.2/../../../../nios2-elf/lib\libc.a(lib_a-putc.o)
 .debug_pubnames
                0x00001e0b       0x1d c:/altera/10.1/nios2eds/bin/gnu/h-i686-mingw32/bin/../lib/gcc/nios2-elf/4.1.2/../../../../nios2-elf/lib\libc.a(lib_a-strcpy.o)
 .debug_pubnames
                0x00001e28       0x2c c:/altera/10.1/nios2eds/bin/gnu/h-i686-mingw32/bin/../lib/gcc/nios2-elf/4.1.2/../../../../nios2-elf/lib\libc.a(lib_a-wbuf.o)
 .debug_pubnames
                0x00001e54       0x2a c:/altera/10.1/nios2eds/bin/gnu/h-i686-mingw32/bin/../lib/gcc/nios2-elf/4.1.2/../../../../nios2-elf/lib\libc.a(lib_a-__atexit.o)
 .debug_pubnames
                0x00001e7e       0x27 c:/altera/10.1/nios2eds/bin/gnu/h-i686-mingw32/bin/../lib/gcc/nios2-elf/4.1.2/../../../../nios2-elf/lib\libc.a(lib_a-__call_atexit.o)
 .debug_pubnames
                0x00001ea5       0x1c ../hi_bsp\libhal_bsp.a(alt_exit.o)

.debug_info     0x00000000    0x2f36f
 *(.debug_info .gnu.linkonce.wi.*)
 .debug_info    0x00000000       0x9b ../hi_bsp/obj/HAL/src/crt0.o
 .debug_info    0x0000009b      0xd58 obj/hello_world.o
 .debug_info    0x00000df3      0x290 c:/altera/10.1/nios2eds/bin/gnu/h-i686-mingw32/bin/../lib/gcc/nios2-elf/4.1.2\libgcc.a(_gt_sf.o)
 .debug_info    0x00001083      0x290 c:/altera/10.1/nios2eds/bin/gnu/h-i686-mingw32/bin/../lib/gcc/nios2-elf/4.1.2\libgcc.a(_lt_sf.o)
 .debug_info    0x00001313      0x245 c:/altera/10.1/nios2eds/bin/gnu/h-i686-mingw32/bin/../lib/gcc/nios2-elf/4.1.2\libgcc.a(_sf_to_df.o)
 .debug_info    0x00001558      0x39b c:/altera/10.1/nios2eds/bin/gnu/h-i686-mingw32/bin/../lib/gcc/nios2-elf/4.1.2\libgcc.a(_div_df.o)
 .debug_info    0x000018f3      0x29d c:/altera/10.1/nios2eds/bin/gnu/h-i686-mingw32/bin/../lib/gcc/nios2-elf/4.1.2\libgcc.a(_gt_df.o)
 .debug_info    0x00001b90      0x29d c:/altera/10.1/nios2eds/bin/gnu/h-i686-mingw32/bin/../lib/gcc/nios2-elf/4.1.2\libgcc.a(_lt_df.o)
 .debug_info    0x00001e2d      0x218 c:/altera/10.1/nios2eds/bin/gnu/h-i686-mingw32/bin/../lib/gcc/nios2-elf/4.1.2\libgcc.a(_si_to_df.o)
 .debug_info    0x00002045      0x1d6 c:/altera/10.1/nios2eds/bin/gnu/h-i686-mingw32/bin/../lib/gcc/nios2-elf/4.1.2\libgcc.a(_make_df.o)
 .debug_info    0x0000221b      0x261 c:/altera/10.1/nios2eds/bin/gnu/h-i686-mingw32/bin/../lib/gcc/nios2-elf/4.1.2\libgcc.a(_df_to_sf.o)
 .debug_info    0x0000247c      0x164 c:/altera/10.1/nios2eds/bin/gnu/h-i686-mingw32/bin/../lib/gcc/nios2-elf/4.1.2\libgcc.a(_thenan_df.o)
 .debug_info    0x000025e0      0x21c c:/altera/10.1/nios2eds/bin/gnu/h-i686-mingw32/bin/../lib/gcc/nios2-elf/4.1.2\libgcc.a(lib2-divmod.o)
 .debug_info    0x000027fc      0x130 c:/altera/10.1/nios2eds/bin/gnu/h-i686-mingw32/bin/../lib/gcc/nios2-elf/4.1.2\libgcc.a(_clzsi2.o)
 .debug_info    0x0000292c      0x25a c:/altera/10.1/nios2eds/bin/gnu/h-i686-mingw32/bin/../lib/gcc/nios2-elf/4.1.2\libgcc.a(_unpack_sf.o)
 .debug_info    0x00002b86      0x21f c:/altera/10.1/nios2eds/bin/gnu/h-i686-mingw32/bin/../lib/gcc/nios2-elf/4.1.2\libgcc.a(_fpcmp_parts_sf.o)
 .debug_info    0x00002da5      0x1d7 c:/altera/10.1/nios2eds/bin/gnu/h-i686-mingw32/bin/../lib/gcc/nios2-elf/4.1.2\libgcc.a(_make_sf.o)
 .debug_info    0x00002f7c      0x2fc c:/altera/10.1/nios2eds/bin/gnu/h-i686-mingw32/bin/../lib/gcc/nios2-elf/4.1.2\libgcc.a(_pack_df.o)
 .debug_info    0x00003278      0x268 c:/altera/10.1/nios2eds/bin/gnu/h-i686-mingw32/bin/../lib/gcc/nios2-elf/4.1.2\libgcc.a(_unpack_df.o)
 .debug_info    0x000034e0      0x21b c:/altera/10.1/nios2eds/bin/gnu/h-i686-mingw32/bin/../lib/gcc/nios2-elf/4.1.2\libgcc.a(_fpcmp_parts_df.o)
 .debug_info    0x000036fb       0xc9 c:/altera/10.1/nios2eds/bin/gnu/h-i686-mingw32/bin/../lib/gcc/nios2-elf/4.1.2\libgcc.a(_clz.o)
 .debug_info    0x000037c4      0x2f2 c:/altera/10.1/nios2eds/bin/gnu/h-i686-mingw32/bin/../lib/gcc/nios2-elf/4.1.2\libgcc.a(_pack_sf.o)
 .debug_info    0x00003ab6      0x9d1 c:/altera/10.1/nios2eds/bin/gnu/h-i686-mingw32/bin/../lib/gcc/nios2-elf/4.1.2/../../../../nios2-elf/lib\libc.a(lib_a-printf.o)
 .debug_info    0x00004487      0x951 c:/altera/10.1/nios2eds/bin/gnu/h-i686-mingw32/bin/../lib/gcc/nios2-elf/4.1.2/../../../../nios2-elf/lib\libc.a(lib_a-rand.o)
 .debug_info    0x00004dd8      0x98f c:/altera/10.1/nios2eds/bin/gnu/h-i686-mingw32/bin/../lib/gcc/nios2-elf/4.1.2/../../../../nios2-elf/lib\libc.a(lib_a-time.o)
 .debug_info    0x00005767     0x10d5 c:/altera/10.1/nios2eds/bin/gnu/h-i686-mingw32/bin/../lib/gcc/nios2-elf/4.1.2/../../../../nios2-elf/lib\libc.a(lib_a-vfprintf.o)
 .debug_info    0x0000683c      0x95d c:/altera/10.1/nios2eds/bin/gnu/h-i686-mingw32/bin/../lib/gcc/nios2-elf/4.1.2/../../../../nios2-elf/lib\libc.a(lib_a-wsetup.o)
 .debug_info    0x00007199      0xd6f c:/altera/10.1/nios2eds/bin/gnu/h-i686-mingw32/bin/../lib/gcc/nios2-elf/4.1.2/../../../../nios2-elf/lib\libc.a(lib_a-dtoa.o)
 .debug_info    0x00007f08      0x9fe c:/altera/10.1/nios2eds/bin/gnu/h-i686-mingw32/bin/../lib/gcc/nios2-elf/4.1.2/../../../../nios2-elf/lib\libc.a(lib_a-fflush.o)
 .debug_info    0x00008906      0xb72 c:/altera/10.1/nios2eds/bin/gnu/h-i686-mingw32/bin/../lib/gcc/nios2-elf/4.1.2/../../../../nios2-elf/lib\libc.a(lib_a-findfp.o)
 .debug_info    0x00009478      0xbc9 c:/altera/10.1/nios2eds/bin/gnu/h-i686-mingw32/bin/../lib/gcc/nios2-elf/4.1.2/../../../../nios2-elf/lib\libc.a(lib_a-freer.o)
 .debug_info    0x0000a041      0xa88 c:/altera/10.1/nios2eds/bin/gnu/h-i686-mingw32/bin/../lib/gcc/nios2-elf/4.1.2/../../../../nios2-elf/lib\libc.a(lib_a-fvwrite.o)
 .debug_info    0x0000aac9      0xaed c:/altera/10.1/nios2eds/bin/gnu/h-i686-mingw32/bin/../lib/gcc/nios2-elf/4.1.2/../../../../nios2-elf/lib\libc.a(lib_a-fwalk.o)
 .debug_info    0x0000b5b6      0x9ad c:/altera/10.1/nios2eds/bin/gnu/h-i686-mingw32/bin/../lib/gcc/nios2-elf/4.1.2/../../../../nios2-elf/lib\libc.a(lib_a-gettimeofdayr.o)
 .debug_info    0x0000bf63      0x93d c:/altera/10.1/nios2eds/bin/gnu/h-i686-mingw32/bin/../lib/gcc/nios2-elf/4.1.2/../../../../nios2-elf/lib\libc.a(lib_a-impure.o)
 .debug_info    0x0000c8a0       0x8c c:/altera/10.1/nios2eds/bin/gnu/h-i686-mingw32/bin/../lib/gcc/nios2-elf/4.1.2/../../../../nios2-elf/lib\libc.a(lib_a-int_errno.o)
 .debug_info    0x0000c92c      0xb97 c:/altera/10.1/nios2eds/bin/gnu/h-i686-mingw32/bin/../lib/gcc/nios2-elf/4.1.2/../../../../nios2-elf/lib\libc.a(lib_a-locale.o)
 .debug_info    0x0000d4c3      0xb1a c:/altera/10.1/nios2eds/bin/gnu/h-i686-mingw32/bin/../lib/gcc/nios2-elf/4.1.2/../../../../nios2-elf/lib\libc.a(lib_a-makebuf.o)
 .debug_info    0x0000dfdd      0xcd0 c:/altera/10.1/nios2eds/bin/gnu/h-i686-mingw32/bin/../lib/gcc/nios2-elf/4.1.2/../../../../nios2-elf/lib\libc.a(lib_a-mallocr.o)
 .debug_info    0x0000ecad      0x138 c:/altera/10.1/nios2eds/bin/gnu/h-i686-mingw32/bin/../lib/gcc/nios2-elf/4.1.2/../../../../nios2-elf/lib\libc.a(lib_a-memchr.o)
 .debug_info    0x0000ede5      0x106 c:/altera/10.1/nios2eds/bin/gnu/h-i686-mingw32/bin/../lib/gcc/nios2-elf/4.1.2/../../../../nios2-elf/lib\libc.a(lib_a-memcpy.o)
 .debug_info    0x0000eeeb      0x13e c:/altera/10.1/nios2eds/bin/gnu/h-i686-mingw32/bin/../lib/gcc/nios2-elf/4.1.2/../../../../nios2-elf/lib\libc.a(lib_a-memmove.o)
 .debug_info    0x0000f029      0x113 c:/altera/10.1/nios2eds/bin/gnu/h-i686-mingw32/bin/../lib/gcc/nios2-elf/4.1.2/../../../../nios2-elf/lib\libc.a(lib_a-memset.o)
 .debug_info    0x0000f13c     0x1437 c:/altera/10.1/nios2eds/bin/gnu/h-i686-mingw32/bin/../lib/gcc/nios2-elf/4.1.2/../../../../nios2-elf/lib\libc.a(lib_a-mprec.o)
 .debug_info    0x00010573      0xbd7 c:/altera/10.1/nios2eds/bin/gnu/h-i686-mingw32/bin/../lib/gcc/nios2-elf/4.1.2/../../../../nios2-elf/lib\libc.a(lib_a-reallocr.o)
 .debug_info    0x0001114a       0xd7 c:/altera/10.1/nios2eds/bin/gnu/h-i686-mingw32/bin/../lib/gcc/nios2-elf/4.1.2/../../../../nios2-elf/lib\libc.a(lib_a-s_isinfd.o)
 .debug_info    0x00011221       0xd5 c:/altera/10.1/nios2eds/bin/gnu/h-i686-mingw32/bin/../lib/gcc/nios2-elf/4.1.2/../../../../nios2-elf/lib\libc.a(lib_a-s_isnand.o)
 .debug_info    0x000112f6      0x962 c:/altera/10.1/nios2eds/bin/gnu/h-i686-mingw32/bin/../lib/gcc/nios2-elf/4.1.2/../../../../nios2-elf/lib\libc.a(lib_a-sbrkr.o)
 .debug_info    0x00011c58      0xaac c:/altera/10.1/nios2eds/bin/gnu/h-i686-mingw32/bin/../lib/gcc/nios2-elf/4.1.2/../../../../nios2-elf/lib\libc.a(lib_a-stdio.o)
 .debug_info    0x00012704       0xdd c:/altera/10.1/nios2eds/bin/gnu/h-i686-mingw32/bin/../lib/gcc/nios2-elf/4.1.2/../../../../nios2-elf/lib\libc.a(lib_a-strcmp.o)
 .debug_info    0x000127e1       0xdb c:/altera/10.1/nios2eds/bin/gnu/h-i686-mingw32/bin/../lib/gcc/nios2-elf/4.1.2/../../../../nios2-elf/lib\libc.a(lib_a-strlen.o)
 .debug_info    0x000128bc      0x993 c:/altera/10.1/nios2eds/bin/gnu/h-i686-mingw32/bin/../lib/gcc/nios2-elf/4.1.2/../../../../nios2-elf/lib\libc.a(lib_a-writer.o)
 .debug_info    0x0001324f      0xa1b c:/altera/10.1/nios2eds/bin/gnu/h-i686-mingw32/bin/../lib/gcc/nios2-elf/4.1.2/../../../../nios2-elf/lib\libc.a(lib_a-callocr.o)
 .debug_info    0x00013c6a      0x958 c:/altera/10.1/nios2eds/bin/gnu/h-i686-mingw32/bin/../lib/gcc/nios2-elf/4.1.2/../../../../nios2-elf/lib\libc.a(lib_a-closer.o)
 .debug_info    0x000145c2      0x994 c:/altera/10.1/nios2eds/bin/gnu/h-i686-mingw32/bin/../lib/gcc/nios2-elf/4.1.2/../../../../nios2-elf/lib\libc.a(lib_a-fclose.o)
 .debug_info    0x00014f56      0xafc c:/altera/10.1/nios2eds/bin/gnu/h-i686-mingw32/bin/../lib/gcc/nios2-elf/4.1.2/../../../../nios2-elf/lib\libc.a(lib_a-fstatr.o)
 .debug_info    0x00015a52      0x958 c:/altera/10.1/nios2eds/bin/gnu/h-i686-mingw32/bin/../lib/gcc/nios2-elf/4.1.2/../../../../nios2-elf/lib\libc.a(lib_a-isattyr.o)
 .debug_info    0x000163aa      0x981 c:/altera/10.1/nios2eds/bin/gnu/h-i686-mingw32/bin/../lib/gcc/nios2-elf/4.1.2/../../../../nios2-elf/lib\libc.a(lib_a-lseekr.o)
 .debug_info    0x00016d2b      0x98c c:/altera/10.1/nios2eds/bin/gnu/h-i686-mingw32/bin/../lib/gcc/nios2-elf/4.1.2/../../../../nios2-elf/lib\libc.a(lib_a-readr.o)
 .debug_info    0x000176b7      0x215 c:/altera/10.1/nios2eds/bin/gnu/h-i686-mingw32/bin/../lib/gcc/nios2-elf/4.1.2\libgcc.a(_muldi3.o)
 .debug_info    0x000178cc      0x724 c:/altera/10.1/nios2eds/bin/gnu/h-i686-mingw32/bin/../lib/gcc/nios2-elf/4.1.2\libgcc.a(_udivdi3.o)
 .debug_info    0x00017ff0      0x751 c:/altera/10.1/nios2eds/bin/gnu/h-i686-mingw32/bin/../lib/gcc/nios2-elf/4.1.2\libgcc.a(_umoddi3.o)
 .debug_info    0x00018741      0x493 c:/altera/10.1/nios2eds/bin/gnu/h-i686-mingw32/bin/../lib/gcc/nios2-elf/4.1.2\libgcc.a(_addsub_df.o)
 .debug_info    0x00018bd4      0x488 c:/altera/10.1/nios2eds/bin/gnu/h-i686-mingw32/bin/../lib/gcc/nios2-elf/4.1.2\libgcc.a(_mul_df.o)
 .debug_info    0x0001905c      0x29d c:/altera/10.1/nios2eds/bin/gnu/h-i686-mingw32/bin/../lib/gcc/nios2-elf/4.1.2\libgcc.a(_eq_df.o)
 .debug_info    0x000192f9      0x29d c:/altera/10.1/nios2eds/bin/gnu/h-i686-mingw32/bin/../lib/gcc/nios2-elf/4.1.2\libgcc.a(_ne_df.o)
 .debug_info    0x00019596      0x29d c:/altera/10.1/nios2eds/bin/gnu/h-i686-mingw32/bin/../lib/gcc/nios2-elf/4.1.2\libgcc.a(_ge_df.o)
 .debug_info    0x00019833      0x2cd c:/altera/10.1/nios2eds/bin/gnu/h-i686-mingw32/bin/../lib/gcc/nios2-elf/4.1.2\libgcc.a(_df_to_si.o)
 .debug_info    0x00019b00      0x213 c:/altera/10.1/nios2eds/bin/gnu/h-i686-mingw32/bin/../lib/gcc/nios2-elf/4.1.2\libgcc.a(_usi_to_df.o)
 .debug_info    0x00019d13      0x483 ../hi_bsp\libhal_bsp.a(alt_close.o)
 .debug_info    0x0001a196      0x69b ../hi_bsp\libhal_bsp.a(alt_dev.o)
 .debug_info    0x0001a831      0x180 ../hi_bsp\libhal_bsp.a(alt_errno.o)
 .debug_info    0x0001a9b1      0x67c ../hi_bsp\libhal_bsp.a(alt_fstat.o)
 .debug_info    0x0001b02d      0x33f ../hi_bsp\libhal_bsp.a(alt_gettod.o)
 .debug_info    0x0001b36c      0x682 ../hi_bsp\libhal_bsp.a(alt_isatty.o)
 .debug_info    0x0001b9ee      0x4b6 ../hi_bsp\libhal_bsp.a(alt_lseek.o)
 .debug_info    0x0001bea4      0x288 ../hi_bsp\libhal_bsp.a(alt_main.o)
 .debug_info    0x0001c12c      0xc01 ../hi_bsp\libhal_bsp.a(alt_malloc_lock.o)
 .debug_info    0x0001cd2d      0x191 ../hi_bsp\libhal_bsp.a(alt_printf.o)
 .debug_info    0x0001cebe      0xbe5 ../hi_bsp\libhal_bsp.a(alt_putchar.o)
 .debug_info    0x0001daa3      0x6a6 ../hi_bsp\libhal_bsp.a(alt_read.o)
 .debug_info    0x0001e149      0x40e ../hi_bsp\libhal_bsp.a(alt_release_fd.o)
 .debug_info    0x0001e557      0x31a ../hi_bsp\libhal_bsp.a(alt_sbrk.o)
 .debug_info    0x0001e871      0x44d ../hi_bsp\libhal_bsp.a(alt_tick.o)
 .debug_info    0x0001ecbe      0x151 ../hi_bsp\libhal_bsp.a(alt_usleep.o)
 .debug_info    0x0001ee0f      0x6af ../hi_bsp\libhal_bsp.a(alt_write.o)
 .debug_info    0x0001f4be     0x10c8 ../hi_bsp\libhal_bsp.a(alt_sys_init.o)
 .debug_info    0x00020586      0xb65 ../hi_bsp\libhal_bsp.a(altera_avalon_cfi_flash.o)
 .debug_info    0x000210eb      0xe51 ../hi_bsp\libhal_bsp.a(altera_avalon_cfi_flash_table.o)
 .debug_info    0x00021f3c      0x7f5 ../hi_bsp\libhal_bsp.a(altera_avalon_jtag_uart_fd.o)
 .debug_info    0x00022731      0x65d ../hi_bsp\libhal_bsp.a(altera_avalon_jtag_uart_init.o)
 .debug_info    0x00022d8e      0x45f ../hi_bsp\libhal_bsp.a(altera_avalon_jtag_uart_ioctl.o)
 .debug_info    0x000231ed      0x595 ../hi_bsp\libhal_bsp.a(altera_avalon_jtag_uart_read.o)
 .debug_info    0x00023782      0x58d ../hi_bsp\libhal_bsp.a(altera_avalon_jtag_uart_write.o)
 .debug_info    0x00023d0f      0x2c5 ../hi_bsp\libhal_bsp.a(altera_avalon_spi.o)
 .debug_info    0x00023fd4      0x3e7 ../hi_bsp\libhal_bsp.a(altera_avalon_timer_sc.o)
 .debug_info    0x000243bb      0x658 ../hi_bsp\libhal_bsp.a(altera_avalon_uart_fd.o)
 .debug_info    0x00024a13      0x56a ../hi_bsp\libhal_bsp.a(altera_avalon_uart_init.o)
 .debug_info    0x00024f7d      0x511 ../hi_bsp\libhal_bsp.a(altera_avalon_uart_read.o)
 .debug_info    0x0002548e      0x50f ../hi_bsp\libhal_bsp.a(altera_avalon_uart_write.o)
 .debug_info    0x0002599d      0xb09 ../hi_bsp\libhal_bsp.a(altera_up_avalon_ps2.o)
 .debug_info    0x000264a6      0x6ae ../hi_bsp\libhal_bsp.a(altera_up_avalon_video_character_buffer_with_dma.o)
 .debug_info    0x00026b54      0x94b ../hi_bsp\libhal_bsp.a(altera_up_ps2_keyboard.o)
 .debug_info    0x0002749f      0x491 ../hi_bsp\libhal_bsp.a(alt_alarm_start.o)
 .debug_info    0x00027930      0x1c7 ../hi_bsp\libhal_bsp.a(alt_busy_sleep.o)
 .debug_info    0x00027af7      0x1c0 ../hi_bsp\libhal_bsp.a(alt_dcache_flush.o)
 .debug_info    0x00027cb7      0x2d3 ../hi_bsp\libhal_bsp.a(alt_dev_llist_insert.o)
 .debug_info    0x00027f8a       0xf8 ../hi_bsp\libhal_bsp.a(alt_do_ctors.o)
 .debug_info    0x00028082       0xf7 ../hi_bsp\libhal_bsp.a(alt_do_dtors.o)
 .debug_info    0x00028179      0x434 ../hi_bsp\libhal_bsp.a(alt_find_dev.o)
 .debug_info    0x000285ad      0x5b5 ../hi_bsp\libhal_bsp.a(alt_flash_dev.o)
 .debug_info    0x00028b62      0x6b1 ../hi_bsp\libhal_bsp.a(alt_io_redirect.o)
 .debug_info    0x00029213      0x44b ../hi_bsp\libhal_bsp.a(alt_irq_register.o)
 .debug_info    0x0002965e      0x183 ../hi_bsp\libhal_bsp.a(alt_irq_vars.o)
 .debug_info    0x000297e1      0x541 ../hi_bsp\libhal_bsp.a(alt_open.o)
 .debug_info    0x00029d22      0x1bc ../hi_bsp\libhal_bsp.a(altera_nios2_irq.o)
 .debug_info    0x00029ede      0x905 ../hi_bsp\libhal_bsp.a(altera_avalon_cfi_flash_amd.o)
 .debug_info    0x0002a7e3      0x8fb ../hi_bsp\libhal_bsp.a(altera_avalon_cfi_flash_intel.o)
 .debug_info    0x0002b0de      0x43b ../hi_bsp\libhal_bsp.a(alt_find_file.o)
 .debug_info    0x0002b519      0x47c ../hi_bsp\libhal_bsp.a(alt_get_fd.o)
 .debug_info    0x0002b995       0xa0 ../hi_bsp\libhal_bsp.a(alt_irq_entry.o)
 .debug_info    0x0002ba35      0x2ce ../hi_bsp\libhal_bsp.a(alt_irq_handler.o)
 .debug_info    0x0002bd03       0xa6 ../hi_bsp\libhal_bsp.a(alt_exception_entry.o)
 .debug_info    0x0002bda9      0x181 c:/altera/10.1/nios2eds/bin/gnu/h-i686-mingw32/bin/../lib/gcc/nios2-elf/4.1.2/../../../../nios2-elf/lib\libc.a(lib_a-atexit.o)
 .debug_info    0x0002bf2a      0x93f c:/altera/10.1/nios2eds/bin/gnu/h-i686-mingw32/bin/../lib/gcc/nios2-elf/4.1.2/../../../../nios2-elf/lib\libc.a(lib_a-exit.o)
 .debug_info    0x0002c869      0x115 c:/altera/10.1/nios2eds/bin/gnu/h-i686-mingw32/bin/../lib/gcc/nios2-elf/4.1.2/../../../../nios2-elf/lib\libc.a(lib_a-memcmp.o)
 .debug_info    0x0002c97e      0x9c1 c:/altera/10.1/nios2eds/bin/gnu/h-i686-mingw32/bin/../lib/gcc/nios2-elf/4.1.2/../../../../nios2-elf/lib\libc.a(lib_a-putc.o)
 .debug_info    0x0002d33f      0x110 c:/altera/10.1/nios2eds/bin/gnu/h-i686-mingw32/bin/../lib/gcc/nios2-elf/4.1.2/../../../../nios2-elf/lib\libc.a(lib_a-strcpy.o)
 .debug_info    0x0002d44f      0x9ae c:/altera/10.1/nios2eds/bin/gnu/h-i686-mingw32/bin/../lib/gcc/nios2-elf/4.1.2/../../../../nios2-elf/lib\libc.a(lib_a-wbuf.o)
 .debug_info    0x0002ddfd      0x99c c:/altera/10.1/nios2eds/bin/gnu/h-i686-mingw32/bin/../lib/gcc/nios2-elf/4.1.2/../../../../nios2-elf/lib\libc.a(lib_a-__atexit.o)
 .debug_info    0x0002e799      0x9e2 c:/altera/10.1/nios2eds/bin/gnu/h-i686-mingw32/bin/../lib/gcc/nios2-elf/4.1.2/../../../../nios2-elf/lib\libc.a(lib_a-__call_atexit.o)
 .debug_info    0x0002f17b      0x1f4 ../hi_bsp\libhal_bsp.a(alt_exit.o)

.debug_abbrev   0x00000000     0x9f03
 *(.debug_abbrev)
 .debug_abbrev  0x00000000       0x14 ../hi_bsp/obj/HAL/src/crt0.o
 .debug_abbrev  0x00000014      0x1fe obj/hello_world.o
 .debug_abbrev  0x00000212      0x151 c:/altera/10.1/nios2eds/bin/gnu/h-i686-mingw32/bin/../lib/gcc/nios2-elf/4.1.2\libgcc.a(_gt_sf.o)
 .debug_abbrev  0x00000363      0x151 c:/altera/10.1/nios2eds/bin/gnu/h-i686-mingw32/bin/../lib/gcc/nios2-elf/4.1.2\libgcc.a(_lt_sf.o)
 .debug_abbrev  0x000004b4      0x128 c:/altera/10.1/nios2eds/bin/gnu/h-i686-mingw32/bin/../lib/gcc/nios2-elf/4.1.2\libgcc.a(_sf_to_df.o)
 .debug_abbrev  0x000005dc      0x1e3 c:/altera/10.1/nios2eds/bin/gnu/h-i686-mingw32/bin/../lib/gcc/nios2-elf/4.1.2\libgcc.a(_div_df.o)
 .debug_abbrev  0x000007bf      0x151 c:/altera/10.1/nios2eds/bin/gnu/h-i686-mingw32/bin/../lib/gcc/nios2-elf/4.1.2\libgcc.a(_gt_df.o)
 .debug_abbrev  0x00000910      0x151 c:/altera/10.1/nios2eds/bin/gnu/h-i686-mingw32/bin/../lib/gcc/nios2-elf/4.1.2\libgcc.a(_lt_df.o)
 .debug_abbrev  0x00000a61      0x13f c:/altera/10.1/nios2eds/bin/gnu/h-i686-mingw32/bin/../lib/gcc/nios2-elf/4.1.2\libgcc.a(_si_to_df.o)
 .debug_abbrev  0x00000ba0      0x10f c:/altera/10.1/nios2eds/bin/gnu/h-i686-mingw32/bin/../lib/gcc/nios2-elf/4.1.2\libgcc.a(_make_df.o)
 .debug_abbrev  0x00000caf      0x137 c:/altera/10.1/nios2eds/bin/gnu/h-i686-mingw32/bin/../lib/gcc/nios2-elf/4.1.2\libgcc.a(_df_to_sf.o)
 .debug_abbrev  0x00000de6       0xba c:/altera/10.1/nios2eds/bin/gnu/h-i686-mingw32/bin/../lib/gcc/nios2-elf/4.1.2\libgcc.a(_thenan_df.o)
 .debug_abbrev  0x00000ea0       0xe0 c:/altera/10.1/nios2eds/bin/gnu/h-i686-mingw32/bin/../lib/gcc/nios2-elf/4.1.2\libgcc.a(lib2-divmod.o)
 .debug_abbrev  0x00000f80       0xb9 c:/altera/10.1/nios2eds/bin/gnu/h-i686-mingw32/bin/../lib/gcc/nios2-elf/4.1.2\libgcc.a(_clzsi2.o)
 .debug_abbrev  0x00001039      0x158 c:/altera/10.1/nios2eds/bin/gnu/h-i686-mingw32/bin/../lib/gcc/nios2-elf/4.1.2\libgcc.a(_unpack_sf.o)
 .debug_abbrev  0x00001191      0x132 c:/altera/10.1/nios2eds/bin/gnu/h-i686-mingw32/bin/../lib/gcc/nios2-elf/4.1.2\libgcc.a(_fpcmp_parts_sf.o)
 .debug_abbrev  0x000012c3      0x100 c:/altera/10.1/nios2eds/bin/gnu/h-i686-mingw32/bin/../lib/gcc/nios2-elf/4.1.2\libgcc.a(_make_sf.o)
 .debug_abbrev  0x000013c3      0x1b1 c:/altera/10.1/nios2eds/bin/gnu/h-i686-mingw32/bin/../lib/gcc/nios2-elf/4.1.2\libgcc.a(_pack_df.o)
 .debug_abbrev  0x00001574      0x149 c:/altera/10.1/nios2eds/bin/gnu/h-i686-mingw32/bin/../lib/gcc/nios2-elf/4.1.2\libgcc.a(_unpack_df.o)
 .debug_abbrev  0x000016bd      0x132 c:/altera/10.1/nios2eds/bin/gnu/h-i686-mingw32/bin/../lib/gcc/nios2-elf/4.1.2\libgcc.a(_fpcmp_parts_df.o)
 .debug_abbrev  0x000017ef       0x61 c:/altera/10.1/nios2eds/bin/gnu/h-i686-mingw32/bin/../lib/gcc/nios2-elf/4.1.2\libgcc.a(_clz.o)
 .debug_abbrev  0x00001850      0x1aa c:/altera/10.1/nios2eds/bin/gnu/h-i686-mingw32/bin/../lib/gcc/nios2-elf/4.1.2\libgcc.a(_pack_sf.o)
 .debug_abbrev  0x000019fa      0x191 c:/altera/10.1/nios2eds/bin/gnu/h-i686-mingw32/bin/../lib/gcc/nios2-elf/4.1.2/../../../../nios2-elf/lib\libc.a(lib_a-printf.o)
 .debug_abbrev  0x00001b8b      0x185 c:/altera/10.1/nios2eds/bin/gnu/h-i686-mingw32/bin/../lib/gcc/nios2-elf/4.1.2/../../../../nios2-elf/lib\libc.a(lib_a-rand.o)
 .debug_abbrev  0x00001d10      0x17f c:/altera/10.1/nios2eds/bin/gnu/h-i686-mingw32/bin/../lib/gcc/nios2-elf/4.1.2/../../../../nios2-elf/lib\libc.a(lib_a-time.o)
 .debug_abbrev  0x00001e8f      0x30a c:/altera/10.1/nios2eds/bin/gnu/h-i686-mingw32/bin/../lib/gcc/nios2-elf/4.1.2/../../../../nios2-elf/lib\libc.a(lib_a-vfprintf.o)
 .debug_abbrev  0x00002199      0x170 c:/altera/10.1/nios2eds/bin/gnu/h-i686-mingw32/bin/../lib/gcc/nios2-elf/4.1.2/../../../../nios2-elf/lib\libc.a(lib_a-wsetup.o)
 .debug_abbrev  0x00002309      0x232 c:/altera/10.1/nios2eds/bin/gnu/h-i686-mingw32/bin/../lib/gcc/nios2-elf/4.1.2/../../../../nios2-elf/lib\libc.a(lib_a-dtoa.o)
 .debug_abbrev  0x0000253b      0x1c6 c:/altera/10.1/nios2eds/bin/gnu/h-i686-mingw32/bin/../lib/gcc/nios2-elf/4.1.2/../../../../nios2-elf/lib\libc.a(lib_a-fflush.o)
 .debug_abbrev  0x00002701      0x24c c:/altera/10.1/nios2eds/bin/gnu/h-i686-mingw32/bin/../lib/gcc/nios2-elf/4.1.2/../../../../nios2-elf/lib\libc.a(lib_a-findfp.o)
 .debug_abbrev  0x0000294d      0x1d9 c:/altera/10.1/nios2eds/bin/gnu/h-i686-mingw32/bin/../lib/gcc/nios2-elf/4.1.2/../../../../nios2-elf/lib\libc.a(lib_a-freer.o)
 .debug_abbrev  0x00002b26      0x1a3 c:/altera/10.1/nios2eds/bin/gnu/h-i686-mingw32/bin/../lib/gcc/nios2-elf/4.1.2/../../../../nios2-elf/lib\libc.a(lib_a-fvwrite.o)
 .debug_abbrev  0x00002cc9      0x1e3 c:/altera/10.1/nios2eds/bin/gnu/h-i686-mingw32/bin/../lib/gcc/nios2-elf/4.1.2/../../../../nios2-elf/lib\libc.a(lib_a-fwalk.o)
 .debug_abbrev  0x00002eac      0x18e c:/altera/10.1/nios2eds/bin/gnu/h-i686-mingw32/bin/../lib/gcc/nios2-elf/4.1.2/../../../../nios2-elf/lib\libc.a(lib_a-gettimeofdayr.o)
 .debug_abbrev  0x0000303a      0x157 c:/altera/10.1/nios2eds/bin/gnu/h-i686-mingw32/bin/../lib/gcc/nios2-elf/4.1.2/../../../../nios2-elf/lib\libc.a(lib_a-impure.o)
 .debug_abbrev  0x00003191       0x3b c:/altera/10.1/nios2eds/bin/gnu/h-i686-mingw32/bin/../lib/gcc/nios2-elf/4.1.2/../../../../nios2-elf/lib\libc.a(lib_a-int_errno.o)
 .debug_abbrev  0x000031cc      0x1ed c:/altera/10.1/nios2eds/bin/gnu/h-i686-mingw32/bin/../lib/gcc/nios2-elf/4.1.2/../../../../nios2-elf/lib\libc.a(lib_a-locale.o)
 .debug_abbrev  0x000033b9      0x197 c:/altera/10.1/nios2eds/bin/gnu/h-i686-mingw32/bin/../lib/gcc/nios2-elf/4.1.2/../../../../nios2-elf/lib\libc.a(lib_a-makebuf.o)
 .debug_abbrev  0x00003550      0x216 c:/altera/10.1/nios2eds/bin/gnu/h-i686-mingw32/bin/../lib/gcc/nios2-elf/4.1.2/../../../../nios2-elf/lib\libc.a(lib_a-mallocr.o)
 .debug_abbrev  0x00003766       0xb5 c:/altera/10.1/nios2eds/bin/gnu/h-i686-mingw32/bin/../lib/gcc/nios2-elf/4.1.2/../../../../nios2-elf/lib\libc.a(lib_a-memchr.o)
 .debug_abbrev  0x0000381b       0xb5 c:/altera/10.1/nios2eds/bin/gnu/h-i686-mingw32/bin/../lib/gcc/nios2-elf/4.1.2/../../../../nios2-elf/lib\libc.a(lib_a-memcpy.o)
 .debug_abbrev  0x000038d0       0xb5 c:/altera/10.1/nios2eds/bin/gnu/h-i686-mingw32/bin/../lib/gcc/nios2-elf/4.1.2/../../../../nios2-elf/lib\libc.a(lib_a-memmove.o)
 .debug_abbrev  0x00003985       0xb8 c:/altera/10.1/nios2eds/bin/gnu/h-i686-mingw32/bin/../lib/gcc/nios2-elf/4.1.2/../../../../nios2-elf/lib\libc.a(lib_a-memset.o)
 .debug_abbrev  0x00003a3d      0x297 c:/altera/10.1/nios2eds/bin/gnu/h-i686-mingw32/bin/../lib/gcc/nios2-elf/4.1.2/../../../../nios2-elf/lib\libc.a(lib_a-mprec.o)
 .debug_abbrev  0x00003cd4      0x1c3 c:/altera/10.1/nios2eds/bin/gnu/h-i686-mingw32/bin/../lib/gcc/nios2-elf/4.1.2/../../../../nios2-elf/lib\libc.a(lib_a-reallocr.o)
 .debug_abbrev  0x00003e97       0x79 c:/altera/10.1/nios2eds/bin/gnu/h-i686-mingw32/bin/../lib/gcc/nios2-elf/4.1.2/../../../../nios2-elf/lib\libc.a(lib_a-s_isinfd.o)
 .debug_abbrev  0x00003f10       0x79 c:/altera/10.1/nios2eds/bin/gnu/h-i686-mingw32/bin/../lib/gcc/nios2-elf/4.1.2/../../../../nios2-elf/lib\libc.a(lib_a-s_isnand.o)
 .debug_abbrev  0x00003f89      0x18c c:/altera/10.1/nios2eds/bin/gnu/h-i686-mingw32/bin/../lib/gcc/nios2-elf/4.1.2/../../../../nios2-elf/lib\libc.a(lib_a-sbrkr.o)
 .debug_abbrev  0x00004115      0x1c9 c:/altera/10.1/nios2eds/bin/gnu/h-i686-mingw32/bin/../lib/gcc/nios2-elf/4.1.2/../../../../nios2-elf/lib\libc.a(lib_a-stdio.o)
 .debug_abbrev  0x000042de       0x80 c:/altera/10.1/nios2eds/bin/gnu/h-i686-mingw32/bin/../lib/gcc/nios2-elf/4.1.2/../../../../nios2-elf/lib\libc.a(lib_a-strcmp.o)
 .debug_abbrev  0x0000435e       0x8b c:/altera/10.1/nios2eds/bin/gnu/h-i686-mingw32/bin/../lib/gcc/nios2-elf/4.1.2/../../../../nios2-elf/lib\libc.a(lib_a-strlen.o)
 .debug_abbrev  0x000043e9      0x184 c:/altera/10.1/nios2eds/bin/gnu/h-i686-mingw32/bin/../lib/gcc/nios2-elf/4.1.2/../../../../nios2-elf/lib\libc.a(lib_a-writer.o)
 .debug_abbrev  0x0000456d      0x1b8 c:/altera/10.1/nios2eds/bin/gnu/h-i686-mingw32/bin/../lib/gcc/nios2-elf/4.1.2/../../../../nios2-elf/lib\libc.a(lib_a-callocr.o)
 .debug_abbrev  0x00004725      0x17f c:/altera/10.1/nios2eds/bin/gnu/h-i686-mingw32/bin/../lib/gcc/nios2-elf/4.1.2/../../../../nios2-elf/lib\libc.a(lib_a-closer.o)
 .debug_abbrev  0x000048a4      0x1a7 c:/altera/10.1/nios2eds/bin/gnu/h-i686-mingw32/bin/../lib/gcc/nios2-elf/4.1.2/../../../../nios2-elf/lib\libc.a(lib_a-fclose.o)
 .debug_abbrev  0x00004a4b      0x18e c:/altera/10.1/nios2eds/bin/gnu/h-i686-mingw32/bin/../lib/gcc/nios2-elf/4.1.2/../../../../nios2-elf/lib\libc.a(lib_a-fstatr.o)
 .debug_abbrev  0x00004bd9      0x17f c:/altera/10.1/nios2eds/bin/gnu/h-i686-mingw32/bin/../lib/gcc/nios2-elf/4.1.2/../../../../nios2-elf/lib\libc.a(lib_a-isattyr.o)
 .debug_abbrev  0x00004d58      0x18e c:/altera/10.1/nios2eds/bin/gnu/h-i686-mingw32/bin/../lib/gcc/nios2-elf/4.1.2/../../../../nios2-elf/lib\libc.a(lib_a-lseekr.o)
 .debug_abbrev  0x00004ee6      0x17f c:/altera/10.1/nios2eds/bin/gnu/h-i686-mingw32/bin/../lib/gcc/nios2-elf/4.1.2/../../../../nios2-elf/lib\libc.a(lib_a-readr.o)
 .debug_abbrev  0x00005065       0xee c:/altera/10.1/nios2eds/bin/gnu/h-i686-mingw32/bin/../lib/gcc/nios2-elf/4.1.2\libgcc.a(_muldi3.o)
 .debug_abbrev  0x00005153      0x16b c:/altera/10.1/nios2eds/bin/gnu/h-i686-mingw32/bin/../lib/gcc/nios2-elf/4.1.2\libgcc.a(_udivdi3.o)
 .debug_abbrev  0x000052be      0x18e c:/altera/10.1/nios2eds/bin/gnu/h-i686-mingw32/bin/../lib/gcc/nios2-elf/4.1.2\libgcc.a(_umoddi3.o)
 .debug_abbrev  0x0000544c      0x1d2 c:/altera/10.1/nios2eds/bin/gnu/h-i686-mingw32/bin/../lib/gcc/nios2-elf/4.1.2\libgcc.a(_addsub_df.o)
 .debug_abbrev  0x0000561e      0x204 c:/altera/10.1/nios2eds/bin/gnu/h-i686-mingw32/bin/../lib/gcc/nios2-elf/4.1.2\libgcc.a(_mul_df.o)
 .debug_abbrev  0x00005822      0x151 c:/altera/10.1/nios2eds/bin/gnu/h-i686-mingw32/bin/../lib/gcc/nios2-elf/4.1.2\libgcc.a(_eq_df.o)
 .debug_abbrev  0x00005973      0x151 c:/altera/10.1/nios2eds/bin/gnu/h-i686-mingw32/bin/../lib/gcc/nios2-elf/4.1.2\libgcc.a(_ne_df.o)
 .debug_abbrev  0x00005ac4      0x151 c:/altera/10.1/nios2eds/bin/gnu/h-i686-mingw32/bin/../lib/gcc/nios2-elf/4.1.2\libgcc.a(_ge_df.o)
 .debug_abbrev  0x00005c15      0x176 c:/altera/10.1/nios2eds/bin/gnu/h-i686-mingw32/bin/../lib/gcc/nios2-elf/4.1.2\libgcc.a(_df_to_si.o)
 .debug_abbrev  0x00005d8b      0x155 c:/altera/10.1/nios2eds/bin/gnu/h-i686-mingw32/bin/../lib/gcc/nios2-elf/4.1.2\libgcc.a(_usi_to_df.o)
 .debug_abbrev  0x00005ee0       0xfb ../hi_bsp\libhal_bsp.a(alt_close.o)
 .debug_abbrev  0x00005fdb       0xc7 ../hi_bsp\libhal_bsp.a(alt_dev.o)
 .debug_abbrev  0x000060a2       0x5e ../hi_bsp\libhal_bsp.a(alt_errno.o)
 .debug_abbrev  0x00006100       0xfb ../hi_bsp\libhal_bsp.a(alt_fstat.o)
 .debug_abbrev  0x000061fb       0xe5 ../hi_bsp\libhal_bsp.a(alt_gettod.o)
 .debug_abbrev  0x000062e0       0xfb ../hi_bsp\libhal_bsp.a(alt_isatty.o)
 .debug_abbrev  0x000063db       0xfb ../hi_bsp\libhal_bsp.a(alt_lseek.o)
 .debug_abbrev  0x000064d6       0xbe ../hi_bsp\libhal_bsp.a(alt_main.o)
 .debug_abbrev  0x00006594      0x17f ../hi_bsp\libhal_bsp.a(alt_malloc_lock.o)
 .debug_abbrev  0x00006713       0x8f ../hi_bsp\libhal_bsp.a(alt_printf.o)
 .debug_abbrev  0x000067a2      0x17d ../hi_bsp\libhal_bsp.a(alt_putchar.o)
 .debug_abbrev  0x0000691f       0xfb ../hi_bsp\libhal_bsp.a(alt_read.o)
 .debug_abbrev  0x00006a1a       0xc1 ../hi_bsp\libhal_bsp.a(alt_release_fd.o)
 .debug_abbrev  0x00006adb      0x11c ../hi_bsp\libhal_bsp.a(alt_sbrk.o)
 .debug_abbrev  0x00006bf7      0x161 ../hi_bsp\libhal_bsp.a(alt_tick.o)
 .debug_abbrev  0x00006d58       0x5b ../hi_bsp\libhal_bsp.a(alt_usleep.o)
 .debug_abbrev  0x00006db3      0x100 ../hi_bsp\libhal_bsp.a(alt_write.o)
 .debug_abbrev  0x00006eb3      0x189 ../hi_bsp\libhal_bsp.a(alt_sys_init.o)
 .debug_abbrev  0x0000703c      0x1bf ../hi_bsp\libhal_bsp.a(altera_avalon_cfi_flash.o)
 .debug_abbrev  0x000071fb      0x185 ../hi_bsp\libhal_bsp.a(altera_avalon_cfi_flash_table.o)
 .debug_abbrev  0x00007380       0xf7 ../hi_bsp\libhal_bsp.a(altera_avalon_jtag_uart_fd.o)
 .debug_abbrev  0x00007477      0x17c ../hi_bsp\libhal_bsp.a(altera_avalon_jtag_uart_init.o)
 .debug_abbrev  0x000075f3       0xf0 ../hi_bsp\libhal_bsp.a(altera_avalon_jtag_uart_ioctl.o)
 .debug_abbrev  0x000076e3      0x191 ../hi_bsp\libhal_bsp.a(altera_avalon_jtag_uart_read.o)
 .debug_abbrev  0x00007874      0x18d ../hi_bsp\libhal_bsp.a(altera_avalon_jtag_uart_write.o)
 .debug_abbrev  0x00007a01       0x7c ../hi_bsp\libhal_bsp.a(altera_avalon_spi.o)
 .debug_abbrev  0x00007a7d      0x137 ../hi_bsp\libhal_bsp.a(altera_avalon_timer_sc.o)
 .debug_abbrev  0x00007bb4       0xe8 ../hi_bsp\libhal_bsp.a(altera_avalon_uart_fd.o)
 .debug_abbrev  0x00007c9c      0x148 ../hi_bsp\libhal_bsp.a(altera_avalon_uart_init.o)
 .debug_abbrev  0x00007de4      0x174 ../hi_bsp\libhal_bsp.a(altera_avalon_uart_read.o)
 .debug_abbrev  0x00007f58      0x17b ../hi_bsp\libhal_bsp.a(altera_avalon_uart_write.o)
 .debug_abbrev  0x000080d3      0x16d ../hi_bsp\libhal_bsp.a(altera_up_avalon_ps2.o)
 .debug_abbrev  0x00008240      0x111 ../hi_bsp\libhal_bsp.a(altera_up_avalon_video_character_buffer_with_dma.o)
 .debug_abbrev  0x00008351      0x14a ../hi_bsp\libhal_bsp.a(altera_up_ps2_keyboard.o)
 .debug_abbrev  0x0000849b      0x172 ../hi_bsp\libhal_bsp.a(alt_alarm_start.o)
 .debug_abbrev  0x0000860d       0x6c ../hi_bsp\libhal_bsp.a(alt_busy_sleep.o)
 .debug_abbrev  0x00008679       0x7a ../hi_bsp\libhal_bsp.a(alt_dcache_flush.o)
 .debug_abbrev  0x000086f3       0xf6 ../hi_bsp\libhal_bsp.a(alt_dev_llist_insert.o)
 .debug_abbrev  0x000087e9       0x74 ../hi_bsp\libhal_bsp.a(alt_do_ctors.o)
 .debug_abbrev  0x0000885d       0x74 ../hi_bsp\libhal_bsp.a(alt_do_dtors.o)
 .debug_abbrev  0x000088d1       0xcf ../hi_bsp\libhal_bsp.a(alt_find_dev.o)
 .debug_abbrev  0x000089a0      0x121 ../hi_bsp\libhal_bsp.a(alt_flash_dev.o)
 .debug_abbrev  0x00008ac1       0xf0 ../hi_bsp\libhal_bsp.a(alt_io_redirect.o)
 .debug_abbrev  0x00008bb1      0x180 ../hi_bsp\libhal_bsp.a(alt_irq_register.o)
 .debug_abbrev  0x00008d31       0x44 ../hi_bsp\libhal_bsp.a(alt_irq_vars.o)
 .debug_abbrev  0x00008d75      0x112 ../hi_bsp\libhal_bsp.a(alt_open.o)
 .debug_abbrev  0x00008e87       0x64 ../hi_bsp\libhal_bsp.a(altera_nios2_irq.o)
 .debug_abbrev  0x00008eeb      0x14d ../hi_bsp\libhal_bsp.a(altera_avalon_cfi_flash_amd.o)
 .debug_abbrev  0x00009038      0x14d ../hi_bsp\libhal_bsp.a(altera_avalon_cfi_flash_intel.o)
 .debug_abbrev  0x00009185       0xcf ../hi_bsp\libhal_bsp.a(alt_find_file.o)
 .debug_abbrev  0x00009254       0xfb ../hi_bsp\libhal_bsp.a(alt_get_fd.o)
 .debug_abbrev  0x0000934f       0x12 ../hi_bsp\libhal_bsp.a(alt_irq_entry.o)
 .debug_abbrev  0x00009361      0x124 ../hi_bsp\libhal_bsp.a(alt_irq_handler.o)
 .debug_abbrev  0x00009485       0x12 ../hi_bsp\libhal_bsp.a(alt_exception_entry.o)
 .debug_abbrev  0x00009497       0xb7 c:/altera/10.1/nios2eds/bin/gnu/h-i686-mingw32/bin/../lib/gcc/nios2-elf/4.1.2/../../../../nios2-elf/lib\libc.a(lib_a-atexit.o)
 .debug_abbrev  0x0000954e      0x16e c:/altera/10.1/nios2eds/bin/gnu/h-i686-mingw32/bin/../lib/gcc/nios2-elf/4.1.2/../../../../nios2-elf/lib\libc.a(lib_a-exit.o)
 .debug_abbrev  0x000096bc       0x7c c:/altera/10.1/nios2eds/bin/gnu/h-i686-mingw32/bin/../lib/gcc/nios2-elf/4.1.2/../../../../nios2-elf/lib\libc.a(lib_a-memcmp.o)
 .debug_abbrev  0x00009738      0x17f c:/altera/10.1/nios2eds/bin/gnu/h-i686-mingw32/bin/../lib/gcc/nios2-elf/4.1.2/../../../../nios2-elf/lib\libc.a(lib_a-putc.o)
 .debug_abbrev  0x000098b7       0x8f c:/altera/10.1/nios2eds/bin/gnu/h-i686-mingw32/bin/../lib/gcc/nios2-elf/4.1.2/../../../../nios2-elf/lib\libc.a(lib_a-strcpy.o)
 .debug_abbrev  0x00009946      0x198 c:/altera/10.1/nios2eds/bin/gnu/h-i686-mingw32/bin/../lib/gcc/nios2-elf/4.1.2/../../../../nios2-elf/lib\libc.a(lib_a-wbuf.o)
 .debug_abbrev  0x00009ade      0x1ae c:/altera/10.1/nios2eds/bin/gnu/h-i686-mingw32/bin/../lib/gcc/nios2-elf/4.1.2/../../../../nios2-elf/lib\libc.a(lib_a-__atexit.o)
 .debug_abbrev  0x00009c8c      0x1de c:/altera/10.1/nios2eds/bin/gnu/h-i686-mingw32/bin/../lib/gcc/nios2-elf/4.1.2/../../../../nios2-elf/lib\libc.a(lib_a-__call_atexit.o)
 .debug_abbrev  0x00009e6a       0x99 ../hi_bsp\libhal_bsp.a(alt_exit.o)

.debug_line     0x00000000    0x193ab
 *(.debug_line)
 .debug_line    0x00000000       0x8a ../hi_bsp/obj/HAL/src/crt0.o
 .debug_line    0x0000008a      0x984 obj/hello_world.o
 .debug_line    0x00000a0e      0x121 c:/altera/10.1/nios2eds/bin/gnu/h-i686-mingw32/bin/../lib/gcc/nios2-elf/4.1.2\libgcc.a(_gt_sf.o)
 .debug_line    0x00000b2f      0x121 c:/altera/10.1/nios2eds/bin/gnu/h-i686-mingw32/bin/../lib/gcc/nios2-elf/4.1.2\libgcc.a(_lt_sf.o)
 .debug_line    0x00000c50       0xd1 c:/altera/10.1/nios2eds/bin/gnu/h-i686-mingw32/bin/../lib/gcc/nios2-elf/4.1.2\libgcc.a(_sf_to_df.o)
 .debug_line    0x00000d21      0x301 c:/altera/10.1/nios2eds/bin/gnu/h-i686-mingw32/bin/../lib/gcc/nios2-elf/4.1.2\libgcc.a(_div_df.o)
 .debug_line    0x00001022      0x129 c:/altera/10.1/nios2eds/bin/gnu/h-i686-mingw32/bin/../lib/gcc/nios2-elf/4.1.2\libgcc.a(_gt_df.o)
 .debug_line    0x0000114b      0x129 c:/altera/10.1/nios2eds/bin/gnu/h-i686-mingw32/bin/../lib/gcc/nios2-elf/4.1.2\libgcc.a(_lt_df.o)
 .debug_line    0x00001274      0x175 c:/altera/10.1/nios2eds/bin/gnu/h-i686-mingw32/bin/../lib/gcc/nios2-elf/4.1.2\libgcc.a(_si_to_df.o)
 .debug_line    0x000013e9       0xe9 c:/altera/10.1/nios2eds/bin/gnu/h-i686-mingw32/bin/../lib/gcc/nios2-elf/4.1.2\libgcc.a(_make_df.o)
 .debug_line    0x000014d2      0x121 c:/altera/10.1/nios2eds/bin/gnu/h-i686-mingw32/bin/../lib/gcc/nios2-elf/4.1.2\libgcc.a(_df_to_sf.o)
 .debug_line    0x000015f3       0x94 c:/altera/10.1/nios2eds/bin/gnu/h-i686-mingw32/bin/../lib/gcc/nios2-elf/4.1.2\libgcc.a(_thenan_df.o)
 .debug_line    0x00001687      0x24f c:/altera/10.1/nios2eds/bin/gnu/h-i686-mingw32/bin/../lib/gcc/nios2-elf/4.1.2\libgcc.a(lib2-divmod.o)
 .debug_line    0x000018d6      0x105 c:/altera/10.1/nios2eds/bin/gnu/h-i686-mingw32/bin/../lib/gcc/nios2-elf/4.1.2\libgcc.a(_clzsi2.o)
 .debug_line    0x000019db      0x197 c:/altera/10.1/nios2eds/bin/gnu/h-i686-mingw32/bin/../lib/gcc/nios2-elf/4.1.2\libgcc.a(_unpack_sf.o)
 .debug_line    0x00001b72      0x177 c:/altera/10.1/nios2eds/bin/gnu/h-i686-mingw32/bin/../lib/gcc/nios2-elf/4.1.2\libgcc.a(_fpcmp_parts_sf.o)
 .debug_line    0x00001ce9       0xe1 c:/altera/10.1/nios2eds/bin/gnu/h-i686-mingw32/bin/../lib/gcc/nios2-elf/4.1.2\libgcc.a(_make_sf.o)
 .debug_line    0x00001dca      0x222 c:/altera/10.1/nios2eds/bin/gnu/h-i686-mingw32/bin/../lib/gcc/nios2-elf/4.1.2\libgcc.a(_pack_df.o)
 .debug_line    0x00001fec      0x1e4 c:/altera/10.1/nios2eds/bin/gnu/h-i686-mingw32/bin/../lib/gcc/nios2-elf/4.1.2\libgcc.a(_unpack_df.o)
 .debug_line    0x000021d0      0x187 c:/altera/10.1/nios2eds/bin/gnu/h-i686-mingw32/bin/../lib/gcc/nios2-elf/4.1.2\libgcc.a(_fpcmp_parts_df.o)
 .debug_line    0x00002357       0xaa c:/altera/10.1/nios2eds/bin/gnu/h-i686-mingw32/bin/../lib/gcc/nios2-elf/4.1.2\libgcc.a(_clz.o)
 .debug_line    0x00002401      0x1ca c:/altera/10.1/nios2eds/bin/gnu/h-i686-mingw32/bin/../lib/gcc/nios2-elf/4.1.2\libgcc.a(_pack_sf.o)
 .debug_line    0x000025cb      0x275 c:/altera/10.1/nios2eds/bin/gnu/h-i686-mingw32/bin/../lib/gcc/nios2-elf/4.1.2/../../../../nios2-elf/lib\libc.a(lib_a-printf.o)
 .debug_line    0x00002840      0x217 c:/altera/10.1/nios2eds/bin/gnu/h-i686-mingw32/bin/../lib/gcc/nios2-elf/4.1.2/../../../../nios2-elf/lib\libc.a(lib_a-rand.o)
 .debug_line    0x00002a57      0x221 c:/altera/10.1/nios2eds/bin/gnu/h-i686-mingw32/bin/../lib/gcc/nios2-elf/4.1.2/../../../../nios2-elf/lib\libc.a(lib_a-time.o)
 .debug_line    0x00002c78     0x10e6 c:/altera/10.1/nios2eds/bin/gnu/h-i686-mingw32/bin/../lib/gcc/nios2-elf/4.1.2/../../../../nios2-elf/lib\libc.a(lib_a-vfprintf.o)
 .debug_line    0x00003d5e      0x2ca c:/altera/10.1/nios2eds/bin/gnu/h-i686-mingw32/bin/../lib/gcc/nios2-elf/4.1.2/../../../../nios2-elf/lib\libc.a(lib_a-wsetup.o)
 .debug_line    0x00004028     0x12a0 c:/altera/10.1/nios2eds/bin/gnu/h-i686-mingw32/bin/../lib/gcc/nios2-elf/4.1.2/../../../../nios2-elf/lib\libc.a(lib_a-dtoa.o)
 .debug_line    0x000052c8      0x3e7 c:/altera/10.1/nios2eds/bin/gnu/h-i686-mingw32/bin/../lib/gcc/nios2-elf/4.1.2/../../../../nios2-elf/lib\libc.a(lib_a-fflush.o)
 .debug_line    0x000056af      0x5db c:/altera/10.1/nios2eds/bin/gnu/h-i686-mingw32/bin/../lib/gcc/nios2-elf/4.1.2/../../../../nios2-elf/lib\libc.a(lib_a-findfp.o)
 .debug_line    0x00005c8a      0x5c5 c:/altera/10.1/nios2eds/bin/gnu/h-i686-mingw32/bin/../lib/gcc/nios2-elf/4.1.2/../../../../nios2-elf/lib\libc.a(lib_a-freer.o)
 .debug_line    0x0000624f      0x61b c:/altera/10.1/nios2eds/bin/gnu/h-i686-mingw32/bin/../lib/gcc/nios2-elf/4.1.2/../../../../nios2-elf/lib\libc.a(lib_a-fvwrite.o)
 .debug_line    0x0000686a      0x324 c:/altera/10.1/nios2eds/bin/gnu/h-i686-mingw32/bin/../lib/gcc/nios2-elf/4.1.2/../../../../nios2-elf/lib\libc.a(lib_a-fwalk.o)
 .debug_line    0x00006b8e      0x254 c:/altera/10.1/nios2eds/bin/gnu/h-i686-mingw32/bin/../lib/gcc/nios2-elf/4.1.2/../../../../nios2-elf/lib\libc.a(lib_a-gettimeofdayr.o)
 .debug_line    0x00006de2      0x1f4 c:/altera/10.1/nios2eds/bin/gnu/h-i686-mingw32/bin/../lib/gcc/nios2-elf/4.1.2/../../../../nios2-elf/lib\libc.a(lib_a-impure.o)
 .debug_line    0x00006fd6      0x1b9 c:/altera/10.1/nios2eds/bin/gnu/h-i686-mingw32/bin/../lib/gcc/nios2-elf/4.1.2/../../../../nios2-elf/lib\libc.a(lib_a-int_errno.o)
 .debug_line    0x0000718f      0x2a2 c:/altera/10.1/nios2eds/bin/gnu/h-i686-mingw32/bin/../lib/gcc/nios2-elf/4.1.2/../../../../nios2-elf/lib\libc.a(lib_a-locale.o)
 .debug_line    0x00007431      0x39d c:/altera/10.1/nios2eds/bin/gnu/h-i686-mingw32/bin/../lib/gcc/nios2-elf/4.1.2/../../../../nios2-elf/lib\libc.a(lib_a-makebuf.o)
 .debug_line    0x000077ce      0x7e4 c:/altera/10.1/nios2eds/bin/gnu/h-i686-mingw32/bin/../lib/gcc/nios2-elf/4.1.2/../../../../nios2-elf/lib\libc.a(lib_a-mallocr.o)
 .debug_line    0x00007fb2      0x2ca c:/altera/10.1/nios2eds/bin/gnu/h-i686-mingw32/bin/../lib/gcc/nios2-elf/4.1.2/../../../../nios2-elf/lib\libc.a(lib_a-memchr.o)
 .debug_line    0x0000827c      0x199 c:/altera/10.1/nios2eds/bin/gnu/h-i686-mingw32/bin/../lib/gcc/nios2-elf/4.1.2/../../../../nios2-elf/lib\libc.a(lib_a-memcpy.o)
 .debug_line    0x00008415      0x2d1 c:/altera/10.1/nios2eds/bin/gnu/h-i686-mingw32/bin/../lib/gcc/nios2-elf/4.1.2/../../../../nios2-elf/lib\libc.a(lib_a-memmove.o)
 .debug_line    0x000086e6      0x2c8 c:/altera/10.1/nios2eds/bin/gnu/h-i686-mingw32/bin/../lib/gcc/nios2-elf/4.1.2/../../../../nios2-elf/lib\libc.a(lib_a-memset.o)
 .debug_line    0x000089ae     0x121d c:/altera/10.1/nios2eds/bin/gnu/h-i686-mingw32/bin/../lib/gcc/nios2-elf/4.1.2/../../../../nios2-elf/lib\libc.a(lib_a-mprec.o)
 .debug_line    0x00009bcb      0x564 c:/altera/10.1/nios2eds/bin/gnu/h-i686-mingw32/bin/../lib/gcc/nios2-elf/4.1.2/../../../../nios2-elf/lib\libc.a(lib_a-reallocr.o)
 .debug_line    0x0000a12f      0x1fc c:/altera/10.1/nios2eds/bin/gnu/h-i686-mingw32/bin/../lib/gcc/nios2-elf/4.1.2/../../../../nios2-elf/lib\libc.a(lib_a-s_isinfd.o)
 .debug_line    0x0000a32b      0x1f4 c:/altera/10.1/nios2eds/bin/gnu/h-i686-mingw32/bin/../lib/gcc/nios2-elf/4.1.2/../../../../nios2-elf/lib\libc.a(lib_a-s_isnand.o)
 .debug_line    0x0000a51f      0x260 c:/altera/10.1/nios2eds/bin/gnu/h-i686-mingw32/bin/../lib/gcc/nios2-elf/4.1.2/../../../../nios2-elf/lib\libc.a(lib_a-sbrkr.o)
 .debug_line    0x0000a77f      0x366 c:/altera/10.1/nios2eds/bin/gnu/h-i686-mingw32/bin/../lib/gcc/nios2-elf/4.1.2/../../../../nios2-elf/lib\libc.a(lib_a-stdio.o)
 .debug_line    0x0000aae5      0x29c c:/altera/10.1/nios2eds/bin/gnu/h-i686-mingw32/bin/../lib/gcc/nios2-elf/4.1.2/../../../../nios2-elf/lib\libc.a(lib_a-strcmp.o)
 .debug_line    0x0000ad81      0x234 c:/altera/10.1/nios2eds/bin/gnu/h-i686-mingw32/bin/../lib/gcc/nios2-elf/4.1.2/../../../../nios2-elf/lib\libc.a(lib_a-strlen.o)
 .debug_line    0x0000afb5      0x261 c:/altera/10.1/nios2eds/bin/gnu/h-i686-mingw32/bin/../lib/gcc/nios2-elf/4.1.2/../../../../nios2-elf/lib\libc.a(lib_a-writer.o)
 .debug_line    0x0000b216      0x236 c:/altera/10.1/nios2eds/bin/gnu/h-i686-mingw32/bin/../lib/gcc/nios2-elf/4.1.2/../../../../nios2-elf/lib\libc.a(lib_a-callocr.o)
 .debug_line    0x0000b44c      0x261 c:/altera/10.1/nios2eds/bin/gnu/h-i686-mingw32/bin/../lib/gcc/nios2-elf/4.1.2/../../../../nios2-elf/lib\libc.a(lib_a-closer.o)
 .debug_line    0x0000b6ad      0x2c2 c:/altera/10.1/nios2eds/bin/gnu/h-i686-mingw32/bin/../lib/gcc/nios2-elf/4.1.2/../../../../nios2-elf/lib\libc.a(lib_a-fclose.o)
 .debug_line    0x0000b96f      0x23e c:/altera/10.1/nios2eds/bin/gnu/h-i686-mingw32/bin/../lib/gcc/nios2-elf/4.1.2/../../../../nios2-elf/lib\libc.a(lib_a-fstatr.o)
 .debug_line    0x0000bbad      0x262 c:/altera/10.1/nios2eds/bin/gnu/h-i686-mingw32/bin/../lib/gcc/nios2-elf/4.1.2/../../../../nios2-elf/lib\libc.a(lib_a-isattyr.o)
 .debug_line    0x0000be0f      0x261 c:/altera/10.1/nios2eds/bin/gnu/h-i686-mingw32/bin/../lib/gcc/nios2-elf/4.1.2/../../../../nios2-elf/lib\libc.a(lib_a-lseekr.o)
 .debug_line    0x0000c070      0x260 c:/altera/10.1/nios2eds/bin/gnu/h-i686-mingw32/bin/../lib/gcc/nios2-elf/4.1.2/../../../../nios2-elf/lib\libc.a(lib_a-readr.o)
 .debug_line    0x0000c2d0      0x11f c:/altera/10.1/nios2eds/bin/gnu/h-i686-mingw32/bin/../lib/gcc/nios2-elf/4.1.2\libgcc.a(_muldi3.o)
 .debug_line    0x0000c3ef      0x2f2 c:/altera/10.1/nios2eds/bin/gnu/h-i686-mingw32/bin/../lib/gcc/nios2-elf/4.1.2\libgcc.a(_udivdi3.o)
 .debug_line    0x0000c6e1      0x37d c:/altera/10.1/nios2eds/bin/gnu/h-i686-mingw32/bin/../lib/gcc/nios2-elf/4.1.2\libgcc.a(_umoddi3.o)
 .debug_line    0x0000ca5e      0x430 c:/altera/10.1/nios2eds/bin/gnu/h-i686-mingw32/bin/../lib/gcc/nios2-elf/4.1.2\libgcc.a(_addsub_df.o)
 .debug_line    0x0000ce8e      0x3e5 c:/altera/10.1/nios2eds/bin/gnu/h-i686-mingw32/bin/../lib/gcc/nios2-elf/4.1.2\libgcc.a(_mul_df.o)
 .debug_line    0x0000d273      0x129 c:/altera/10.1/nios2eds/bin/gnu/h-i686-mingw32/bin/../lib/gcc/nios2-elf/4.1.2\libgcc.a(_eq_df.o)
 .debug_line    0x0000d39c      0x129 c:/altera/10.1/nios2eds/bin/gnu/h-i686-mingw32/bin/../lib/gcc/nios2-elf/4.1.2\libgcc.a(_ne_df.o)
 .debug_line    0x0000d4c5      0x129 c:/altera/10.1/nios2eds/bin/gnu/h-i686-mingw32/bin/../lib/gcc/nios2-elf/4.1.2\libgcc.a(_ge_df.o)
 .debug_line    0x0000d5ee      0x149 c:/altera/10.1/nios2eds/bin/gnu/h-i686-mingw32/bin/../lib/gcc/nios2-elf/4.1.2\libgcc.a(_df_to_si.o)
 .debug_line    0x0000d737      0x189 c:/altera/10.1/nios2eds/bin/gnu/h-i686-mingw32/bin/../lib/gcc/nios2-elf/4.1.2\libgcc.a(_usi_to_df.o)
 .debug_line    0x0000d8c0      0x2c6 ../hi_bsp\libhal_bsp.a(alt_close.o)
 .debug_line    0x0000db86      0x281 ../hi_bsp\libhal_bsp.a(alt_dev.o)
 .debug_line    0x0000de07      0x1d7 ../hi_bsp\libhal_bsp.a(alt_errno.o)
 .debug_line    0x0000dfde      0x2ce ../hi_bsp\libhal_bsp.a(alt_fstat.o)
 .debug_line    0x0000e2ac      0x322 ../hi_bsp\libhal_bsp.a(alt_gettod.o)
 .debug_line    0x0000e5ce      0x2cf ../hi_bsp\libhal_bsp.a(alt_isatty.o)
 .debug_line    0x0000e89d      0x2ce ../hi_bsp\libhal_bsp.a(alt_lseek.o)
 .debug_line    0x0000eb6b      0x30b ../hi_bsp\libhal_bsp.a(alt_main.o)
 .debug_line    0x0000ee76      0x239 ../hi_bsp\libhal_bsp.a(alt_malloc_lock.o)
 .debug_line    0x0000f0af      0x20a ../hi_bsp\libhal_bsp.a(alt_printf.o)
 .debug_line    0x0000f2b9      0x1f7 ../hi_bsp\libhal_bsp.a(alt_putchar.o)
 .debug_line    0x0000f4b0      0x2f5 ../hi_bsp\libhal_bsp.a(alt_read.o)
 .debug_line    0x0000f7a5      0x120 ../hi_bsp\libhal_bsp.a(alt_release_fd.o)
 .debug_line    0x0000f8c5      0x2a7 ../hi_bsp\libhal_bsp.a(alt_sbrk.o)
 .debug_line    0x0000fb6c      0x322 ../hi_bsp\libhal_bsp.a(alt_tick.o)
 .debug_line    0x0000fe8e      0x22c ../hi_bsp\libhal_bsp.a(alt_usleep.o)
 .debug_line    0x000100ba      0x2f6 ../hi_bsp\libhal_bsp.a(alt_write.o)
 .debug_line    0x000103b0      0x437 ../hi_bsp\libhal_bsp.a(alt_sys_init.o)
 .debug_line    0x000107e7      0x5a0 ../hi_bsp\libhal_bsp.a(altera_avalon_cfi_flash.o)
 .debug_line    0x00010d87      0x97e ../hi_bsp\libhal_bsp.a(altera_avalon_cfi_flash_table.o)
 .debug_line    0x00011705      0x247 ../hi_bsp\libhal_bsp.a(altera_avalon_jtag_uart_fd.o)
 .debug_line    0x0001194c      0x4ec ../hi_bsp\libhal_bsp.a(altera_avalon_jtag_uart_init.o)
 .debug_line    0x00011e38      0x344 ../hi_bsp\libhal_bsp.a(altera_avalon_jtag_uart_ioctl.o)
 .debug_line    0x0001217c      0x438 ../hi_bsp\libhal_bsp.a(altera_avalon_jtag_uart_read.o)
 .debug_line    0x000125b4      0x446 ../hi_bsp\libhal_bsp.a(altera_avalon_jtag_uart_write.o)
 .debug_line    0x000129fa      0x222 ../hi_bsp\libhal_bsp.a(altera_avalon_spi.o)
 .debug_line    0x00012c1c      0x2f7 ../hi_bsp\libhal_bsp.a(altera_avalon_timer_sc.o)
 .debug_line    0x00012f13      0x202 ../hi_bsp\libhal_bsp.a(altera_avalon_uart_fd.o)
 .debug_line    0x00013115      0x4d6 ../hi_bsp\libhal_bsp.a(altera_avalon_uart_init.o)
 .debug_line    0x000135eb      0x448 ../hi_bsp\libhal_bsp.a(altera_avalon_uart_read.o)
 .debug_line    0x00013a33      0x429 ../hi_bsp\libhal_bsp.a(altera_avalon_uart_write.o)
 .debug_line    0x00013e5c      0x622 ../hi_bsp\libhal_bsp.a(altera_up_avalon_ps2.o)
 .debug_line    0x0001447e      0x3c2 ../hi_bsp\libhal_bsp.a(altera_up_avalon_video_character_buffer_with_dma.o)
 .debug_line    0x00014840      0x575 ../hi_bsp\libhal_bsp.a(altera_up_ps2_keyboard.o)
 .debug_line    0x00014db5      0x322 ../hi_bsp\libhal_bsp.a(alt_alarm_start.o)
 .debug_line    0x000150d7      0x286 ../hi_bsp\libhal_bsp.a(alt_busy_sleep.o)
 .debug_line    0x0001535d      0x20e ../hi_bsp\libhal_bsp.a(alt_dcache_flush.o)
 .debug_line    0x0001556b      0x287 ../hi_bsp\libhal_bsp.a(alt_dev_llist_insert.o)
 .debug_line    0x000157f2       0xb6 ../hi_bsp\libhal_bsp.a(alt_do_ctors.o)
 .debug_line    0x000158a8       0xb6 ../hi_bsp\libhal_bsp.a(alt_do_dtors.o)
 .debug_line    0x0001595e      0x298 ../hi_bsp\libhal_bsp.a(alt_find_dev.o)
 .debug_line    0x00015bf6      0x295 ../hi_bsp\libhal_bsp.a(alt_flash_dev.o)
 .debug_line    0x00015e8b      0x2e1 ../hi_bsp\libhal_bsp.a(alt_io_redirect.o)
 .debug_line    0x0001616c      0x330 ../hi_bsp\libhal_bsp.a(alt_irq_register.o)
 .debug_line    0x0001649c       0xa5 ../hi_bsp\libhal_bsp.a(alt_irq_vars.o)
 .debug_line    0x00016541      0x32c ../hi_bsp\libhal_bsp.a(alt_open.o)
 .debug_line    0x0001686d      0x20f ../hi_bsp\libhal_bsp.a(altera_nios2_irq.o)
 .debug_line    0x00016a7c      0x472 ../hi_bsp\libhal_bsp.a(altera_avalon_cfi_flash_amd.o)
 .debug_line    0x00016eee      0x464 ../hi_bsp\libhal_bsp.a(altera_avalon_cfi_flash_intel.o)
 .debug_line    0x00017352      0x2a9 ../hi_bsp\libhal_bsp.a(alt_find_file.o)
 .debug_line    0x000175fb      0x2c4 ../hi_bsp\libhal_bsp.a(alt_get_fd.o)
 .debug_line    0x000178bf       0x9e ../hi_bsp\libhal_bsp.a(alt_irq_entry.o)
 .debug_line    0x0001795d      0x28e ../hi_bsp\libhal_bsp.a(alt_irq_handler.o)
 .debug_line    0x00017beb       0xde ../hi_bsp\libhal_bsp.a(alt_exception_entry.o)
 .debug_line    0x00017cc9      0x1da c:/altera/10.1/nios2eds/bin/gnu/h-i686-mingw32/bin/../lib/gcc/nios2-elf/4.1.2/../../../../nios2-elf/lib\libc.a(lib_a-atexit.o)
 .debug_line    0x00017ea3      0x212 c:/altera/10.1/nios2eds/bin/gnu/h-i686-mingw32/bin/../lib/gcc/nios2-elf/4.1.2/../../../../nios2-elf/lib\libc.a(lib_a-exit.o)
 .debug_line    0x000180b5      0x266 c:/altera/10.1/nios2eds/bin/gnu/h-i686-mingw32/bin/../lib/gcc/nios2-elf/4.1.2/../../../../nios2-elf/lib\libc.a(lib_a-memcmp.o)
 .debug_line    0x0001831b      0x29e c:/altera/10.1/nios2eds/bin/gnu/h-i686-mingw32/bin/../lib/gcc/nios2-elf/4.1.2/../../../../nios2-elf/lib\libc.a(lib_a-putc.o)
 .debug_line    0x000185b9      0x24e c:/altera/10.1/nios2eds/bin/gnu/h-i686-mingw32/bin/../lib/gcc/nios2-elf/4.1.2/../../../../nios2-elf/lib\libc.a(lib_a-strcpy.o)
 .debug_line    0x00018807      0x32a c:/altera/10.1/nios2eds/bin/gnu/h-i686-mingw32/bin/../lib/gcc/nios2-elf/4.1.2/../../../../nios2-elf/lib\libc.a(lib_a-wbuf.o)
 .debug_line    0x00018b31      0x2ed c:/altera/10.1/nios2eds/bin/gnu/h-i686-mingw32/bin/../lib/gcc/nios2-elf/4.1.2/../../../../nios2-elf/lib\libc.a(lib_a-__atexit.o)
 .debug_line    0x00018e1e      0x341 c:/altera/10.1/nios2eds/bin/gnu/h-i686-mingw32/bin/../lib/gcc/nios2-elf/4.1.2/../../../../nios2-elf/lib\libc.a(lib_a-__call_atexit.o)
 .debug_line    0x0001915f      0x24c ../hi_bsp\libhal_bsp.a(alt_exit.o)

.debug_frame    0x00000000     0x24f0
 *(.debug_frame)
 .debug_frame   0x00000000      0x198 obj/hello_world.o
 .debug_frame   0x00000198       0x2c c:/altera/10.1/nios2eds/bin/gnu/h-i686-mingw32/bin/../lib/gcc/nios2-elf/4.1.2\libgcc.a(_gt_sf.o)
 .debug_frame   0x000001c4       0x2c c:/altera/10.1/nios2eds/bin/gnu/h-i686-mingw32/bin/../lib/gcc/nios2-elf/4.1.2\libgcc.a(_lt_sf.o)
 .debug_frame   0x000001f0       0x28 c:/altera/10.1/nios2eds/bin/gnu/h-i686-mingw32/bin/../lib/gcc/nios2-elf/4.1.2\libgcc.a(_sf_to_df.o)
 .debug_frame   0x00000218       0x30 c:/altera/10.1/nios2eds/bin/gnu/h-i686-mingw32/bin/../lib/gcc/nios2-elf/4.1.2\libgcc.a(_div_df.o)
 .debug_frame   0x00000248       0x2c c:/altera/10.1/nios2eds/bin/gnu/h-i686-mingw32/bin/../lib/gcc/nios2-elf/4.1.2\libgcc.a(_gt_df.o)
 .debug_frame   0x00000274       0x2c c:/altera/10.1/nios2eds/bin/gnu/h-i686-mingw32/bin/../lib/gcc/nios2-elf/4.1.2\libgcc.a(_lt_df.o)
 .debug_frame   0x000002a0       0x30 c:/altera/10.1/nios2eds/bin/gnu/h-i686-mingw32/bin/../lib/gcc/nios2-elf/4.1.2\libgcc.a(_si_to_df.o)
 .debug_frame   0x000002d0       0x28 c:/altera/10.1/nios2eds/bin/gnu/h-i686-mingw32/bin/../lib/gcc/nios2-elf/4.1.2\libgcc.a(_make_df.o)
 .debug_frame   0x000002f8       0x28 c:/altera/10.1/nios2eds/bin/gnu/h-i686-mingw32/bin/../lib/gcc/nios2-elf/4.1.2\libgcc.a(_df_to_sf.o)
 .debug_frame   0x00000320       0x70 c:/altera/10.1/nios2eds/bin/gnu/h-i686-mingw32/bin/../lib/gcc/nios2-elf/4.1.2\libgcc.a(lib2-divmod.o)
 .debug_frame   0x00000390       0x20 c:/altera/10.1/nios2eds/bin/gnu/h-i686-mingw32/bin/../lib/gcc/nios2-elf/4.1.2\libgcc.a(_clzsi2.o)
 .debug_frame   0x000003b0       0x20 c:/altera/10.1/nios2eds/bin/gnu/h-i686-mingw32/bin/../lib/gcc/nios2-elf/4.1.2\libgcc.a(_unpack_sf.o)
 .debug_frame   0x000003d0       0x20 c:/altera/10.1/nios2eds/bin/gnu/h-i686-mingw32/bin/../lib/gcc/nios2-elf/4.1.2\libgcc.a(_fpcmp_parts_sf.o)
 .debug_frame   0x000003f0       0x28 c:/altera/10.1/nios2eds/bin/gnu/h-i686-mingw32/bin/../lib/gcc/nios2-elf/4.1.2\libgcc.a(_make_sf.o)
 .debug_frame   0x00000418       0x2c c:/altera/10.1/nios2eds/bin/gnu/h-i686-mingw32/bin/../lib/gcc/nios2-elf/4.1.2\libgcc.a(_pack_df.o)
 .debug_frame   0x00000444       0x20 c:/altera/10.1/nios2eds/bin/gnu/h-i686-mingw32/bin/../lib/gcc/nios2-elf/4.1.2\libgcc.a(_unpack_df.o)
 .debug_frame   0x00000464       0x20 c:/altera/10.1/nios2eds/bin/gnu/h-i686-mingw32/bin/../lib/gcc/nios2-elf/4.1.2\libgcc.a(_fpcmp_parts_df.o)
 .debug_frame   0x00000484       0x20 c:/altera/10.1/nios2eds/bin/gnu/h-i686-mingw32/bin/../lib/gcc/nios2-elf/4.1.2\libgcc.a(_pack_sf.o)
 .debug_frame   0x000004a4       0x40 c:/altera/10.1/nios2eds/bin/gnu/h-i686-mingw32/bin/../lib/gcc/nios2-elf/4.1.2/../../../../nios2-elf/lib\libc.a(lib_a-printf.o)
 .debug_frame   0x000004e4       0x3c c:/altera/10.1/nios2eds/bin/gnu/h-i686-mingw32/bin/../lib/gcc/nios2-elf/4.1.2/../../../../nios2-elf/lib\libc.a(lib_a-rand.o)
 .debug_frame   0x00000520       0x2c c:/altera/10.1/nios2eds/bin/gnu/h-i686-mingw32/bin/../lib/gcc/nios2-elf/4.1.2/../../../../nios2-elf/lib\libc.a(lib_a-time.o)
 .debug_frame   0x0000054c       0x64 c:/altera/10.1/nios2eds/bin/gnu/h-i686-mingw32/bin/../lib/gcc/nios2-elf/4.1.2/../../../../nios2-elf/lib\libc.a(lib_a-vfprintf.o)
 .debug_frame   0x000005b0       0x2c c:/altera/10.1/nios2eds/bin/gnu/h-i686-mingw32/bin/../lib/gcc/nios2-elf/4.1.2/../../../../nios2-elf/lib\libc.a(lib_a-wsetup.o)
 .debug_frame   0x000005dc       0x64 c:/altera/10.1/nios2eds/bin/gnu/h-i686-mingw32/bin/../lib/gcc/nios2-elf/4.1.2/../../../../nios2-elf/lib\libc.a(lib_a-dtoa.o)
 .debug_frame   0x00000640       0x40 c:/altera/10.1/nios2eds/bin/gnu/h-i686-mingw32/bin/../lib/gcc/nios2-elf/4.1.2/../../../../nios2-elf/lib\libc.a(lib_a-fflush.o)
 .debug_frame   0x00000680      0x118 c:/altera/10.1/nios2eds/bin/gnu/h-i686-mingw32/bin/../lib/gcc/nios2-elf/4.1.2/../../../../nios2-elf/lib\libc.a(lib_a-findfp.o)
 .debug_frame   0x00000798       0x4c c:/altera/10.1/nios2eds/bin/gnu/h-i686-mingw32/bin/../lib/gcc/nios2-elf/4.1.2/../../../../nios2-elf/lib\libc.a(lib_a-freer.o)
 .debug_frame   0x000007e4       0x38 c:/altera/10.1/nios2eds/bin/gnu/h-i686-mingw32/bin/../lib/gcc/nios2-elf/4.1.2/../../../../nios2-elf/lib\libc.a(lib_a-fvwrite.o)
 .debug_frame   0x0000081c       0x60 c:/altera/10.1/nios2eds/bin/gnu/h-i686-mingw32/bin/../lib/gcc/nios2-elf/4.1.2/../../../../nios2-elf/lib\libc.a(lib_a-fwalk.o)
 .debug_frame   0x0000087c       0x2c c:/altera/10.1/nios2eds/bin/gnu/h-i686-mingw32/bin/../lib/gcc/nios2-elf/4.1.2/../../../../nios2-elf/lib\libc.a(lib_a-gettimeofdayr.o)
 .debug_frame   0x000008a8       0x70 c:/altera/10.1/nios2eds/bin/gnu/h-i686-mingw32/bin/../lib/gcc/nios2-elf/4.1.2/../../../../nios2-elf/lib\libc.a(lib_a-locale.o)
 .debug_frame   0x00000918       0x2c c:/altera/10.1/nios2eds/bin/gnu/h-i686-mingw32/bin/../lib/gcc/nios2-elf/4.1.2/../../../../nios2-elf/lib\libc.a(lib_a-makebuf.o)
 .debug_frame   0x00000944       0x38 c:/altera/10.1/nios2eds/bin/gnu/h-i686-mingw32/bin/../lib/gcc/nios2-elf/4.1.2/../../../../nios2-elf/lib\libc.a(lib_a-mallocr.o)
 .debug_frame   0x0000097c       0x20 c:/altera/10.1/nios2eds/bin/gnu/h-i686-mingw32/bin/../lib/gcc/nios2-elf/4.1.2/../../../../nios2-elf/lib\libc.a(lib_a-memchr.o)
 .debug_frame   0x0000099c       0x20 c:/altera/10.1/nios2eds/bin/gnu/h-i686-mingw32/bin/../lib/gcc/nios2-elf/4.1.2/../../../../nios2-elf/lib\libc.a(lib_a-memcpy.o)
 .debug_frame   0x000009bc       0x20 c:/altera/10.1/nios2eds/bin/gnu/h-i686-mingw32/bin/../lib/gcc/nios2-elf/4.1.2/../../../../nios2-elf/lib\libc.a(lib_a-memmove.o)
 .debug_frame   0x000009dc       0x20 c:/altera/10.1/nios2eds/bin/gnu/h-i686-mingw32/bin/../lib/gcc/nios2-elf/4.1.2/../../../../nios2-elf/lib\libc.a(lib_a-memset.o)
 .debug_frame   0x000009fc      0x218 c:/altera/10.1/nios2eds/bin/gnu/h-i686-mingw32/bin/../lib/gcc/nios2-elf/4.1.2/../../../../nios2-elf/lib\libc.a(lib_a-mprec.o)
 .debug_frame   0x00000c14       0x38 c:/altera/10.1/nios2eds/bin/gnu/h-i686-mingw32/bin/../lib/gcc/nios2-elf/4.1.2/../../../../nios2-elf/lib\libc.a(lib_a-reallocr.o)
 .debug_frame   0x00000c4c       0x20 c:/altera/10.1/nios2eds/bin/gnu/h-i686-mingw32/bin/../lib/gcc/nios2-elf/4.1.2/../../../../nios2-elf/lib\libc.a(lib_a-s_isinfd.o)
 .debug_frame   0x00000c6c       0x20 c:/altera/10.1/nios2eds/bin/gnu/h-i686-mingw32/bin/../lib/gcc/nios2-elf/4.1.2/../../../../nios2-elf/lib\libc.a(lib_a-s_isnand.o)
 .debug_frame   0x00000c8c       0x2c c:/altera/10.1/nios2eds/bin/gnu/h-i686-mingw32/bin/../lib/gcc/nios2-elf/4.1.2/../../../../nios2-elf/lib\libc.a(lib_a-sbrkr.o)
 .debug_frame   0x00000cb8       0x78 c:/altera/10.1/nios2eds/bin/gnu/h-i686-mingw32/bin/../lib/gcc/nios2-elf/4.1.2/../../../../nios2-elf/lib\libc.a(lib_a-stdio.o)
 .debug_frame   0x00000d30       0x20 c:/altera/10.1/nios2eds/bin/gnu/h-i686-mingw32/bin/../lib/gcc/nios2-elf/4.1.2/../../../../nios2-elf/lib\libc.a(lib_a-strcmp.o)
 .debug_frame   0x00000d50       0x20 c:/altera/10.1/nios2eds/bin/gnu/h-i686-mingw32/bin/../lib/gcc/nios2-elf/4.1.2/../../../../nios2-elf/lib\libc.a(lib_a-strlen.o)
 .debug_frame   0x00000d70       0x2c c:/altera/10.1/nios2eds/bin/gnu/h-i686-mingw32/bin/../lib/gcc/nios2-elf/4.1.2/../../../../nios2-elf/lib\libc.a(lib_a-writer.o)
 .debug_frame   0x00000d9c       0x28 c:/altera/10.1/nios2eds/bin/gnu/h-i686-mingw32/bin/../lib/gcc/nios2-elf/4.1.2/../../../../nios2-elf/lib\libc.a(lib_a-callocr.o)
 .debug_frame   0x00000dc4       0x2c c:/altera/10.1/nios2eds/bin/gnu/h-i686-mingw32/bin/../lib/gcc/nios2-elf/4.1.2/../../../../nios2-elf/lib\libc.a(lib_a-closer.o)
 .debug_frame   0x00000df0       0x3c c:/altera/10.1/nios2eds/bin/gnu/h-i686-mingw32/bin/../lib/gcc/nios2-elf/4.1.2/../../../../nios2-elf/lib\libc.a(lib_a-fclose.o)
 .debug_frame   0x00000e2c       0x2c c:/altera/10.1/nios2eds/bin/gnu/h-i686-mingw32/bin/../lib/gcc/nios2-elf/4.1.2/../../../../nios2-elf/lib\libc.a(lib_a-fstatr.o)
 .debug_frame   0x00000e58       0x2c c:/altera/10.1/nios2eds/bin/gnu/h-i686-mingw32/bin/../lib/gcc/nios2-elf/4.1.2/../../../../nios2-elf/lib\libc.a(lib_a-isattyr.o)
 .debug_frame   0x00000e84       0x2c c:/altera/10.1/nios2eds/bin/gnu/h-i686-mingw32/bin/../lib/gcc/nios2-elf/4.1.2/../../../../nios2-elf/lib\libc.a(lib_a-lseekr.o)
 .debug_frame   0x00000eb0       0x2c c:/altera/10.1/nios2eds/bin/gnu/h-i686-mingw32/bin/../lib/gcc/nios2-elf/4.1.2/../../../../nios2-elf/lib\libc.a(lib_a-readr.o)
 .debug_frame   0x00000edc       0x2c c:/altera/10.1/nios2eds/bin/gnu/h-i686-mingw32/bin/../lib/gcc/nios2-elf/4.1.2\libgcc.a(_muldi3.o)
 .debug_frame   0x00000f08       0x38 c:/altera/10.1/nios2eds/bin/gnu/h-i686-mingw32/bin/../lib/gcc/nios2-elf/4.1.2\libgcc.a(_udivdi3.o)
 .debug_frame   0x00000f40       0x38 c:/altera/10.1/nios2eds/bin/gnu/h-i686-mingw32/bin/../lib/gcc/nios2-elf/4.1.2\libgcc.a(_umoddi3.o)
 .debug_frame   0x00000f78       0x70 c:/altera/10.1/nios2eds/bin/gnu/h-i686-mingw32/bin/../lib/gcc/nios2-elf/4.1.2\libgcc.a(_addsub_df.o)
 .debug_frame   0x00000fe8       0x3c c:/altera/10.1/nios2eds/bin/gnu/h-i686-mingw32/bin/../lib/gcc/nios2-elf/4.1.2\libgcc.a(_mul_df.o)
 .debug_frame   0x00001024       0x2c c:/altera/10.1/nios2eds/bin/gnu/h-i686-mingw32/bin/../lib/gcc/nios2-elf/4.1.2\libgcc.a(_eq_df.o)
 .debug_frame   0x00001050       0x2c c:/altera/10.1/nios2eds/bin/gnu/h-i686-mingw32/bin/../lib/gcc/nios2-elf/4.1.2\libgcc.a(_ne_df.o)
 .debug_frame   0x0000107c       0x2c c:/altera/10.1/nios2eds/bin/gnu/h-i686-mingw32/bin/../lib/gcc/nios2-elf/4.1.2\libgcc.a(_ge_df.o)
 .debug_frame   0x000010a8       0x28 c:/altera/10.1/nios2eds/bin/gnu/h-i686-mingw32/bin/../lib/gcc/nios2-elf/4.1.2\libgcc.a(_df_to_si.o)
 .debug_frame   0x000010d0       0x38 c:/altera/10.1/nios2eds/bin/gnu/h-i686-mingw32/bin/../lib/gcc/nios2-elf/4.1.2\libgcc.a(_usi_to_df.o)
 .debug_frame   0x00001108       0x48 ../hi_bsp\libhal_bsp.a(alt_close.o)
 .debug_frame   0x00001150       0x2c ../hi_bsp\libhal_bsp.a(alt_dev.o)
 .debug_frame   0x0000117c       0x48 ../hi_bsp\libhal_bsp.a(alt_fstat.o)
 .debug_frame   0x000011c4       0x34 ../hi_bsp\libhal_bsp.a(alt_gettod.o)
 .debug_frame   0x000011f8       0x48 ../hi_bsp\libhal_bsp.a(alt_isatty.o)
 .debug_frame   0x00001240       0x48 ../hi_bsp\libhal_bsp.a(alt_lseek.o)
 .debug_frame   0x00001288       0x2c ../hi_bsp\libhal_bsp.a(alt_main.o)
 .debug_frame   0x000012b4       0x48 ../hi_bsp\libhal_bsp.a(alt_malloc_lock.o)
 .debug_frame   0x000012fc       0x2c ../hi_bsp\libhal_bsp.a(alt_printf.o)
 .debug_frame   0x00001328       0x2c ../hi_bsp\libhal_bsp.a(alt_putchar.o)
 .debug_frame   0x00001354       0x48 ../hi_bsp\libhal_bsp.a(alt_read.o)
 .debug_frame   0x0000139c       0x2c ../hi_bsp\libhal_bsp.a(alt_release_fd.o)
 .debug_frame   0x000013c8       0x2c ../hi_bsp\libhal_bsp.a(alt_sbrk.o)
 .debug_frame   0x000013f4       0x48 ../hi_bsp\libhal_bsp.a(alt_tick.o)
 .debug_frame   0x0000143c       0x2c ../hi_bsp\libhal_bsp.a(alt_usleep.o)
 .debug_frame   0x00001468       0x48 ../hi_bsp\libhal_bsp.a(alt_write.o)
 .debug_frame   0x000014b0       0x64 ../hi_bsp\libhal_bsp.a(alt_sys_init.o)
 .debug_frame   0x00001514       0xd4 ../hi_bsp\libhal_bsp.a(altera_avalon_cfi_flash.o)
 .debug_frame   0x000015e8      0x210 ../hi_bsp\libhal_bsp.a(altera_avalon_cfi_flash_table.o)
 .debug_frame   0x000017f8       0x80 ../hi_bsp\libhal_bsp.a(altera_avalon_jtag_uart_fd.o)
 .debug_frame   0x00001878       0x80 ../hi_bsp\libhal_bsp.a(altera_avalon_jtag_uart_init.o)
 .debug_frame   0x000018f8       0x2c ../hi_bsp\libhal_bsp.a(altera_avalon_jtag_uart_ioctl.o)
 .debug_frame   0x00001924       0x2c ../hi_bsp\libhal_bsp.a(altera_avalon_jtag_uart_read.o)
 .debug_frame   0x00001950       0x2c ../hi_bsp\libhal_bsp.a(altera_avalon_jtag_uart_write.o)
 .debug_frame   0x0000197c       0x2c ../hi_bsp\libhal_bsp.a(altera_avalon_spi.o)
 .debug_frame   0x000019a8       0x48 ../hi_bsp\libhal_bsp.a(altera_avalon_timer_sc.o)
 .debug_frame   0x000019f0       0x64 ../hi_bsp\libhal_bsp.a(altera_avalon_uart_fd.o)
 .debug_frame   0x00001a54       0x9c ../hi_bsp\libhal_bsp.a(altera_avalon_uart_init.o)
 .debug_frame   0x00001af0       0x48 ../hi_bsp\libhal_bsp.a(altera_avalon_uart_read.o)
 .debug_frame   0x00001b38       0x48 ../hi_bsp\libhal_bsp.a(altera_avalon_uart_write.o)
 .debug_frame   0x00001b80      0x208 ../hi_bsp\libhal_bsp.a(altera_up_avalon_ps2.o)
 .debug_frame   0x00001d88       0x9c ../hi_bsp\libhal_bsp.a(altera_up_avalon_video_character_buffer_with_dma.o)
 .debug_frame   0x00001e24       0xd4 ../hi_bsp\libhal_bsp.a(altera_up_ps2_keyboard.o)
 .debug_frame   0x00001ef8       0x2c ../hi_bsp\libhal_bsp.a(alt_alarm_start.o)
 .debug_frame   0x00001f24       0x2c ../hi_bsp\libhal_bsp.a(alt_busy_sleep.o)
 .debug_frame   0x00001f50       0x2c ../hi_bsp\libhal_bsp.a(alt_dcache_flush.o)
 .debug_frame   0x00001f7c       0x48 ../hi_bsp\libhal_bsp.a(alt_dev_llist_insert.o)
 .debug_frame   0x00001fc4       0x2c ../hi_bsp\libhal_bsp.a(alt_do_ctors.o)
 .debug_frame   0x00001ff0       0x2c ../hi_bsp\libhal_bsp.a(alt_do_dtors.o)
 .debug_frame   0x0000201c       0x2c ../hi_bsp\libhal_bsp.a(alt_find_dev.o)
 .debug_frame   0x00002048       0x48 ../hi_bsp\libhal_bsp.a(alt_flash_dev.o)
 .debug_frame   0x00002090       0x48 ../hi_bsp\libhal_bsp.a(alt_io_redirect.o)
 .debug_frame   0x000020d8       0x2c ../hi_bsp\libhal_bsp.a(alt_irq_register.o)
 .debug_frame   0x00002104       0x64 ../hi_bsp\libhal_bsp.a(alt_open.o)
 .debug_frame   0x00002168       0x2c ../hi_bsp\libhal_bsp.a(altera_nios2_irq.o)
 .debug_frame   0x00002194       0x80 ../hi_bsp\libhal_bsp.a(altera_avalon_cfi_flash_amd.o)
 .debug_frame   0x00002214       0x80 ../hi_bsp\libhal_bsp.a(altera_avalon_cfi_flash_intel.o)
 .debug_frame   0x00002294       0x2c ../hi_bsp\libhal_bsp.a(alt_find_file.o)
 .debug_frame   0x000022c0       0x2c ../hi_bsp\libhal_bsp.a(alt_get_fd.o)
 .debug_frame   0x000022ec       0x2c ../hi_bsp\libhal_bsp.a(alt_irq_handler.o)
 .debug_frame   0x00002318       0x20 c:/altera/10.1/nios2eds/bin/gnu/h-i686-mingw32/bin/../lib/gcc/nios2-elf/4.1.2/../../../../nios2-elf/lib\libc.a(lib_a-atexit.o)
 .debug_frame   0x00002338       0x28 c:/altera/10.1/nios2eds/bin/gnu/h-i686-mingw32/bin/../lib/gcc/nios2-elf/4.1.2/../../../../nios2-elf/lib\libc.a(lib_a-exit.o)
 .debug_frame   0x00002360       0x20 c:/altera/10.1/nios2eds/bin/gnu/h-i686-mingw32/bin/../lib/gcc/nios2-elf/4.1.2/../../../../nios2-elf/lib\libc.a(lib_a-memcmp.o)
 .debug_frame   0x00002380       0x4c c:/altera/10.1/nios2eds/bin/gnu/h-i686-mingw32/bin/../lib/gcc/nios2-elf/4.1.2/../../../../nios2-elf/lib\libc.a(lib_a-putc.o)
 .debug_frame   0x000023cc       0x20 c:/altera/10.1/nios2eds/bin/gnu/h-i686-mingw32/bin/../lib/gcc/nios2-elf/4.1.2/../../../../nios2-elf/lib\libc.a(lib_a-strcpy.o)
 .debug_frame   0x000023ec       0x3c c:/altera/10.1/nios2eds/bin/gnu/h-i686-mingw32/bin/../lib/gcc/nios2-elf/4.1.2/../../../../nios2-elf/lib\libc.a(lib_a-wbuf.o)
 .debug_frame   0x00002428       0x34 c:/altera/10.1/nios2eds/bin/gnu/h-i686-mingw32/bin/../lib/gcc/nios2-elf/4.1.2/../../../../nios2-elf/lib\libc.a(lib_a-__atexit.o)
 .debug_frame   0x0000245c       0x4c c:/altera/10.1/nios2eds/bin/gnu/h-i686-mingw32/bin/../lib/gcc/nios2-elf/4.1.2/../../../../nios2-elf/lib\libc.a(lib_a-__call_atexit.o)
 .debug_frame   0x000024a8       0x48 ../hi_bsp\libhal_bsp.a(alt_exit.o)

.debug_str      0x00000000     0x2771
 *(.debug_str)
 .debug_str     0x00000000       0x51 obj/hello_world.o
 .debug_str     0x00000051      0x180 c:/altera/10.1/nios2eds/bin/gnu/h-i686-mingw32/bin/../lib/gcc/nios2-elf/4.1.2\libgcc.a(_gt_sf.o)
                                0x1e5 (size before relaxing)
 .debug_str     0x000001d1        0x8 c:/altera/10.1/nios2eds/bin/gnu/h-i686-mingw32/bin/../lib/gcc/nios2-elf/4.1.2\libgcc.a(_lt_sf.o)
                                0x1e5 (size before relaxing)
 .debug_str     0x000001d9       0x15 c:/altera/10.1/nios2eds/bin/gnu/h-i686-mingw32/bin/../lib/gcc/nios2-elf/4.1.2\libgcc.a(_sf_to_df.o)
                                0x1df (size before relaxing)
 .debug_str     0x000001ee       0x65 c:/altera/10.1/nios2eds/bin/gnu/h-i686-mingw32/bin/../lib/gcc/nios2-elf/4.1.2\libgcc.a(_div_df.o)
                                0x21e (size before relaxing)
 .debug_str     0x00000253        0x8 c:/altera/10.1/nios2eds/bin/gnu/h-i686-mingw32/bin/../lib/gcc/nios2-elf/4.1.2\libgcc.a(_gt_df.o)
                                0x1eb (size before relaxing)
 .debug_str     0x0000025b        0x8 c:/altera/10.1/nios2eds/bin/gnu/h-i686-mingw32/bin/../lib/gcc/nios2-elf/4.1.2\libgcc.a(_lt_df.o)
                                0x1eb (size before relaxing)
 .debug_str     0x00000263       0x18 c:/altera/10.1/nios2eds/bin/gnu/h-i686-mingw32/bin/../lib/gcc/nios2-elf/4.1.2\libgcc.a(_si_to_df.o)
                                0x1cb (size before relaxing)
 .debug_str     0x0000027b        0xa c:/altera/10.1/nios2eds/bin/gnu/h-i686-mingw32/bin/../lib/gcc/nios2-elf/4.1.2\libgcc.a(_make_df.o)
                                0x1a6 (size before relaxing)
 .debug_str     0x00000285       0x14 c:/altera/10.1/nios2eds/bin/gnu/h-i686-mingw32/bin/../lib/gcc/nios2-elf/4.1.2\libgcc.a(_df_to_sf.o)
                                0x1eb (size before relaxing)
 .debug_str     0x00000000      0x190 c:/altera/10.1/nios2eds/bin/gnu/h-i686-mingw32/bin/../lib/gcc/nios2-elf/4.1.2\libgcc.a(_thenan_df.o)
 .debug_str     0x00000299       0xa1 c:/altera/10.1/nios2eds/bin/gnu/h-i686-mingw32/bin/../lib/gcc/nios2-elf/4.1.2\libgcc.a(lib2-divmod.o)
                                0x1a1 (size before relaxing)
 .debug_str     0x0000033a       0x40 c:/altera/10.1/nios2eds/bin/gnu/h-i686-mingw32/bin/../lib/gcc/nios2-elf/4.1.2\libgcc.a(_clzsi2.o)
                                0x16b (size before relaxing)
 .debug_str     0x0000037a        0xb c:/altera/10.1/nios2eds/bin/gnu/h-i686-mingw32/bin/../lib/gcc/nios2-elf/4.1.2\libgcc.a(_unpack_sf.o)
                                0x1cf (size before relaxing)
 .debug_str     0x00000385       0x10 c:/altera/10.1/nios2eds/bin/gnu/h-i686-mingw32/bin/../lib/gcc/nios2-elf/4.1.2\libgcc.a(_fpcmp_parts_sf.o)
                                0x1b3 (size before relaxing)
 .debug_str     0x00000395        0xa c:/altera/10.1/nios2eds/bin/gnu/h-i686-mingw32/bin/../lib/gcc/nios2-elf/4.1.2\libgcc.a(_make_sf.o)
                                0x1a6 (size before relaxing)
 .debug_str     0x0000039f       0x10 c:/altera/10.1/nios2eds/bin/gnu/h-i686-mingw32/bin/../lib/gcc/nios2-elf/4.1.2\libgcc.a(_pack_df.o)
                                0x1f3 (size before relaxing)
 .debug_str     0x000003af        0xb c:/altera/10.1/nios2eds/bin/gnu/h-i686-mingw32/bin/../lib/gcc/nios2-elf/4.1.2\libgcc.a(_unpack_df.o)
                                0x1d5 (size before relaxing)
 .debug_str     0x000003ba       0x10 c:/altera/10.1/nios2eds/bin/gnu/h-i686-mingw32/bin/../lib/gcc/nios2-elf/4.1.2\libgcc.a(_fpcmp_parts_df.o)
                                0x1b3 (size before relaxing)
 .debug_str     0x00000000      0x14e c:/altera/10.1/nios2eds/bin/gnu/h-i686-mingw32/bin/../lib/gcc/nios2-elf/4.1.2\libgcc.a(_clz.o)
 .debug_str     0x000003ca        0x9 c:/altera/10.1/nios2eds/bin/gnu/h-i686-mingw32/bin/../lib/gcc/nios2-elf/4.1.2\libgcc.a(_pack_sf.o)
                                0x1ed (size before relaxing)
 .debug_str     0x000003d3      0x42c c:/altera/10.1/nios2eds/bin/gnu/h-i686-mingw32/bin/../lib/gcc/nios2-elf/4.1.2/../../../../nios2-elf/lib\libc.a(lib_a-printf.o)
                                0x510 (size before relaxing)
 .debug_str     0x000007ff       0xb8 c:/altera/10.1/nios2eds/bin/gnu/h-i686-mingw32/bin/../lib/gcc/nios2-elf/4.1.2/../../../../nios2-elf/lib\libc.a(lib_a-rand.o)
                                0x4f8 (size before relaxing)
 .debug_str     0x000008b7       0xd0 c:/altera/10.1/nios2eds/bin/gnu/h-i686-mingw32/bin/../lib/gcc/nios2-elf/4.1.2/../../../../nios2-elf/lib\libc.a(lib_a-time.o)
                                0x513 (size before relaxing)
 .debug_str     0x00000987      0x1c1 c:/altera/10.1/nios2eds/bin/gnu/h-i686-mingw32/bin/../lib/gcc/nios2-elf/4.1.2/../../../../nios2-elf/lib\libc.a(lib_a-vfprintf.o)
                                0x6e5 (size before relaxing)
 .debug_str     0x00000b48       0x46 c:/altera/10.1/nios2eds/bin/gnu/h-i686-mingw32/bin/../lib/gcc/nios2-elf/4.1.2/../../../../nios2-elf/lib\libc.a(lib_a-wsetup.o)
                                0x4f9 (size before relaxing)
 .debug_str     0x00000b8e      0x102 c:/altera/10.1/nios2eds/bin/gnu/h-i686-mingw32/bin/../lib/gcc/nios2-elf/4.1.2/../../../../nios2-elf/lib\libc.a(lib_a-dtoa.o)
                                0x5ee (size before relaxing)
 .debug_str     0x00000c90       0x65 c:/altera/10.1/nios2eds/bin/gnu/h-i686-mingw32/bin/../lib/gcc/nios2-elf/4.1.2/../../../../nios2-elf/lib\libc.a(lib_a-fflush.o)
                                0x51f (size before relaxing)
 .debug_str     0x00000cf5      0x102 c:/altera/10.1/nios2eds/bin/gnu/h-i686-mingw32/bin/../lib/gcc/nios2-elf/4.1.2/../../../../nios2-elf/lib\libc.a(lib_a-findfp.o)
                                0x5e1 (size before relaxing)
 .debug_str     0x00000df7      0x15b c:/altera/10.1/nios2eds/bin/gnu/h-i686-mingw32/bin/../lib/gcc/nios2-elf/4.1.2/../../../../nios2-elf/lib\libc.a(lib_a-freer.o)
                                0x630 (size before relaxing)
 .debug_str     0x00000f52       0x66 c:/altera/10.1/nios2eds/bin/gnu/h-i686-mingw32/bin/../lib/gcc/nios2-elf/4.1.2/../../../../nios2-elf/lib\libc.a(lib_a-fvwrite.o)
                                0x550 (size before relaxing)
 .debug_str     0x00000fb8       0x5e c:/altera/10.1/nios2eds/bin/gnu/h-i686-mingw32/bin/../lib/gcc/nios2-elf/4.1.2/../../../../nios2-elf/lib\libc.a(lib_a-fwalk.o)
                                0x522 (size before relaxing)
 .debug_str     0x00001016       0xdc c:/altera/10.1/nios2eds/bin/gnu/h-i686-mingw32/bin/../lib/gcc/nios2-elf/4.1.2/../../../../nios2-elf/lib\libc.a(lib_a-gettimeofdayr.o)
                                0x536 (size before relaxing)
 .debug_str     0x000010f2       0x46 c:/altera/10.1/nios2eds/bin/gnu/h-i686-mingw32/bin/../lib/gcc/nios2-elf/4.1.2/../../../../nios2-elf/lib\libc.a(lib_a-impure.o)
                                0x507 (size before relaxing)
 .debug_str     0x00001138       0x3d c:/altera/10.1/nios2eds/bin/gnu/h-i686-mingw32/bin/../lib/gcc/nios2-elf/4.1.2/../../../../nios2-elf/lib\libc.a(lib_a-int_errno.o)
                                0x150 (size before relaxing)
 .debug_str     0x00001175      0x212 c:/altera/10.1/nios2eds/bin/gnu/h-i686-mingw32/bin/../lib/gcc/nios2-elf/4.1.2/../../../../nios2-elf/lib\libc.a(lib_a-locale.o)
                                0x696 (size before relaxing)
 .debug_str     0x00001387      0x11c c:/altera/10.1/nios2eds/bin/gnu/h-i686-mingw32/bin/../lib/gcc/nios2-elf/4.1.2/../../../../nios2-elf/lib\libc.a(lib_a-makebuf.o)
                                0x5f3 (size before relaxing)
 .debug_str     0x000014a3       0xef c:/altera/10.1/nios2eds/bin/gnu/h-i686-mingw32/bin/../lib/gcc/nios2-elf/4.1.2/../../../../nios2-elf/lib\libc.a(lib_a-mallocr.o)
                                0x6de (size before relaxing)
 .debug_str     0x00001592       0xd5 c:/altera/10.1/nios2eds/bin/gnu/h-i686-mingw32/bin/../lib/gcc/nios2-elf/4.1.2/../../../../nios2-elf/lib\libc.a(lib_a-memchr.o)
                                0x178 (size before relaxing)
 .debug_str     0x00001667       0x69 c:/altera/10.1/nios2eds/bin/gnu/h-i686-mingw32/bin/../lib/gcc/nios2-elf/4.1.2/../../../../nios2-elf/lib\libc.a(lib_a-memcpy.o)
                                0x115 (size before relaxing)
 .debug_str     0x000016d0       0x4d c:/altera/10.1/nios2eds/bin/gnu/h-i686-mingw32/bin/../lib/gcc/nios2-elf/4.1.2/../../../../nios2-elf/lib\libc.a(lib_a-memmove.o)
                                0x18a (size before relaxing)
 .debug_str     0x0000171d       0x4f c:/altera/10.1/nios2eds/bin/gnu/h-i686-mingw32/bin/../lib/gcc/nios2-elf/4.1.2/../../../../nios2-elf/lib\libc.a(lib_a-memset.o)
                                0x16b (size before relaxing)
 .debug_str     0x0000176c       0xf8 c:/altera/10.1/nios2eds/bin/gnu/h-i686-mingw32/bin/../lib/gcc/nios2-elf/4.1.2/../../../../nios2-elf/lib\libc.a(lib_a-mprec.o)
                                0x5fb (size before relaxing)
 .debug_str     0x00001864       0x59 c:/altera/10.1/nios2eds/bin/gnu/h-i686-mingw32/bin/../lib/gcc/nios2-elf/4.1.2/../../../../nios2-elf/lib\libc.a(lib_a-reallocr.o)
                                0x5b0 (size before relaxing)
 .debug_str     0x000018bd       0xc9 c:/altera/10.1/nios2eds/bin/gnu/h-i686-mingw32/bin/../lib/gcc/nios2-elf/4.1.2/../../../../nios2-elf/lib\libc.a(lib_a-s_isinfd.o)
                                0x177 (size before relaxing)
 .debug_str     0x00001986       0x46 c:/altera/10.1/nios2eds/bin/gnu/h-i686-mingw32/bin/../lib/gcc/nios2-elf/4.1.2/../../../../nios2-elf/lib\libc.a(lib_a-s_isnand.o)
                                0x177 (size before relaxing)
 .debug_str     0x000019cc       0x50 c:/altera/10.1/nios2eds/bin/gnu/h-i686-mingw32/bin/../lib/gcc/nios2-elf/4.1.2/../../../../nios2-elf/lib\libc.a(lib_a-sbrkr.o)
                                0x4f8 (size before relaxing)
 .debug_str     0x00001a1c       0x62 c:/altera/10.1/nios2eds/bin/gnu/h-i686-mingw32/bin/../lib/gcc/nios2-elf/4.1.2/../../../../nios2-elf/lib\libc.a(lib_a-stdio.o)
                                0x51e (size before relaxing)
 .debug_str     0x00001a7e       0x42 c:/altera/10.1/nios2eds/bin/gnu/h-i686-mingw32/bin/../lib/gcc/nios2-elf/4.1.2/../../../../nios2-elf/lib\libc.a(lib_a-strcmp.o)
                                0x150 (size before relaxing)
 .debug_str     0x00001ac0       0x42 c:/altera/10.1/nios2eds/bin/gnu/h-i686-mingw32/bin/../lib/gcc/nios2-elf/4.1.2/../../../../nios2-elf/lib\libc.a(lib_a-strlen.o)
                                0x16a (size before relaxing)
 .debug_str     0x00001b02       0x4c c:/altera/10.1/nios2eds/bin/gnu/h-i686-mingw32/bin/../lib/gcc/nios2-elf/4.1.2/../../../../nios2-elf/lib\libc.a(lib_a-writer.o)
                                0x4fb (size before relaxing)
 .debug_str     0x00001b4e       0x19 c:/altera/10.1/nios2eds/bin/gnu/h-i686-mingw32/bin/../lib/gcc/nios2-elf/4.1.2/../../../../nios2-elf/lib\libc.a(lib_a-callocr.o)
                                0x52f (size before relaxing)
 .debug_str     0x00001b67       0x43 c:/altera/10.1/nios2eds/bin/gnu/h-i686-mingw32/bin/../lib/gcc/nios2-elf/4.1.2/../../../../nios2-elf/lib\libc.a(lib_a-closer.o)
                                0x4eb (size before relaxing)
 .debug_str     0x00001baa       0x4b c:/altera/10.1/nios2eds/bin/gnu/h-i686-mingw32/bin/../lib/gcc/nios2-elf/4.1.2/../../../../nios2-elf/lib\libc.a(lib_a-fclose.o)
                                0x503 (size before relaxing)
 .debug_str     0x00001bf5       0x49 c:/altera/10.1/nios2eds/bin/gnu/h-i686-mingw32/bin/../lib/gcc/nios2-elf/4.1.2/../../../../nios2-elf/lib\libc.a(lib_a-fstatr.o)
                                0x5de (size before relaxing)
 .debug_str     0x00001c3e       0x45 c:/altera/10.1/nios2eds/bin/gnu/h-i686-mingw32/bin/../lib/gcc/nios2-elf/4.1.2/../../../../nios2-elf/lib\libc.a(lib_a-isattyr.o)
                                0x4ed (size before relaxing)
 .debug_str     0x00001c83       0x43 c:/altera/10.1/nios2eds/bin/gnu/h-i686-mingw32/bin/../lib/gcc/nios2-elf/4.1.2/../../../../nios2-elf/lib\libc.a(lib_a-lseekr.o)
                                0x4f9 (size before relaxing)
 .debug_str     0x00001cc6       0x41 c:/altera/10.1/nios2eds/bin/gnu/h-i686-mingw32/bin/../lib/gcc/nios2-elf/4.1.2/../../../../nios2-elf/lib\libc.a(lib_a-readr.o)
                                0x4f9 (size before relaxing)
 .debug_str     0x00001d07       0x47 c:/altera/10.1/nios2eds/bin/gnu/h-i686-mingw32/bin/../lib/gcc/nios2-elf/4.1.2\libgcc.a(_muldi3.o)
                                0x199 (size before relaxing)
 .debug_str     0x00001d4e       0x35 c:/altera/10.1/nios2eds/bin/gnu/h-i686-mingw32/bin/../lib/gcc/nios2-elf/4.1.2\libgcc.a(_udivdi3.o)
                                0x1e4 (size before relaxing)
 .debug_str     0x00001d83        0xa c:/altera/10.1/nios2eds/bin/gnu/h-i686-mingw32/bin/../lib/gcc/nios2-elf/4.1.2\libgcc.a(_umoddi3.o)
                                0x1e4 (size before relaxing)
 .debug_str     0x00001d8d       0x67 c:/altera/10.1/nios2eds/bin/gnu/h-i686-mingw32/bin/../lib/gcc/nios2-elf/4.1.2\libgcc.a(_addsub_df.o)
                                0x25c (size before relaxing)
 .debug_str     0x00001df4       0x40 c:/altera/10.1/nios2eds/bin/gnu/h-i686-mingw32/bin/../lib/gcc/nios2-elf/4.1.2\libgcc.a(_mul_df.o)
                                0x22e (size before relaxing)
 .debug_str     0x00001e34        0x8 c:/altera/10.1/nios2eds/bin/gnu/h-i686-mingw32/bin/../lib/gcc/nios2-elf/4.1.2\libgcc.a(_eq_df.o)
                                0x1eb (size before relaxing)
 .debug_str     0x00001e3c        0x8 c:/altera/10.1/nios2eds/bin/gnu/h-i686-mingw32/bin/../lib/gcc/nios2-elf/4.1.2\libgcc.a(_ne_df.o)
                                0x1eb (size before relaxing)
 .debug_str     0x00001e44        0x8 c:/altera/10.1/nios2eds/bin/gnu/h-i686-mingw32/bin/../lib/gcc/nios2-elf/4.1.2\libgcc.a(_ge_df.o)
                                0x1eb (size before relaxing)
 .debug_str     0x00001e4c        0xa c:/altera/10.1/nios2eds/bin/gnu/h-i686-mingw32/bin/../lib/gcc/nios2-elf/4.1.2\libgcc.a(_df_to_si.o)
                                0x1f4 (size before relaxing)
 .debug_str     0x00001e56       0x14 c:/altera/10.1/nios2eds/bin/gnu/h-i686-mingw32/bin/../lib/gcc/nios2-elf/4.1.2\libgcc.a(_usi_to_df.o)
                                0x1c7 (size before relaxing)
 .debug_str     0x00001e6a       0x12 ../hi_bsp\libhal_bsp.a(alt_close.o)
 .debug_str     0x00001e7c       0x12 ../hi_bsp\libhal_bsp.a(alt_dev.o)
 .debug_str     0x00001e8e       0x12 ../hi_bsp\libhal_bsp.a(alt_errno.o)
 .debug_str     0x00001ea0       0x12 ../hi_bsp\libhal_bsp.a(alt_fstat.o)
 .debug_str     0x00001eb2       0x12 ../hi_bsp\libhal_bsp.a(alt_gettod.o)
 .debug_str     0x00001ec4       0x12 ../hi_bsp\libhal_bsp.a(alt_isatty.o)
 .debug_str     0x00001ed6       0x12 ../hi_bsp\libhal_bsp.a(alt_lseek.o)
 .debug_str     0x00001ee8       0x12 ../hi_bsp\libhal_bsp.a(alt_main.o)
 .debug_str     0x00001efa       0x20 ../hi_bsp\libhal_bsp.a(alt_malloc_lock.o)
 .debug_str     0x00001f1a       0x20 ../hi_bsp\libhal_bsp.a(alt_putchar.o)
 .debug_str     0x00001f3a       0x12 ../hi_bsp\libhal_bsp.a(alt_read.o)
 .debug_str     0x00001f4c       0x1a ../hi_bsp\libhal_bsp.a(alt_sbrk.o)
 .debug_str     0x00001f66       0x1a ../hi_bsp\libhal_bsp.a(alt_tick.o)
 .debug_str     0x00001f80       0x12 ../hi_bsp\libhal_bsp.a(alt_usleep.o)
 .debug_str     0x00001f92       0x12 ../hi_bsp\libhal_bsp.a(alt_write.o)
 .debug_str     0x00001fa4       0xd3 ../hi_bsp\libhal_bsp.a(alt_sys_init.o)
 .debug_str     0x00002077       0x82 ../hi_bsp\libhal_bsp.a(altera_avalon_cfi_flash.o)
 .debug_str     0x000020f9       0x6d ../hi_bsp\libhal_bsp.a(altera_avalon_cfi_flash_table.o)
 .debug_str     0x00002166       0x12 ../hi_bsp\libhal_bsp.a(altera_avalon_jtag_uart_fd.o)
 .debug_str     0x00002178       0x1a ../hi_bsp\libhal_bsp.a(altera_avalon_jtag_uart_init.o)
 .debug_str     0x00002192       0x12 ../hi_bsp\libhal_bsp.a(altera_avalon_jtag_uart_ioctl.o)
 .debug_str     0x000021a4       0x1a ../hi_bsp\libhal_bsp.a(altera_avalon_jtag_uart_read.o)
 .debug_str     0x000021be       0x1a ../hi_bsp\libhal_bsp.a(altera_avalon_jtag_uart_write.o)
 .debug_str     0x000021d8       0x12 ../hi_bsp\libhal_bsp.a(altera_avalon_timer_sc.o)
 .debug_str     0x000021ea       0x12 ../hi_bsp\libhal_bsp.a(altera_avalon_uart_fd.o)
 .debug_str     0x000021fc       0x19 ../hi_bsp\libhal_bsp.a(altera_avalon_uart_init.o)
 .debug_str     0x00002215       0x1a ../hi_bsp\libhal_bsp.a(altera_avalon_uart_read.o)
 .debug_str     0x0000222f       0x1a ../hi_bsp\libhal_bsp.a(altera_avalon_uart_write.o)
 .debug_str     0x00002249       0x3a ../hi_bsp\libhal_bsp.a(altera_up_avalon_ps2.o)
 .debug_str     0x00002283       0x35 ../hi_bsp\libhal_bsp.a(altera_up_avalon_video_character_buffer_with_dma.o)
 .debug_str     0x000022b8       0x2d ../hi_bsp\libhal_bsp.a(altera_up_ps2_keyboard.o)
 .debug_str     0x000022e5       0x23 ../hi_bsp\libhal_bsp.a(alt_alarm_start.o)
 .debug_str     0x00002308       0x12 ../hi_bsp\libhal_bsp.a(alt_busy_sleep.o)
 .debug_str     0x0000231a       0x12 ../hi_bsp\libhal_bsp.a(alt_dcache_flush.o)
 .debug_str     0x0000232c       0x12 ../hi_bsp\libhal_bsp.a(alt_dev_llist_insert.o)
 .debug_str     0x0000233e       0x12 ../hi_bsp\libhal_bsp.a(alt_find_dev.o)
 .debug_str     0x00002350       0x2d ../hi_bsp\libhal_bsp.a(alt_flash_dev.o)
 .debug_str     0x0000237d       0x12 ../hi_bsp\libhal_bsp.a(alt_io_redirect.o)
 .debug_str     0x0000238f       0x21 ../hi_bsp\libhal_bsp.a(alt_irq_register.o)
 .debug_str     0x000023b0       0x12 ../hi_bsp\libhal_bsp.a(alt_open.o)
 .debug_str     0x000023c2       0x12 ../hi_bsp\libhal_bsp.a(altera_nios2_irq.o)
 .debug_str     0x000023d4       0x76 ../hi_bsp\libhal_bsp.a(altera_avalon_cfi_flash_amd.o)
 .debug_str     0x0000244a       0x7d ../hi_bsp\libhal_bsp.a(altera_avalon_cfi_flash_intel.o)
 .debug_str     0x000024c7       0x12 ../hi_bsp\libhal_bsp.a(alt_find_file.o)
 .debug_str     0x000024d9       0x12 ../hi_bsp\libhal_bsp.a(alt_get_fd.o)
 .debug_str     0x000024eb       0x12 ../hi_bsp\libhal_bsp.a(alt_irq_handler.o)
 .debug_str     0x000024fd       0x3b c:/altera/10.1/nios2eds/bin/gnu/h-i686-mingw32/bin/../lib/gcc/nios2-elf/4.1.2/../../../../nios2-elf/lib\libc.a(lib_a-atexit.o)
                                0x1ac (size before relaxing)
 .debug_str     0x00002538       0x3e c:/altera/10.1/nios2eds/bin/gnu/h-i686-mingw32/bin/../lib/gcc/nios2-elf/4.1.2/../../../../nios2-elf/lib\libc.a(lib_a-exit.o)
                                0x4f9 (size before relaxing)
 .debug_str     0x00002576       0x42 c:/altera/10.1/nios2eds/bin/gnu/h-i686-mingw32/bin/../lib/gcc/nios2-elf/4.1.2/../../../../nios2-elf/lib\libc.a(lib_a-memcmp.o)
                                0x157 (size before relaxing)
 .debug_str     0x000025b8       0x45 c:/altera/10.1/nios2eds/bin/gnu/h-i686-mingw32/bin/../lib/gcc/nios2-elf/4.1.2/../../../../nios2-elf/lib\libc.a(lib_a-putc.o)
                                0x4ff (size before relaxing)
 .debug_str     0x000025fd       0x42 c:/altera/10.1/nios2eds/bin/gnu/h-i686-mingw32/bin/../lib/gcc/nios2-elf/4.1.2/../../../../nios2-elf/lib\libc.a(lib_a-strcpy.o)
                                0x172 (size before relaxing)
 .debug_str     0x0000263f       0x4a c:/altera/10.1/nios2eds/bin/gnu/h-i686-mingw32/bin/../lib/gcc/nios2-elf/4.1.2/../../../../nios2-elf/lib\libc.a(lib_a-wbuf.o)
                                0x4fd (size before relaxing)
 .debug_str     0x00002689       0x51 c:/altera/10.1/nios2eds/bin/gnu/h-i686-mingw32/bin/../lib/gcc/nios2-elf/4.1.2/../../../../nios2-elf/lib\libc.a(lib_a-__atexit.o)
                                0x511 (size before relaxing)
 .debug_str     0x000026da       0x7b c:/altera/10.1/nios2eds/bin/gnu/h-i686-mingw32/bin/../lib/gcc/nios2-elf/4.1.2/../../../../nios2-elf/lib\libc.a(lib_a-__call_atexit.o)
                                0x53b (size before relaxing)
 .debug_str     0x00002755       0x1c ../hi_bsp\libhal_bsp.a(alt_exit.o)

.debug_loc      0x00000000     0xd3c0
 *(.debug_loc)
 .debug_loc     0x00000000      0x25b obj/hello_world.o
 .debug_loc     0x0000025b       0x45 c:/altera/10.1/nios2eds/bin/gnu/h-i686-mingw32/bin/../lib/gcc/nios2-elf/4.1.2\libgcc.a(_gt_sf.o)
 .debug_loc     0x000002a0       0x45 c:/altera/10.1/nios2eds/bin/gnu/h-i686-mingw32/bin/../lib/gcc/nios2-elf/4.1.2\libgcc.a(_lt_sf.o)
 .debug_loc     0x000002e5       0x32 c:/altera/10.1/nios2eds/bin/gnu/h-i686-mingw32/bin/../lib/gcc/nios2-elf/4.1.2\libgcc.a(_sf_to_df.o)
 .debug_loc     0x00000317      0x1df c:/altera/10.1/nios2eds/bin/gnu/h-i686-mingw32/bin/../lib/gcc/nios2-elf/4.1.2\libgcc.a(_div_df.o)
 .debug_loc     0x000004f6       0x70 c:/altera/10.1/nios2eds/bin/gnu/h-i686-mingw32/bin/../lib/gcc/nios2-elf/4.1.2\libgcc.a(_gt_df.o)
 .debug_loc     0x00000566       0x70 c:/altera/10.1/nios2eds/bin/gnu/h-i686-mingw32/bin/../lib/gcc/nios2-elf/4.1.2\libgcc.a(_lt_df.o)
 .debug_loc     0x000005d6       0x9a c:/altera/10.1/nios2eds/bin/gnu/h-i686-mingw32/bin/../lib/gcc/nios2-elf/4.1.2\libgcc.a(_si_to_df.o)
 .debug_loc     0x00000670       0x58 c:/altera/10.1/nios2eds/bin/gnu/h-i686-mingw32/bin/../lib/gcc/nios2-elf/4.1.2\libgcc.a(_make_df.o)
 .debug_loc     0x000006c8       0x6a c:/altera/10.1/nios2eds/bin/gnu/h-i686-mingw32/bin/../lib/gcc/nios2-elf/4.1.2\libgcc.a(_df_to_sf.o)
 .debug_loc     0x00000732      0x1d2 c:/altera/10.1/nios2eds/bin/gnu/h-i686-mingw32/bin/../lib/gcc/nios2-elf/4.1.2\libgcc.a(lib2-divmod.o)
 .debug_loc     0x00000904       0x1e c:/altera/10.1/nios2eds/bin/gnu/h-i686-mingw32/bin/../lib/gcc/nios2-elf/4.1.2\libgcc.a(_clzsi2.o)
 .debug_loc     0x00000922       0x31 c:/altera/10.1/nios2eds/bin/gnu/h-i686-mingw32/bin/../lib/gcc/nios2-elf/4.1.2\libgcc.a(_unpack_sf.o)
 .debug_loc     0x00000953       0x3c c:/altera/10.1/nios2eds/bin/gnu/h-i686-mingw32/bin/../lib/gcc/nios2-elf/4.1.2\libgcc.a(_fpcmp_parts_sf.o)
 .debug_loc     0x0000098f       0x6b c:/altera/10.1/nios2eds/bin/gnu/h-i686-mingw32/bin/../lib/gcc/nios2-elf/4.1.2\libgcc.a(_make_sf.o)
 .debug_loc     0x000009fa      0x184 c:/altera/10.1/nios2eds/bin/gnu/h-i686-mingw32/bin/../lib/gcc/nios2-elf/4.1.2\libgcc.a(_pack_df.o)
 .debug_loc     0x00000b7e       0xe5 c:/altera/10.1/nios2eds/bin/gnu/h-i686-mingw32/bin/../lib/gcc/nios2-elf/4.1.2\libgcc.a(_unpack_df.o)
 .debug_loc     0x00000c63       0xf9 c:/altera/10.1/nios2eds/bin/gnu/h-i686-mingw32/bin/../lib/gcc/nios2-elf/4.1.2\libgcc.a(_pack_sf.o)
 .debug_loc     0x00000d5c       0xcb c:/altera/10.1/nios2eds/bin/gnu/h-i686-mingw32/bin/../lib/gcc/nios2-elf/4.1.2/../../../../nios2-elf/lib\libc.a(lib_a-printf.o)
 .debug_loc     0x00000e27       0x42 c:/altera/10.1/nios2eds/bin/gnu/h-i686-mingw32/bin/../lib/gcc/nios2-elf/4.1.2/../../../../nios2-elf/lib\libc.a(lib_a-rand.o)
 .debug_loc     0x00000e69       0x48 c:/altera/10.1/nios2eds/bin/gnu/h-i686-mingw32/bin/../lib/gcc/nios2-elf/4.1.2/../../../../nios2-elf/lib\libc.a(lib_a-time.o)
 .debug_loc     0x00000eb1     0x1e0d c:/altera/10.1/nios2eds/bin/gnu/h-i686-mingw32/bin/../lib/gcc/nios2-elf/4.1.2/../../../../nios2-elf/lib\libc.a(lib_a-vfprintf.o)
 .debug_loc     0x00002cbe       0x7c c:/altera/10.1/nios2eds/bin/gnu/h-i686-mingw32/bin/../lib/gcc/nios2-elf/4.1.2/../../../../nios2-elf/lib\libc.a(lib_a-wsetup.o)
 .debug_loc     0x00002d3a     0x1dfa c:/altera/10.1/nios2eds/bin/gnu/h-i686-mingw32/bin/../lib/gcc/nios2-elf/4.1.2/../../../../nios2-elf/lib\libc.a(lib_a-dtoa.o)
 .debug_loc     0x00004b34      0x1f6 c:/altera/10.1/nios2eds/bin/gnu/h-i686-mingw32/bin/../lib/gcc/nios2-elf/4.1.2/../../../../nios2-elf/lib\libc.a(lib_a-fflush.o)
 .debug_loc     0x00004d2a      0x19f c:/altera/10.1/nios2eds/bin/gnu/h-i686-mingw32/bin/../lib/gcc/nios2-elf/4.1.2/../../../../nios2-elf/lib\libc.a(lib_a-findfp.o)
 .debug_loc     0x00004ec9      0x4a7 c:/altera/10.1/nios2eds/bin/gnu/h-i686-mingw32/bin/../lib/gcc/nios2-elf/4.1.2/../../../../nios2-elf/lib\libc.a(lib_a-freer.o)
 .debug_loc     0x00005370      0x4e4 c:/altera/10.1/nios2eds/bin/gnu/h-i686-mingw32/bin/../lib/gcc/nios2-elf/4.1.2/../../../../nios2-elf/lib\libc.a(lib_a-fvwrite.o)
 .debug_loc     0x00005854      0x1d2 c:/altera/10.1/nios2eds/bin/gnu/h-i686-mingw32/bin/../lib/gcc/nios2-elf/4.1.2/../../../../nios2-elf/lib\libc.a(lib_a-fwalk.o)
 .debug_loc     0x00005a26       0x79 c:/altera/10.1/nios2eds/bin/gnu/h-i686-mingw32/bin/../lib/gcc/nios2-elf/4.1.2/../../../../nios2-elf/lib\libc.a(lib_a-gettimeofdayr.o)
 .debug_loc     0x00005a9f       0xe1 c:/altera/10.1/nios2eds/bin/gnu/h-i686-mingw32/bin/../lib/gcc/nios2-elf/4.1.2/../../../../nios2-elf/lib\libc.a(lib_a-locale.o)
 .debug_loc     0x00005b80      0x11c c:/altera/10.1/nios2eds/bin/gnu/h-i686-mingw32/bin/../lib/gcc/nios2-elf/4.1.2/../../../../nios2-elf/lib\libc.a(lib_a-makebuf.o)
 .debug_loc     0x00005c9c      0xaeb c:/altera/10.1/nios2eds/bin/gnu/h-i686-mingw32/bin/../lib/gcc/nios2-elf/4.1.2/../../../../nios2-elf/lib\libc.a(lib_a-mallocr.o)
 .debug_loc     0x00006787      0x106 c:/altera/10.1/nios2eds/bin/gnu/h-i686-mingw32/bin/../lib/gcc/nios2-elf/4.1.2/../../../../nios2-elf/lib\libc.a(lib_a-memchr.o)
 .debug_loc     0x0000688d       0xca c:/altera/10.1/nios2eds/bin/gnu/h-i686-mingw32/bin/../lib/gcc/nios2-elf/4.1.2/../../../../nios2-elf/lib\libc.a(lib_a-memcpy.o)
 .debug_loc     0x00006957      0x117 c:/altera/10.1/nios2eds/bin/gnu/h-i686-mingw32/bin/../lib/gcc/nios2-elf/4.1.2/../../../../nios2-elf/lib\libc.a(lib_a-memmove.o)
 .debug_loc     0x00006a6e       0xa1 c:/altera/10.1/nios2eds/bin/gnu/h-i686-mingw32/bin/../lib/gcc/nios2-elf/4.1.2/../../../../nios2-elf/lib\libc.a(lib_a-memset.o)
 .debug_loc     0x00006b0f     0x14d6 c:/altera/10.1/nios2eds/bin/gnu/h-i686-mingw32/bin/../lib/gcc/nios2-elf/4.1.2/../../../../nios2-elf/lib\libc.a(lib_a-mprec.o)
 .debug_loc     0x00007fe5      0x8c0 c:/altera/10.1/nios2eds/bin/gnu/h-i686-mingw32/bin/../lib/gcc/nios2-elf/4.1.2/../../../../nios2-elf/lib\libc.a(lib_a-reallocr.o)
 .debug_loc     0x000088a5       0x36 c:/altera/10.1/nios2eds/bin/gnu/h-i686-mingw32/bin/../lib/gcc/nios2-elf/4.1.2/../../../../nios2-elf/lib\libc.a(lib_a-s_isinfd.o)
 .debug_loc     0x000088db       0x18 c:/altera/10.1/nios2eds/bin/gnu/h-i686-mingw32/bin/../lib/gcc/nios2-elf/4.1.2/../../../../nios2-elf/lib\libc.a(lib_a-s_isnand.o)
 .debug_loc     0x000088f3       0x5b c:/altera/10.1/nios2eds/bin/gnu/h-i686-mingw32/bin/../lib/gcc/nios2-elf/4.1.2/../../../../nios2-elf/lib\libc.a(lib_a-sbrkr.o)
 .debug_loc     0x0000894e      0x21f c:/altera/10.1/nios2eds/bin/gnu/h-i686-mingw32/bin/../lib/gcc/nios2-elf/4.1.2/../../../../nios2-elf/lib\libc.a(lib_a-stdio.o)
 .debug_loc     0x00008b6d       0x65 c:/altera/10.1/nios2eds/bin/gnu/h-i686-mingw32/bin/../lib/gcc/nios2-elf/4.1.2/../../../../nios2-elf/lib\libc.a(lib_a-strcmp.o)
 .debug_loc     0x00008bd2       0x3c c:/altera/10.1/nios2eds/bin/gnu/h-i686-mingw32/bin/../lib/gcc/nios2-elf/4.1.2/../../../../nios2-elf/lib\libc.a(lib_a-strlen.o)
 .debug_loc     0x00008c0e       0x97 c:/altera/10.1/nios2eds/bin/gnu/h-i686-mingw32/bin/../lib/gcc/nios2-elf/4.1.2/../../../../nios2-elf/lib\libc.a(lib_a-writer.o)
 .debug_loc     0x00008ca5       0xe9 c:/altera/10.1/nios2eds/bin/gnu/h-i686-mingw32/bin/../lib/gcc/nios2-elf/4.1.2/../../../../nios2-elf/lib\libc.a(lib_a-callocr.o)
 .debug_loc     0x00008d8e       0x5b c:/altera/10.1/nios2eds/bin/gnu/h-i686-mingw32/bin/../lib/gcc/nios2-elf/4.1.2/../../../../nios2-elf/lib\libc.a(lib_a-closer.o)
 .debug_loc     0x00008de9       0xe4 c:/altera/10.1/nios2eds/bin/gnu/h-i686-mingw32/bin/../lib/gcc/nios2-elf/4.1.2/../../../../nios2-elf/lib\libc.a(lib_a-fclose.o)
 .debug_loc     0x00008ecd       0x79 c:/altera/10.1/nios2eds/bin/gnu/h-i686-mingw32/bin/../lib/gcc/nios2-elf/4.1.2/../../../../nios2-elf/lib\libc.a(lib_a-fstatr.o)
 .debug_loc     0x00008f46       0x5b c:/altera/10.1/nios2eds/bin/gnu/h-i686-mingw32/bin/../lib/gcc/nios2-elf/4.1.2/../../../../nios2-elf/lib\libc.a(lib_a-isattyr.o)
 .debug_loc     0x00008fa1       0x97 c:/altera/10.1/nios2eds/bin/gnu/h-i686-mingw32/bin/../lib/gcc/nios2-elf/4.1.2/../../../../nios2-elf/lib\libc.a(lib_a-lseekr.o)
 .debug_loc     0x00009038       0x97 c:/altera/10.1/nios2eds/bin/gnu/h-i686-mingw32/bin/../lib/gcc/nios2-elf/4.1.2/../../../../nios2-elf/lib\libc.a(lib_a-readr.o)
 .debug_loc     0x000090cf       0xcf c:/altera/10.1/nios2eds/bin/gnu/h-i686-mingw32/bin/../lib/gcc/nios2-elf/4.1.2\libgcc.a(_muldi3.o)
 .debug_loc     0x0000919e      0xc12 c:/altera/10.1/nios2eds/bin/gnu/h-i686-mingw32/bin/../lib/gcc/nios2-elf/4.1.2\libgcc.a(_udivdi3.o)
 .debug_loc     0x00009db0      0xc31 c:/altera/10.1/nios2eds/bin/gnu/h-i686-mingw32/bin/../lib/gcc/nios2-elf/4.1.2\libgcc.a(_umoddi3.o)
 .debug_loc     0x0000a9e1      0x47a c:/altera/10.1/nios2eds/bin/gnu/h-i686-mingw32/bin/../lib/gcc/nios2-elf/4.1.2\libgcc.a(_addsub_df.o)
 .debug_loc     0x0000ae5b      0x3b4 c:/altera/10.1/nios2eds/bin/gnu/h-i686-mingw32/bin/../lib/gcc/nios2-elf/4.1.2\libgcc.a(_mul_df.o)
 .debug_loc     0x0000b20f       0x70 c:/altera/10.1/nios2eds/bin/gnu/h-i686-mingw32/bin/../lib/gcc/nios2-elf/4.1.2\libgcc.a(_eq_df.o)
 .debug_loc     0x0000b27f       0x70 c:/altera/10.1/nios2eds/bin/gnu/h-i686-mingw32/bin/../lib/gcc/nios2-elf/4.1.2\libgcc.a(_ne_df.o)
 .debug_loc     0x0000b2ef       0x70 c:/altera/10.1/nios2eds/bin/gnu/h-i686-mingw32/bin/../lib/gcc/nios2-elf/4.1.2\libgcc.a(_ge_df.o)
 .debug_loc     0x0000b35f       0x8b c:/altera/10.1/nios2eds/bin/gnu/h-i686-mingw32/bin/../lib/gcc/nios2-elf/4.1.2\libgcc.a(_df_to_si.o)
 .debug_loc     0x0000b3ea       0x5b c:/altera/10.1/nios2eds/bin/gnu/h-i686-mingw32/bin/../lib/gcc/nios2-elf/4.1.2\libgcc.a(_usi_to_df.o)
 .debug_loc     0x0000b445       0x56 ../hi_bsp\libhal_bsp.a(alt_close.o)
 .debug_loc     0x0000b49b       0x2b ../hi_bsp\libhal_bsp.a(alt_dev.o)
 .debug_loc     0x0000b4c6       0x56 ../hi_bsp\libhal_bsp.a(alt_fstat.o)
 .debug_loc     0x0000b51c       0x2b ../hi_bsp\libhal_bsp.a(alt_gettod.o)
 .debug_loc     0x0000b547       0x57 ../hi_bsp\libhal_bsp.a(alt_isatty.o)
 .debug_loc     0x0000b59e       0x56 ../hi_bsp\libhal_bsp.a(alt_lseek.o)
 .debug_loc     0x0000b5f4       0x2b ../hi_bsp\libhal_bsp.a(alt_main.o)
 .debug_loc     0x0000b61f       0x56 ../hi_bsp\libhal_bsp.a(alt_malloc_lock.o)
 .debug_loc     0x0000b675       0x2b ../hi_bsp\libhal_bsp.a(alt_printf.o)
 .debug_loc     0x0000b6a0       0x2b ../hi_bsp\libhal_bsp.a(alt_putchar.o)
 .debug_loc     0x0000b6cb       0x56 ../hi_bsp\libhal_bsp.a(alt_read.o)
 .debug_loc     0x0000b721       0x2b ../hi_bsp\libhal_bsp.a(alt_release_fd.o)
 .debug_loc     0x0000b74c       0x2b ../hi_bsp\libhal_bsp.a(alt_sbrk.o)
 .debug_loc     0x0000b777       0x56 ../hi_bsp\libhal_bsp.a(alt_tick.o)
 .debug_loc     0x0000b7cd       0x2b ../hi_bsp\libhal_bsp.a(alt_usleep.o)
 .debug_loc     0x0000b7f8       0x56 ../hi_bsp\libhal_bsp.a(alt_write.o)
 .debug_loc     0x0000b84e       0x81 ../hi_bsp\libhal_bsp.a(alt_sys_init.o)
 .debug_loc     0x0000b8cf      0x12e ../hi_bsp\libhal_bsp.a(altera_avalon_cfi_flash.o)
 .debug_loc     0x0000b9fd      0x306 ../hi_bsp\libhal_bsp.a(altera_avalon_cfi_flash_table.o)
 .debug_loc     0x0000bd03       0xac ../hi_bsp\libhal_bsp.a(altera_avalon_jtag_uart_fd.o)
 .debug_loc     0x0000bdaf       0xac ../hi_bsp\libhal_bsp.a(altera_avalon_jtag_uart_init.o)
 .debug_loc     0x0000be5b       0x2b ../hi_bsp\libhal_bsp.a(altera_avalon_jtag_uart_ioctl.o)
 .debug_loc     0x0000be86       0x2b ../hi_bsp\libhal_bsp.a(altera_avalon_jtag_uart_read.o)
 .debug_loc     0x0000beb1       0x2b ../hi_bsp\libhal_bsp.a(altera_avalon_jtag_uart_write.o)
 .debug_loc     0x0000bedc       0x2b ../hi_bsp\libhal_bsp.a(altera_avalon_spi.o)
 .debug_loc     0x0000bf07       0x56 ../hi_bsp\libhal_bsp.a(altera_avalon_timer_sc.o)
 .debug_loc     0x0000bf5d       0x81 ../hi_bsp\libhal_bsp.a(altera_avalon_uart_fd.o)
 .debug_loc     0x0000bfde       0xd7 ../hi_bsp\libhal_bsp.a(altera_avalon_uart_init.o)
 .debug_loc     0x0000c0b5       0x57 ../hi_bsp\libhal_bsp.a(altera_avalon_uart_read.o)
 .debug_loc     0x0000c10c       0x56 ../hi_bsp\libhal_bsp.a(altera_avalon_uart_write.o)
 .debug_loc     0x0000c162      0x306 ../hi_bsp\libhal_bsp.a(altera_up_avalon_ps2.o)
 .debug_loc     0x0000c468       0xd7 ../hi_bsp\libhal_bsp.a(altera_up_avalon_video_character_buffer_with_dma.o)
 .debug_loc     0x0000c53f      0x12d ../hi_bsp\libhal_bsp.a(altera_up_ps2_keyboard.o)
 .debug_loc     0x0000c66c       0x2b ../hi_bsp\libhal_bsp.a(alt_alarm_start.o)
 .debug_loc     0x0000c697       0x2b ../hi_bsp\libhal_bsp.a(alt_busy_sleep.o)
 .debug_loc     0x0000c6c2       0x2b ../hi_bsp\libhal_bsp.a(alt_dcache_flush.o)
 .debug_loc     0x0000c6ed       0x56 ../hi_bsp\libhal_bsp.a(alt_dev_llist_insert.o)
 .debug_loc     0x0000c743       0x2b ../hi_bsp\libhal_bsp.a(alt_do_ctors.o)
 .debug_loc     0x0000c76e       0x2b ../hi_bsp\libhal_bsp.a(alt_do_dtors.o)
 .debug_loc     0x0000c799       0x2b ../hi_bsp\libhal_bsp.a(alt_find_dev.o)
 .debug_loc     0x0000c7c4       0x56 ../hi_bsp\libhal_bsp.a(alt_flash_dev.o)
 .debug_loc     0x0000c81a       0x56 ../hi_bsp\libhal_bsp.a(alt_io_redirect.o)
 .debug_loc     0x0000c870       0x2c ../hi_bsp\libhal_bsp.a(alt_irq_register.o)
 .debug_loc     0x0000c89c       0x81 ../hi_bsp\libhal_bsp.a(alt_open.o)
 .debug_loc     0x0000c91d       0x2b ../hi_bsp\libhal_bsp.a(altera_nios2_irq.o)
 .debug_loc     0x0000c948       0xac ../hi_bsp\libhal_bsp.a(altera_avalon_cfi_flash_amd.o)
 .debug_loc     0x0000c9f4       0xac ../hi_bsp\libhal_bsp.a(altera_avalon_cfi_flash_intel.o)
 .debug_loc     0x0000caa0       0x2b ../hi_bsp\libhal_bsp.a(alt_find_file.o)
 .debug_loc     0x0000cacb       0x2b ../hi_bsp\libhal_bsp.a(alt_get_fd.o)
 .debug_loc     0x0000caf6       0x2b ../hi_bsp\libhal_bsp.a(alt_irq_handler.o)
 .debug_loc     0x0000cb21       0x1e c:/altera/10.1/nios2eds/bin/gnu/h-i686-mingw32/bin/../lib/gcc/nios2-elf/4.1.2/../../../../nios2-elf/lib\libc.a(lib_a-atexit.o)
 .debug_loc     0x0000cb3f       0x3d c:/altera/10.1/nios2eds/bin/gnu/h-i686-mingw32/bin/../lib/gcc/nios2-elf/4.1.2/../../../../nios2-elf/lib\libc.a(lib_a-exit.o)
 .debug_loc     0x0000cb7c      0x114 c:/altera/10.1/nios2eds/bin/gnu/h-i686-mingw32/bin/../lib/gcc/nios2-elf/4.1.2/../../../../nios2-elf/lib\libc.a(lib_a-memcmp.o)
 .debug_loc     0x0000cc90      0x20d c:/altera/10.1/nios2eds/bin/gnu/h-i686-mingw32/bin/../lib/gcc/nios2-elf/4.1.2/../../../../nios2-elf/lib\libc.a(lib_a-putc.o)
 .debug_loc     0x0000ce9d       0x8b c:/altera/10.1/nios2eds/bin/gnu/h-i686-mingw32/bin/../lib/gcc/nios2-elf/4.1.2/../../../../nios2-elf/lib\libc.a(lib_a-strcpy.o)
 .debug_loc     0x0000cf28      0x157 c:/altera/10.1/nios2eds/bin/gnu/h-i686-mingw32/bin/../lib/gcc/nios2-elf/4.1.2/../../../../nios2-elf/lib\libc.a(lib_a-wbuf.o)
 .debug_loc     0x0000d07f      0x120 c:/altera/10.1/nios2eds/bin/gnu/h-i686-mingw32/bin/../lib/gcc/nios2-elf/4.1.2/../../../../nios2-elf/lib\libc.a(lib_a-__atexit.o)
 .debug_loc     0x0000d19f      0x1cb c:/altera/10.1/nios2eds/bin/gnu/h-i686-mingw32/bin/../lib/gcc/nios2-elf/4.1.2/../../../../nios2-elf/lib\libc.a(lib_a-__call_atexit.o)
 .debug_loc     0x0000d36a       0x56 ../hi_bsp\libhal_bsp.a(alt_exit.o)

.debug_macinfo
 *(.debug_macinfo)

.debug_weaknames
 *(.debug_weaknames)

.debug_funcnames
 *(.debug_funcnames)

.debug_typenames
 *(.debug_typenames)

.debug_varnames
 *(.debug_varnames)

.debug_alt_sim_info
                0x00000000       0x50
 *(.debug_alt_sim_info)
 .debug_alt_sim_info
                0x00000000       0x20 ../hi_bsp/obj/HAL/src/crt0.o
 .debug_alt_sim_info
                0x00000020       0x30 ../hi_bsp\libhal_bsp.a(alt_busy_sleep.o)
                0x01000000                __alt_data_end = 0x1000000
                0x01000000                PROVIDE (__alt_stack_pointer, __alt_data_end)
                0x00816970                PROVIDE (__alt_stack_limit, __alt_stack_base)
                0x00816970                PROVIDE (__alt_heap_start, end)
                0x01000000                PROVIDE (__alt_heap_limit, 0x1000000)
OUTPUT(hi.elf elf32-littlenios2)

.debug_ranges   0x00000000      0x970
 .debug_ranges  0x00000000       0x50 c:/altera/10.1/nios2eds/bin/gnu/h-i686-mingw32/bin/../lib/gcc/nios2-elf/4.1.2\libgcc.a(_div_df.o)
 .debug_ranges  0x00000050       0x28 c:/altera/10.1/nios2eds/bin/gnu/h-i686-mingw32/bin/../lib/gcc/nios2-elf/4.1.2\libgcc.a(_clzsi2.o)
 .debug_ranges  0x00000078       0x28 c:/altera/10.1/nios2eds/bin/gnu/h-i686-mingw32/bin/../lib/gcc/nios2-elf/4.1.2\libgcc.a(_pack_df.o)
 .debug_ranges  0x000000a0      0x168 c:/altera/10.1/nios2eds/bin/gnu/h-i686-mingw32/bin/../lib/gcc/nios2-elf/4.1.2/../../../../nios2-elf/lib\libc.a(lib_a-vfprintf.o)
 .debug_ranges  0x00000208       0x20 c:/altera/10.1/nios2eds/bin/gnu/h-i686-mingw32/bin/../lib/gcc/nios2-elf/4.1.2/../../../../nios2-elf/lib\libc.a(lib_a-fflush.o)
 .debug_ranges  0x00000228       0x28 c:/altera/10.1/nios2eds/bin/gnu/h-i686-mingw32/bin/../lib/gcc/nios2-elf/4.1.2/../../../../nios2-elf/lib\libc.a(lib_a-fvwrite.o)
 .debug_ranges  0x00000250       0xa0 c:/altera/10.1/nios2eds/bin/gnu/h-i686-mingw32/bin/../lib/gcc/nios2-elf/4.1.2/../../../../nios2-elf/lib\libc.a(lib_a-fwalk.o)
 .debug_ranges  0x000002f0       0x70 c:/altera/10.1/nios2eds/bin/gnu/h-i686-mingw32/bin/../lib/gcc/nios2-elf/4.1.2/../../../../nios2-elf/lib\libc.a(lib_a-mallocr.o)
 .debug_ranges  0x00000360      0x110 c:/altera/10.1/nios2eds/bin/gnu/h-i686-mingw32/bin/../lib/gcc/nios2-elf/4.1.2/../../../../nios2-elf/lib\libc.a(lib_a-reallocr.o)
 .debug_ranges  0x00000470       0x38 c:/altera/10.1/nios2eds/bin/gnu/h-i686-mingw32/bin/../lib/gcc/nios2-elf/4.1.2/../../../../nios2-elf/lib\libc.a(lib_a-callocr.o)
 .debug_ranges  0x000004a8       0x68 c:/altera/10.1/nios2eds/bin/gnu/h-i686-mingw32/bin/../lib/gcc/nios2-elf/4.1.2\libgcc.a(_muldi3.o)
 .debug_ranges  0x00000510      0x188 c:/altera/10.1/nios2eds/bin/gnu/h-i686-mingw32/bin/../lib/gcc/nios2-elf/4.1.2\libgcc.a(_udivdi3.o)
 .debug_ranges  0x00000698      0x198 c:/altera/10.1/nios2eds/bin/gnu/h-i686-mingw32/bin/../lib/gcc/nios2-elf/4.1.2\libgcc.a(_umoddi3.o)
 .debug_ranges  0x00000830       0x30 c:/altera/10.1/nios2eds/bin/gnu/h-i686-mingw32/bin/../lib/gcc/nios2-elf/4.1.2\libgcc.a(_addsub_df.o)
 .debug_ranges  0x00000860       0x88 c:/altera/10.1/nios2eds/bin/gnu/h-i686-mingw32/bin/../lib/gcc/nios2-elf/4.1.2\libgcc.a(_mul_df.o)
 .debug_ranges  0x000008e8       0x18 c:/altera/10.1/nios2eds/bin/gnu/h-i686-mingw32/bin/../lib/gcc/nios2-elf/4.1.2\libgcc.a(_usi_to_df.o)
 .debug_ranges  0x00000900       0x28 ../hi_bsp\libhal_bsp.a(alt_irq_entry.o)
 .debug_ranges  0x00000928       0x30 ../hi_bsp\libhal_bsp.a(alt_exception_entry.o)
 .debug_ranges  0x00000958       0x18 c:/altera/10.1/nios2eds/bin/gnu/h-i686-mingw32/bin/../lib/gcc/nios2-elf/4.1.2/../../../../nios2-elf/lib\libc.a(lib_a-__call_atexit.o)
